
Optional file libmchp_peripheral.a not found

Optional file libmchp_peripheral_32MX795F512L.a not found
Archive member included because of file (symbol)

c:/program files (x86)/microchip/xc32/v1.42/bin/bin/../../lib/gcc/pic32mx/4.8.3\libgcc.a(_udivdi3.o)
                              build/e16_encx24j600_spiflash/production/_ext/29024758/tfm.o (__udivdi3)
c:/program files (x86)/microchip/xc32/v1.42/bin/bin/../../lib/gcc/pic32mx/4.8.3\libgcc.a(floatunsisf.o)
                              build/e16_encx24j600_spiflash/production/_ext/1699919941/dh.o (__floatunsisf)
c:/program files (x86)/microchip/xc32/v1.42/bin/bin/../../lib/gcc/pic32mx/4.8.3/../../../../pic32mx/lib\libpic32.a(memcmp.o)
                              build/e16_encx24j600_spiflash/production/_ext/1360937237/custom_http_app.o (memcmp)
c:/program files (x86)/microchip/xc32/v1.42/bin/bin/../../lib/gcc/pic32mx/4.8.3/../../../../pic32mx/lib\libpic32.a(memcpy.o)
                              build/e16_encx24j600_spiflash/production/_ext/29024758/random.o (memcpy)
c:/program files (x86)/microchip/xc32/v1.42/bin/bin/../../lib/gcc/pic32mx/4.8.3/../../../../pic32mx/lib\libpic32.a(memset.o)
                              build/e16_encx24j600_spiflash/production/_ext/29024758/random.o (memset)
c:/program files (x86)/microchip/xc32/v1.42/bin/bin/../../lib/gcc/pic32mx/4.8.3/../../../../pic32mx/lib\libpic32.a(strcmp.o)
                              build/e16_encx24j600_spiflash/production/_ext/1360937237/custom_http_app.o (strcmp)
c:/program files (x86)/microchip/xc32/v1.42/bin/bin/../../lib/gcc/pic32mx/4.8.3/../../../../pic32mx/lib\libpic32.a(strcpy.o)
                              build/e16_encx24j600_spiflash/production/_ext/1891376032/sys_command.o (strcpy)
c:/program files (x86)/microchip/xc32/v1.42/bin/bin/../../lib/gcc/pic32mx/4.8.3/../../../../pic32mx/lib\libpic32.a(strlen.o)
                              build/e16_encx24j600_spiflash/production/_ext/1360937237/custom_http_app.o (strlen)
c:/program files (x86)/microchip/xc32/v1.42/bin/bin/../../lib/gcc/pic32mx/4.8.3/../../../../pic32mx/lib\libpic32.a(default-bootstrap-exception-handler.o)
                              c:/program files (x86)/microchip/xc32/v1.42/bin/bin/../../lib/gcc/pic32mx/4.8.3/../../../../pic32mx/lib/./proc/32MX795F512L/crt0_mips32r2.o (_bootstrap_exception_handler)
c:/program files (x86)/microchip/xc32/v1.42/bin/bin/../../lib/gcc/pic32mx/4.8.3/../../../../pic32mx/lib\libpic32.a(default-on-reset.o)
                              c:/program files (x86)/microchip/xc32/v1.42/bin/bin/../../lib/gcc/pic32mx/4.8.3/../../../../pic32mx/lib/./proc/32MX795F512L/crt0_mips32r2.o (_on_reset)
c:/program files (x86)/microchip/xc32/v1.42/bin/bin/../../lib/gcc/pic32mx/4.8.3/../../../../pic32mx/lib\libpic32.a(default-on-bootstrap.o)
                              c:/program files (x86)/microchip/xc32/v1.42/bin/bin/../../lib/gcc/pic32mx/4.8.3/../../../../pic32mx/lib/./proc/32MX795F512L/crt0_mips32r2.o (_on_bootstrap)
c:/program files (x86)/microchip/xc32/v1.42/bin/bin/../../lib/gcc/pic32mx/4.8.3/../../../../pic32mx/lib\libpic32.a(default-nmi-handler.o)
                              c:/program files (x86)/microchip/xc32/v1.42/bin/bin/../../lib/gcc/pic32mx/4.8.3/../../../../pic32mx/lib/./proc/32MX795F512L/crt0_mips32r2.o (_nmi_handler)
c:/program files (x86)/microchip/xc32/v1.42/bin/bin/../../lib/gcc/pic32mx/4.8.3/../../../../pic32mx/lib\libpic32.a(general-exception.o)
                              c:/program files (x86)/microchip/xc32/v1.42/bin/bin/../../lib/gcc/pic32mx/4.8.3/../../../../pic32mx/lib/./proc/32MX795F512L/crt0_mips32r2.o (_general_exception_context)
c:/program files (x86)/microchip/xc32/v1.42/bin/bin/../../lib/gcc/pic32mx/4.8.3/../../../../pic32mx/lib\libpic32.a(vector0.o)
                              c:/program files (x86)/microchip/xc32/v1.42/bin/bin/../../lib/gcc/pic32mx/4.8.3/../../../../pic32mx/lib/./proc/32MX795F512L\default_isr_vectors.o (__vector_dispatch_0)
c:/program files (x86)/microchip/xc32/v1.42/bin/bin/../../lib/gcc/pic32mx/4.8.3/../../../../pic32mx/lib\libpic32.a(vector1.o)
                              c:/program files (x86)/microchip/xc32/v1.42/bin/bin/../../lib/gcc/pic32mx/4.8.3/../../../../pic32mx/lib/./proc/32MX795F512L\default_isr_vectors.o (__vector_dispatch_1)
c:/program files (x86)/microchip/xc32/v1.42/bin/bin/../../lib/gcc/pic32mx/4.8.3/../../../../pic32mx/lib\libpic32.a(vector2.o)
                              c:/program files (x86)/microchip/xc32/v1.42/bin/bin/../../lib/gcc/pic32mx/4.8.3/../../../../pic32mx/lib/./proc/32MX795F512L\default_isr_vectors.o (__vector_dispatch_2)
c:/program files (x86)/microchip/xc32/v1.42/bin/bin/../../lib/gcc/pic32mx/4.8.3/../../../../pic32mx/lib\libpic32.a(vector3.o)
                              c:/program files (x86)/microchip/xc32/v1.42/bin/bin/../../lib/gcc/pic32mx/4.8.3/../../../../pic32mx/lib/./proc/32MX795F512L\default_isr_vectors.o (__vector_dispatch_3)
c:/program files (x86)/microchip/xc32/v1.42/bin/bin/../../lib/gcc/pic32mx/4.8.3/../../../../pic32mx/lib\libpic32.a(vector4.o)
                              c:/program files (x86)/microchip/xc32/v1.42/bin/bin/../../lib/gcc/pic32mx/4.8.3/../../../../pic32mx/lib/./proc/32MX795F512L\default_isr_vectors.o (__vector_dispatch_4)
c:/program files (x86)/microchip/xc32/v1.42/bin/bin/../../lib/gcc/pic32mx/4.8.3/../../../../pic32mx/lib\libpic32.a(vector5.o)
                              c:/program files (x86)/microchip/xc32/v1.42/bin/bin/../../lib/gcc/pic32mx/4.8.3/../../../../pic32mx/lib/./proc/32MX795F512L\default_isr_vectors.o (__vector_dispatch_5)
c:/program files (x86)/microchip/xc32/v1.42/bin/bin/../../lib/gcc/pic32mx/4.8.3/../../../../pic32mx/lib\libpic32.a(vector6.o)
                              c:/program files (x86)/microchip/xc32/v1.42/bin/bin/../../lib/gcc/pic32mx/4.8.3/../../../../pic32mx/lib/./proc/32MX795F512L\default_isr_vectors.o (__vector_dispatch_6)
c:/program files (x86)/microchip/xc32/v1.42/bin/bin/../../lib/gcc/pic32mx/4.8.3/../../../../pic32mx/lib\libpic32.a(vector7.o)
                              c:/program files (x86)/microchip/xc32/v1.42/bin/bin/../../lib/gcc/pic32mx/4.8.3/../../../../pic32mx/lib/./proc/32MX795F512L\default_isr_vectors.o (__vector_dispatch_7)
c:/program files (x86)/microchip/xc32/v1.42/bin/bin/../../lib/gcc/pic32mx/4.8.3/../../../../pic32mx/lib\libpic32.a(vector9.o)
                              c:/program files (x86)/microchip/xc32/v1.42/bin/bin/../../lib/gcc/pic32mx/4.8.3/../../../../pic32mx/lib/./proc/32MX795F512L\default_isr_vectors.o (__vector_dispatch_9)
c:/program files (x86)/microchip/xc32/v1.42/bin/bin/../../lib/gcc/pic32mx/4.8.3/../../../../pic32mx/lib\libpic32.a(vector10.o)
                              c:/program files (x86)/microchip/xc32/v1.42/bin/bin/../../lib/gcc/pic32mx/4.8.3/../../../../pic32mx/lib/./proc/32MX795F512L\default_isr_vectors.o (__vector_dispatch_10)
c:/program files (x86)/microchip/xc32/v1.42/bin/bin/../../lib/gcc/pic32mx/4.8.3/../../../../pic32mx/lib\libpic32.a(vector11.o)
                              c:/program files (x86)/microchip/xc32/v1.42/bin/bin/../../lib/gcc/pic32mx/4.8.3/../../../../pic32mx/lib/./proc/32MX795F512L\default_isr_vectors.o (__vector_dispatch_11)
c:/program files (x86)/microchip/xc32/v1.42/bin/bin/../../lib/gcc/pic32mx/4.8.3/../../../../pic32mx/lib\libpic32.a(vector12.o)
                              c:/program files (x86)/microchip/xc32/v1.42/bin/bin/../../lib/gcc/pic32mx/4.8.3/../../../../pic32mx/lib/./proc/32MX795F512L\default_isr_vectors.o (__vector_dispatch_12)
c:/program files (x86)/microchip/xc32/v1.42/bin/bin/../../lib/gcc/pic32mx/4.8.3/../../../../pic32mx/lib\libpic32.a(vector13.o)
                              c:/program files (x86)/microchip/xc32/v1.42/bin/bin/../../lib/gcc/pic32mx/4.8.3/../../../../pic32mx/lib/./proc/32MX795F512L\default_isr_vectors.o (__vector_dispatch_13)
c:/program files (x86)/microchip/xc32/v1.42/bin/bin/../../lib/gcc/pic32mx/4.8.3/../../../../pic32mx/lib\libpic32.a(vector14.o)
                              c:/program files (x86)/microchip/xc32/v1.42/bin/bin/../../lib/gcc/pic32mx/4.8.3/../../../../pic32mx/lib/./proc/32MX795F512L\default_isr_vectors.o (__vector_dispatch_14)
c:/program files (x86)/microchip/xc32/v1.42/bin/bin/../../lib/gcc/pic32mx/4.8.3/../../../../pic32mx/lib\libpic32.a(vector15.o)
                              c:/program files (x86)/microchip/xc32/v1.42/bin/bin/../../lib/gcc/pic32mx/4.8.3/../../../../pic32mx/lib/./proc/32MX795F512L\default_isr_vectors.o (__vector_dispatch_15)
c:/program files (x86)/microchip/xc32/v1.42/bin/bin/../../lib/gcc/pic32mx/4.8.3/../../../../pic32mx/lib\libpic32.a(vector16.o)
                              c:/program files (x86)/microchip/xc32/v1.42/bin/bin/../../lib/gcc/pic32mx/4.8.3/../../../../pic32mx/lib/./proc/32MX795F512L\default_isr_vectors.o (__vector_dispatch_16)
c:/program files (x86)/microchip/xc32/v1.42/bin/bin/../../lib/gcc/pic32mx/4.8.3/../../../../pic32mx/lib\libpic32.a(vector17.o)
                              c:/program files (x86)/microchip/xc32/v1.42/bin/bin/../../lib/gcc/pic32mx/4.8.3/../../../../pic32mx/lib/./proc/32MX795F512L\default_isr_vectors.o (__vector_dispatch_17)
c:/program files (x86)/microchip/xc32/v1.42/bin/bin/../../lib/gcc/pic32mx/4.8.3/../../../../pic32mx/lib\libpic32.a(vector18.o)
                              c:/program files (x86)/microchip/xc32/v1.42/bin/bin/../../lib/gcc/pic32mx/4.8.3/../../../../pic32mx/lib/./proc/32MX795F512L\default_isr_vectors.o (__vector_dispatch_18)
c:/program files (x86)/microchip/xc32/v1.42/bin/bin/../../lib/gcc/pic32mx/4.8.3/../../../../pic32mx/lib\libpic32.a(vector19.o)
                              c:/program files (x86)/microchip/xc32/v1.42/bin/bin/../../lib/gcc/pic32mx/4.8.3/../../../../pic32mx/lib/./proc/32MX795F512L\default_isr_vectors.o (__vector_dispatch_19)
c:/program files (x86)/microchip/xc32/v1.42/bin/bin/../../lib/gcc/pic32mx/4.8.3/../../../../pic32mx/lib\libpic32.a(vector20.o)
                              c:/program files (x86)/microchip/xc32/v1.42/bin/bin/../../lib/gcc/pic32mx/4.8.3/../../../../pic32mx/lib/./proc/32MX795F512L\default_isr_vectors.o (__vector_dispatch_20)
c:/program files (x86)/microchip/xc32/v1.42/bin/bin/../../lib/gcc/pic32mx/4.8.3/../../../../pic32mx/lib\libpic32.a(vector21.o)
                              c:/program files (x86)/microchip/xc32/v1.42/bin/bin/../../lib/gcc/pic32mx/4.8.3/../../../../pic32mx/lib/./proc/32MX795F512L\default_isr_vectors.o (__vector_dispatch_21)
c:/program files (x86)/microchip/xc32/v1.42/bin/bin/../../lib/gcc/pic32mx/4.8.3/../../../../pic32mx/lib\libpic32.a(vector22.o)
                              c:/program files (x86)/microchip/xc32/v1.42/bin/bin/../../lib/gcc/pic32mx/4.8.3/../../../../pic32mx/lib/./proc/32MX795F512L\default_isr_vectors.o (__vector_dispatch_22)
c:/program files (x86)/microchip/xc32/v1.42/bin/bin/../../lib/gcc/pic32mx/4.8.3/../../../../pic32mx/lib\libpic32.a(vector24.o)
                              c:/program files (x86)/microchip/xc32/v1.42/bin/bin/../../lib/gcc/pic32mx/4.8.3/../../../../pic32mx/lib/./proc/32MX795F512L\default_isr_vectors.o (__vector_dispatch_24)
c:/program files (x86)/microchip/xc32/v1.42/bin/bin/../../lib/gcc/pic32mx/4.8.3/../../../../pic32mx/lib\libpic32.a(vector25.o)
                              c:/program files (x86)/microchip/xc32/v1.42/bin/bin/../../lib/gcc/pic32mx/4.8.3/../../../../pic32mx/lib/./proc/32MX795F512L\default_isr_vectors.o (__vector_dispatch_25)
c:/program files (x86)/microchip/xc32/v1.42/bin/bin/../../lib/gcc/pic32mx/4.8.3/../../../../pic32mx/lib\libpic32.a(vector26.o)
                              c:/program files (x86)/microchip/xc32/v1.42/bin/bin/../../lib/gcc/pic32mx/4.8.3/../../../../pic32mx/lib/./proc/32MX795F512L\default_isr_vectors.o (__vector_dispatch_26)
c:/program files (x86)/microchip/xc32/v1.42/bin/bin/../../lib/gcc/pic32mx/4.8.3/../../../../pic32mx/lib\libpic32.a(vector27.o)
                              c:/program files (x86)/microchip/xc32/v1.42/bin/bin/../../lib/gcc/pic32mx/4.8.3/../../../../pic32mx/lib/./proc/32MX795F512L\default_isr_vectors.o (__vector_dispatch_27)
c:/program files (x86)/microchip/xc32/v1.42/bin/bin/../../lib/gcc/pic32mx/4.8.3/../../../../pic32mx/lib\libpic32.a(vector28.o)
                              c:/program files (x86)/microchip/xc32/v1.42/bin/bin/../../lib/gcc/pic32mx/4.8.3/../../../../pic32mx/lib/./proc/32MX795F512L\default_isr_vectors.o (__vector_dispatch_28)
c:/program files (x86)/microchip/xc32/v1.42/bin/bin/../../lib/gcc/pic32mx/4.8.3/../../../../pic32mx/lib\libpic32.a(vector29.o)
                              c:/program files (x86)/microchip/xc32/v1.42/bin/bin/../../lib/gcc/pic32mx/4.8.3/../../../../pic32mx/lib/./proc/32MX795F512L\default_isr_vectors.o (__vector_dispatch_29)
c:/program files (x86)/microchip/xc32/v1.42/bin/bin/../../lib/gcc/pic32mx/4.8.3/../../../../pic32mx/lib\libpic32.a(vector30.o)
                              c:/program files (x86)/microchip/xc32/v1.42/bin/bin/../../lib/gcc/pic32mx/4.8.3/../../../../pic32mx/lib/./proc/32MX795F512L\default_isr_vectors.o (__vector_dispatch_30)
c:/program files (x86)/microchip/xc32/v1.42/bin/bin/../../lib/gcc/pic32mx/4.8.3/../../../../pic32mx/lib\libpic32.a(vector33.o)
                              c:/program files (x86)/microchip/xc32/v1.42/bin/bin/../../lib/gcc/pic32mx/4.8.3/../../../../pic32mx/lib/./proc/32MX795F512L\default_isr_vectors.o (__vector_dispatch_33)
c:/program files (x86)/microchip/xc32/v1.42/bin/bin/../../lib/gcc/pic32mx/4.8.3/../../../../pic32mx/lib\libpic32.a(vector34.o)
                              c:/program files (x86)/microchip/xc32/v1.42/bin/bin/../../lib/gcc/pic32mx/4.8.3/../../../../pic32mx/lib/./proc/32MX795F512L\default_isr_vectors.o (__vector_dispatch_34)
c:/program files (x86)/microchip/xc32/v1.42/bin/bin/../../lib/gcc/pic32mx/4.8.3/../../../../pic32mx/lib\libpic32.a(vector35.o)
                              c:/program files (x86)/microchip/xc32/v1.42/bin/bin/../../lib/gcc/pic32mx/4.8.3/../../../../pic32mx/lib/./proc/32MX795F512L\default_isr_vectors.o (__vector_dispatch_35)
c:/program files (x86)/microchip/xc32/v1.42/bin/bin/../../lib/gcc/pic32mx/4.8.3/../../../../pic32mx/lib\libpic32.a(vector36.o)
                              c:/program files (x86)/microchip/xc32/v1.42/bin/bin/../../lib/gcc/pic32mx/4.8.3/../../../../pic32mx/lib/./proc/32MX795F512L\default_isr_vectors.o (__vector_dispatch_36)
c:/program files (x86)/microchip/xc32/v1.42/bin/bin/../../lib/gcc/pic32mx/4.8.3/../../../../pic32mx/lib\libpic32.a(vector37.o)
                              c:/program files (x86)/microchip/xc32/v1.42/bin/bin/../../lib/gcc/pic32mx/4.8.3/../../../../pic32mx/lib/./proc/32MX795F512L\default_isr_vectors.o (__vector_dispatch_37)
c:/program files (x86)/microchip/xc32/v1.42/bin/bin/../../lib/gcc/pic32mx/4.8.3/../../../../pic32mx/lib\libpic32.a(vector38.o)
                              c:/program files (x86)/microchip/xc32/v1.42/bin/bin/../../lib/gcc/pic32mx/4.8.3/../../../../pic32mx/lib/./proc/32MX795F512L\default_isr_vectors.o (__vector_dispatch_38)
c:/program files (x86)/microchip/xc32/v1.42/bin/bin/../../lib/gcc/pic32mx/4.8.3/../../../../pic32mx/lib\libpic32.a(vector39.o)
                              c:/program files (x86)/microchip/xc32/v1.42/bin/bin/../../lib/gcc/pic32mx/4.8.3/../../../../pic32mx/lib/./proc/32MX795F512L\default_isr_vectors.o (__vector_dispatch_39)
c:/program files (x86)/microchip/xc32/v1.42/bin/bin/../../lib/gcc/pic32mx/4.8.3/../../../../pic32mx/lib\libpic32.a(vector40.o)
                              c:/program files (x86)/microchip/xc32/v1.42/bin/bin/../../lib/gcc/pic32mx/4.8.3/../../../../pic32mx/lib/./proc/32MX795F512L\default_isr_vectors.o (__vector_dispatch_40)
c:/program files (x86)/microchip/xc32/v1.42/bin/bin/../../lib/gcc/pic32mx/4.8.3/../../../../pic32mx/lib\libpic32.a(vector41.o)
                              c:/program files (x86)/microchip/xc32/v1.42/bin/bin/../../lib/gcc/pic32mx/4.8.3/../../../../pic32mx/lib/./proc/32MX795F512L\default_isr_vectors.o (__vector_dispatch_41)
c:/program files (x86)/microchip/xc32/v1.42/bin/bin/../../lib/gcc/pic32mx/4.8.3/../../../../pic32mx/lib\libpic32.a(vector42.o)
                              c:/program files (x86)/microchip/xc32/v1.42/bin/bin/../../lib/gcc/pic32mx/4.8.3/../../../../pic32mx/lib/./proc/32MX795F512L\default_isr_vectors.o (__vector_dispatch_42)
c:/program files (x86)/microchip/xc32/v1.42/bin/bin/../../lib/gcc/pic32mx/4.8.3/../../../../pic32mx/lib\libpic32.a(vector43.o)
                              c:/program files (x86)/microchip/xc32/v1.42/bin/bin/../../lib/gcc/pic32mx/4.8.3/../../../../pic32mx/lib/./proc/32MX795F512L\default_isr_vectors.o (__vector_dispatch_43)
c:/program files (x86)/microchip/xc32/v1.42/bin/bin/../../lib/gcc/pic32mx/4.8.3/../../../../pic32mx/lib\libpic32.a(vector44.o)
                              c:/program files (x86)/microchip/xc32/v1.42/bin/bin/../../lib/gcc/pic32mx/4.8.3/../../../../pic32mx/lib/./proc/32MX795F512L\default_isr_vectors.o (__vector_dispatch_44)
c:/program files (x86)/microchip/xc32/v1.42/bin/bin/../../lib/gcc/pic32mx/4.8.3/../../../../pic32mx/lib\libpic32.a(vector45.o)
                              c:/program files (x86)/microchip/xc32/v1.42/bin/bin/../../lib/gcc/pic32mx/4.8.3/../../../../pic32mx/lib/./proc/32MX795F512L\default_isr_vectors.o (__vector_dispatch_45)
c:/program files (x86)/microchip/xc32/v1.42/bin/bin/../../lib/gcc/pic32mx/4.8.3/../../../../pic32mx/lib\libpic32.a(vector46.o)
                              c:/program files (x86)/microchip/xc32/v1.42/bin/bin/../../lib/gcc/pic32mx/4.8.3/../../../../pic32mx/lib/./proc/32MX795F512L\default_isr_vectors.o (__vector_dispatch_46)
c:/program files (x86)/microchip/xc32/v1.42/bin/bin/../../lib/gcc/pic32mx/4.8.3/../../../../pic32mx/lib\libpic32.a(vector47.o)
                              c:/program files (x86)/microchip/xc32/v1.42/bin/bin/../../lib/gcc/pic32mx/4.8.3/../../../../pic32mx/lib/./proc/32MX795F512L\default_isr_vectors.o (__vector_dispatch_47)
c:/program files (x86)/microchip/xc32/v1.42/bin/bin/../../lib/gcc/pic32mx/4.8.3/../../../../pic32mx/lib\libpic32.a(vector48.o)
                              c:/program files (x86)/microchip/xc32/v1.42/bin/bin/../../lib/gcc/pic32mx/4.8.3/../../../../pic32mx/lib/./proc/32MX795F512L\default_isr_vectors.o (__vector_dispatch_48)
c:/program files (x86)/microchip/xc32/v1.42/bin/bin/../../lib/gcc/pic32mx/4.8.3/../../../../pic32mx/lib\libpic32.a(vector49.o)
                              c:/program files (x86)/microchip/xc32/v1.42/bin/bin/../../lib/gcc/pic32mx/4.8.3/../../../../pic32mx/lib/./proc/32MX795F512L\default_isr_vectors.o (__vector_dispatch_49)
c:/program files (x86)/microchip/xc32/v1.42/bin/bin/../../lib/gcc/pic32mx/4.8.3/../../../../pic32mx/lib\libpic32.a(vector50.o)
                              c:/program files (x86)/microchip/xc32/v1.42/bin/bin/../../lib/gcc/pic32mx/4.8.3/../../../../pic32mx/lib/./proc/32MX795F512L\default_isr_vectors.o (__vector_dispatch_50)
c:/program files (x86)/microchip/xc32/v1.42/bin/bin/../../lib/gcc/pic32mx/4.8.3/../../../../pic32mx/lib\libpic32.a(vector51.o)
                              c:/program files (x86)/microchip/xc32/v1.42/bin/bin/../../lib/gcc/pic32mx/4.8.3/../../../../pic32mx/lib/./proc/32MX795F512L\default_isr_vectors.o (__vector_dispatch_51)
c:/program files (x86)/microchip/xc32/v1.42/bin/bin/../../lib/gcc/pic32mx/4.8.3/../../../../pic32mx/lib\libpic32.a(defaultinterrupt.o)
                              c:/program files (x86)/microchip/xc32/v1.42/bin/bin/../../lib/gcc/pic32mx/4.8.3/../../../../pic32mx/lib\libpic32.a(vector0.o) (_DefaultInterrupt)
c:/program files (x86)/microchip/xc32/v1.42/bin/bin/../../lib/gcc/pic32mx/4.8.3/../../../../pic32mx/lib\libm.a(fp32mul.o)
                              build/e16_encx24j600_spiflash/production/_ext/1699919941/dh.o (fpmul)
c:/program files (x86)/microchip/xc32/v1.42/bin/bin/../../lib/gcc/pic32mx/4.8.3/../../../../pic32mx/lib\libm.a(fp32subadd.o)
                              build/e16_encx24j600_spiflash/production/_ext/1699919941/dh.o (fpsub)
c:/program files (x86)/microchip/xc32/v1.42/bin/bin/../../lib/gcc/pic32mx/4.8.3/../../../../pic32mx/lib\libm.a(fptoul.o)
                              build/e16_encx24j600_spiflash/production/_ext/1699919941/dh.o (fptoui)
c:/program files (x86)/microchip/xc32/v1.42/bin/bin/../../lib/gcc/pic32mx/4.8.3/../../../../pic32mx/lib\libm.a(sitofp.o)
                              c:/program files (x86)/microchip/xc32/v1.42/bin/bin/../../lib/gcc/pic32mx/4.8.3\libgcc.a(floatunsisf.o) (sitofp)
c:/program files (x86)/microchip/xc32/v1.42/bin/bin/../../lib/gcc/pic32mx/4.8.3/../../../../pic32mx/lib\libm.a(w_logf.o)
                              build/e16_encx24j600_spiflash/production/_ext/1699919941/dh.o (logf)
c:/program files (x86)/microchip/xc32/v1.42/bin/bin/../../lib/gcc/pic32mx/4.8.3/../../../../pic32mx/lib\libm.a(w_powf.o)
                              build/e16_encx24j600_spiflash/production/_ext/1699919941/dh.o (powf)
c:/program files (x86)/microchip/xc32/v1.42/bin/bin/../../lib/gcc/pic32mx/4.8.3/../../../../pic32mx/lib\libm.a(dptofp.o)
                              c:/program files (x86)/microchip/xc32/v1.42/bin/bin/../../lib/gcc/pic32mx/4.8.3/../../../../pic32mx/lib\libm.a(w_logf.o) (dptofp)
c:/program files (x86)/microchip/xc32/v1.42/bin/bin/../../lib/gcc/pic32mx/4.8.3/../../../../pic32mx/lib\libm.a(fpcmp.o)
                              c:/program files (x86)/microchip/xc32/v1.42/bin/bin/../../lib/gcc/pic32mx/4.8.3/../../../../pic32mx/lib\libm.a(w_logf.o) (fpcmp)
c:/program files (x86)/microchip/xc32/v1.42/bin/bin/../../lib/gcc/pic32mx/4.8.3/../../../../pic32mx/lib\libm.a(fplog.o)
                              c:/program files (x86)/microchip/xc32/v1.42/bin/bin/../../lib/gcc/pic32mx/4.8.3/../../../../pic32mx/lib\libm.a(w_logf.o) (__mchp_logf)
c:/program files (x86)/microchip/xc32/v1.42/bin/bin/../../lib/gcc/pic32mx/4.8.3/../../../../pic32mx/lib\libm.a(fpmodf.o)
                              c:/program files (x86)/microchip/xc32/v1.42/bin/bin/../../lib/gcc/pic32mx/4.8.3/../../../../pic32mx/lib\libm.a(w_powf.o) (modff)
c:/program files (x86)/microchip/xc32/v1.42/bin/bin/../../lib/gcc/pic32mx/4.8.3/../../../../pic32mx/lib\libm.a(fppow32.o)
                              c:/program files (x86)/microchip/xc32/v1.42/bin/bin/../../lib/gcc/pic32mx/4.8.3/../../../../pic32mx/lib\libm.a(w_powf.o) (__mchp_powf)
c:/program files (x86)/microchip/xc32/v1.42/bin/bin/../../lib/gcc/pic32mx/4.8.3/../../../../pic32mx/lib\libm.a(fptodp.o)
                              c:/program files (x86)/microchip/xc32/v1.42/bin/bin/../../lib/gcc/pic32mx/4.8.3/../../../../pic32mx/lib\libm.a(w_logf.o) (fptodp)
c:/program files (x86)/microchip/xc32/v1.42/bin/bin/../../lib/gcc/pic32mx/4.8.3/../../../../pic32mx/lib\libm.a(s_lib_ver.o)
                              c:/program files (x86)/microchip/xc32/v1.42/bin/bin/../../lib/gcc/pic32mx/4.8.3/../../../../pic32mx/lib\libm.a(w_logf.o) (math_errhandling)
c:/program files (x86)/microchip/xc32/v1.42/bin/bin/../../lib/gcc/pic32mx/4.8.3/../../../../pic32mx/lib\libm.a(fpexlog.o)
                              c:/program files (x86)/microchip/xc32/v1.42/bin/bin/../../lib/gcc/pic32mx/4.8.3/../../../../pic32mx/lib\libm.a(fplog.o) (fpexlog)
c:/program files (x86)/microchip/xc32/v1.42/bin/bin/../../lib/gcc/pic32mx/4.8.3/../../../../pic32mx/lib\libm.a(fpexp32.o)
                              c:/program files (x86)/microchip/xc32/v1.42/bin/bin/../../lib/gcc/pic32mx/4.8.3/../../../../pic32mx/lib\libm.a(fppow32.o) (fpexexp)
c:/program files (x86)/microchip/xc32/v1.42/bin/bin/../../lib/gcc/pic32mx/4.8.3/../../../../pic32mx/lib\libc.a(atoi.o)
                              build/e16_encx24j600_spiflash/production/_ext/1164207549/smtp.o (atoi)
c:/program files (x86)/microchip/xc32/v1.42/bin/bin/../../lib/gcc/pic32mx/4.8.3/../../../../pic32mx/lib\libc.a(atol.o)
                              build/e16_encx24j600_spiflash/production/_ext/1360937237/custom_http_app.o (atol)
c:/program files (x86)/microchip/xc32/v1.42/bin/bin/../../lib/gcc/pic32mx/4.8.3/../../../../pic32mx/lib\libc.a(calloc.o)
                              build/e16_encx24j600_spiflash/production/_ext/689678155/system_init.o (calloc)
c:/program files (x86)/microchip/xc32/v1.42/bin/bin/../../lib/gcc/pic32mx/4.8.3/../../../../pic32mx/lib\libc.a(ctime.o)
                              build/e16_encx24j600_spiflash/production/_ext/29024758/asn.o (gmtime)
c:/program files (x86)/microchip/xc32/v1.42/bin/bin/../../lib/gcc/pic32mx/4.8.3/../../../../pic32mx/lib\libc.a(ctype.o)
                              build/e16_encx24j600_spiflash/production/_ext/1164207549/dhcp.o (_ctype)
c:/program files (x86)/microchip/xc32/v1.42/bin/bin/../../lib/gcc/pic32mx/4.8.3/../../../../pic32mx/lib\libc.a(ctypef.o)
                              build/e16_encx24j600_spiflash/production/_ext/29024758/asn.o (tolower)
c:/program files (x86)/microchip/xc32/v1.42/bin/bin/../../lib/gcc/pic32mx/4.8.3/../../../../pic32mx/lib\libc.a(errno.o)
                              c:/program files (x86)/microchip/xc32/v1.42/bin/bin/../../lib/gcc/pic32mx/4.8.3/../../../../pic32mx/lib\libm.a(w_logf.o) (errno)
c:/program files (x86)/microchip/xc32/v1.42/bin/bin/../../lib/gcc/pic32mx/4.8.3/../../../../pic32mx/lib\libc.a(malloc.o)
                              build/e16_encx24j600_spiflash/production/_ext/689678155/system_init.o (malloc)
c:/program files (x86)/microchip/xc32/v1.42/bin/bin/../../lib/gcc/pic32mx/4.8.3/../../../../pic32mx/lib\libc.a(memmove.o)
                              build/e16_encx24j600_spiflash/production/_ext/29024758/asn.o (memmove)
c:/program files (x86)/microchip/xc32/v1.42/bin/bin/../../lib/gcc/pic32mx/4.8.3/../../../../pic32mx/lib\libc.a(rand.o)
                              build/e16_encx24j600_spiflash/production/_ext/29024758/random.o (srand)
c:/program files (x86)/microchip/xc32/v1.42/bin/bin/../../lib/gcc/pic32mx/4.8.3/../../../../pic32mx/lib\libc.a(strcat.o)
                              build/e16_encx24j600_spiflash/production/_ext/1750042194/sys_fs.o (strcat)
c:/program files (x86)/microchip/xc32/v1.42/bin/bin/../../lib/gcc/pic32mx/4.8.3/../../../../pic32mx/lib\libc.a(strchr.o)
                              build/e16_encx24j600_spiflash/production/_ext/1164207549/smtp.o (strchr)
c:/program files (x86)/microchip/xc32/v1.42/bin/bin/../../lib/gcc/pic32mx/4.8.3/../../../../pic32mx/lib\libc.a(strncat.o)
                              build/e16_encx24j600_spiflash/production/_ext/29024758/asn.o (strncat)
c:/program files (x86)/microchip/xc32/v1.42/bin/bin/../../lib/gcc/pic32mx/4.8.3/../../../../pic32mx/lib\libc.a(strncmp.o)
                              build/e16_encx24j600_spiflash/production/_ext/29024758/ecc.o (strncmp)
c:/program files (x86)/microchip/xc32/v1.42/bin/bin/../../lib/gcc/pic32mx/4.8.3/../../../../pic32mx/lib\libc.a(strncpy.o)
                              build/e16_encx24j600_spiflash/production/_ext/1360937237/custom_http_app.o (strncpy)
c:/program files (x86)/microchip/xc32/v1.42/bin/bin/../../lib/gcc/pic32mx/4.8.3/../../../../pic32mx/lib\libc.a(strstr.o)
                              build/e16_encx24j600_spiflash/production/_ext/1164207549/smtp.o (strstr)
c:/program files (x86)/microchip/xc32/v1.42/bin/bin/../../lib/gcc/pic32mx/4.8.3/../../../../pic32mx/lib\libc.a(strtol.o)
                              build/e16_encx24j600_spiflash/production/_ext/1164207549/tcpip_helpers.o (strtol)
c:/program files (x86)/microchip/xc32/v1.42/bin/bin/../../lib/gcc/pic32mx/4.8.3/../../../../pic32mx/lib\libc.a(sprintf_cdnopuxX.eo)
                              build/e16_encx24j600_spiflash/production/_ext/1164207549/tcpip_helpers.o (_sprintf_cdnopuxX)
c:/program files (x86)/microchip/xc32/v1.42/bin/bin/../../lib/gcc/pic32mx/4.8.3/../../../../pic32mx/lib\libc.a(vsnprintf.o)
                              build/e16_encx24j600_spiflash/production/_ext/1891376032/sys_command.o (vsnprintf)
c:/program files (x86)/microchip/xc32/v1.42/bin/bin/../../lib/gcc/pic32mx/4.8.3/../../../../pic32mx/lib\libc.a(doprnt_cdnopuxX.eo)
                              c:/program files (x86)/microchip/xc32/v1.42/bin/bin/../../lib/gcc/pic32mx/4.8.3/../../../../pic32mx/lib\libc.a(sprintf_cdnopuxX.eo) (_vfprintf_cdnopuxX)
c:/program files (x86)/microchip/xc32/v1.42/bin/bin/../../lib/gcc/pic32mx/4.8.3/../../../../pic32mx/lib\libc.a(doprnt.o)
                              c:/program files (x86)/microchip/xc32/v1.42/bin/bin/../../lib/gcc/pic32mx/4.8.3/../../../../pic32mx/lib\libc.a(vsnprintf.o) (vfprintf)
c:/program files (x86)/microchip/xc32/v1.42/bin/bin/../../lib/gcc/pic32mx/4.8.3/../../../../pic32mx/lib\libc.a(_fputc_simple.o)
                              c:/program files (x86)/microchip/xc32/v1.42/bin/bin/../../lib/gcc/pic32mx/4.8.3/../../../../pic32mx/lib\libc.a(doprnt_cdnopuxX.eo) (fputc)
c:/program files (x86)/microchip/xc32/v1.42/bin/bin/../../lib/gcc/pic32mx/4.8.3/../../../../pic32mx/lib\libc.a(powersf.o)
                              c:/program files (x86)/microchip/xc32/v1.42/bin/bin/../../lib/gcc/pic32mx/4.8.3/../../../../pic32mx/lib\libc.a(doprnt.o) (_npowers_f)
c:/program files (x86)/microchip/xc32/v1.42/bin/bin/../../lib/gcc/pic32mx/4.8.3/../../../../pic32mx/lib\libc.a(_iob.o)
                              c:/program files (x86)/microchip/xc32/v1.42/bin/bin/../../lib/gcc/pic32mx/4.8.3/../../../../pic32mx/lib\libc.a(_fputc_simple.o) (_outdone)
c:/program files (x86)/microchip/xc32/v1.42/bin/bin/../../lib/gcc/pic32mx/4.8.3/../../../../pic32mx/lib\libc.a(_flsbuf_simple.o)
                              c:/program files (x86)/microchip/xc32/v1.42/bin/bin/../../lib/gcc/pic32mx/4.8.3/../../../../pic32mx/lib\libc.a(_fputc_simple.o) (_flsbuf)
c:/program files (x86)/microchip/xc32/v1.42/bin/bin/../../lib/gcc/pic32mx/4.8.3/../../../../pic32mx/lib\libpic32.a(sbrk.o)
                              c:/program files (x86)/microchip/xc32/v1.42/bin/bin/../../lib/gcc/pic32mx/4.8.3/../../../../pic32mx/lib\libc.a(malloc.o) (sbrk)
c:/program files (x86)/microchip/xc32/v1.42/bin/bin/../../lib/gcc/pic32mx/4.8.3/../../../../pic32mx/lib\libpic32.a(write.o)
                              c:/program files (x86)/microchip/xc32/v1.42/bin/bin/../../lib/gcc/pic32mx/4.8.3/../../../../pic32mx/lib\libc.a(_fputc_simple.o) (write)
c:/program files (x86)/microchip/xc32/v1.42/bin/bin/../../lib/gcc/pic32mx/4.8.3/../../../../pic32mx/lib\libpic32.a(isinf.o)
                              c:/program files (x86)/microchip/xc32/v1.42/bin/bin/../../lib/gcc/pic32mx/4.8.3/../../../../pic32mx/lib\libm.a(w_logf.o) (isinfl)
c:/program files (x86)/microchip/xc32/v1.42/bin/bin/../../lib/gcc/pic32mx/4.8.3/../../../../pic32mx/lib\libpic32.a(_mon_putc.o)
                              c:/program files (x86)/microchip/xc32/v1.42/bin/bin/../../lib/gcc/pic32mx/4.8.3/../../../../pic32mx/lib\libpic32.a(write.o) (_mon_putc)
c:/program files (x86)/microchip/xc32/v1.42/bin/bin/../../lib/gcc/pic32mx/4.8.3/../../../../pic32mx/lib\libpic32.a(xc32_uart.o)
                              c:/program files (x86)/microchip/xc32/v1.42/bin/bin/../../lib/gcc/pic32mx/4.8.3/../../../../pic32mx/lib\libpic32.a(_mon_putc.o) (__XC_UART)
c:/program files (x86)/microchip/xc32/v1.42/bin/bin/../../lib/gcc/pic32mx/4.8.3/../../../../pic32mx/lib\libm.a(dpcmp.o)
                              c:/program files (x86)/microchip/xc32/v1.42/bin/bin/../../lib/gcc/pic32mx/4.8.3/../../../../pic32mx/lib\libpic32.a(isinf.o) (dpcmp)
c:/program files (x86)/microchip/xc32/v1.42/bin/bin/../../lib/gcc/pic32mx/4.8.3/../../../../pic32mx/lib\libm.a(fp32div.o)
                              c:/program files (x86)/microchip/xc32/v1.42/bin/bin/../../lib/gcc/pic32mx/4.8.3/../../../../pic32mx/lib\libc.a(doprnt.o) (fpdiv)
c:/program files (x86)/microchip/xc32/v1.42/bin/bin/../../lib/gcc/pic32mx/4.8.3/../../../../pic32mx/lib\libm.a(fpfrexp.o)
                              c:/program files (x86)/microchip/xc32/v1.42/bin/bin/../../lib/gcc/pic32mx/4.8.3/../../../../pic32mx/lib\libc.a(doprnt.o) (frexpf)
c:/program files (x86)/microchip/xc32/v1.42/bin/bin/../../lib/gcc/pic32mx/4.8.3/../../../../pic32mx/lib\libe.a(_floatdisf.o)
                              c:/program files (x86)/microchip/xc32/v1.42/bin/bin/../../lib/gcc/pic32mx/4.8.3/../../../../pic32mx/lib\libc.a(doprnt.o) (__floatdisf)
c:/program files (x86)/microchip/xc32/v1.42/bin/bin/../../lib/gcc/pic32mx/4.8.3/../../../../pic32mx/lib\libe.a(_unorddf2.o)
                              c:/program files (x86)/microchip/xc32/v1.42/bin/bin/../../lib/gcc/pic32mx/4.8.3/../../../../pic32mx/lib\libpic32.a(isinf.o) (__unorddf2)
c:/program files (x86)/microchip/xc32/v1.42/bin/bin/../../lib/gcc/pic32mx/4.8.3\libgcc.a(_umoddi3.o)
                              c:/program files (x86)/microchip/xc32/v1.42/bin/bin/../../lib/gcc/pic32mx/4.8.3/../../../../pic32mx/lib\libc.a(doprnt_cdnopuxX.eo) (__umoddi3)

Allocating common symbols
Common symbol       size              file

gSYSFSObj           0x8               build/e16_encx24j600_spiflash/production/_ext/1750042194/sys_fs.o
mutexFileSystemObj  0x1               build/e16_encx24j600_spiflash/production/_ext/1750042194/sys_fs.o
gDrvSPIFlashMediaGeometry
                    0x4               build/e16_encx24j600_spiflash/production/_ext/1112873152/drv_sst25vf016b.o
net_pres_wolfSSLInfoDataGramServer0
                    0xc               build/e16_encx24j600_spiflash/production/_ext/971131287/net_pres_enc_glue.o
net_pres_wolfSSLInfoStreamServer0
                    0xc               build/e16_encx24j600_spiflash/production/_ext/971131287/net_pres_enc_glue.o
sysDebugInstance    0x10              build/e16_encx24j600_spiflash/production/_ext/2137108136/sys_debug.o
appData             0x8               build/e16_encx24j600_spiflash/production/_ext/1360937237/app.o
DDNSClient          0x20              build/e16_encx24j600_spiflash/production/_ext/1164207549/ddns.o
gDrvUSARTBufferObj  0x20d0            build/e16_encx24j600_spiflash/production/_ext/821589181/drv_usart_buffer_queue.o
sysObj              0x30              build/e16_encx24j600_spiflash/production/_ext/689678155/system_init.o
gblErrLvl           0x4               build/e16_encx24j600_spiflash/production/_ext/2137108136/sys_debug.o
gDrvUSARTCommonDataObj
                    0x3               build/e16_encx24j600_spiflash/production/_ext/821589181/drv_usart.o
gSYSFSFileObj       0x1a90            build/e16_encx24j600_spiflash/production/_ext/1750042194/sys_fs.o
gSYSFSDirObj        0x190             build/e16_encx24j600_spiflash/production/_ext/1750042194/sys_fs.o
gSYSFSMountPoint    0x14              build/e16_encx24j600_spiflash/production/_ext/1750042194/sys_fs.o
gDrvUSARTClientObj  0x48              build/e16_encx24j600_spiflash/production/_ext/821589181/drv_usart.o
gDrvSST25VF016BClientObj
                    0x18              build/e16_encx24j600_spiflash/production/_ext/1112873152/drv_sst25vf016b.o
sNetPresData        0x204             build/e16_encx24j600_spiflash/production/_ext/871719959/net_pres.o
gDrvSST25VF016BObj  0x70              build/e16_encx24j600_spiflash/production/_ext/1112873152/drv_sst25vf016b.o
gDrvUSARTObj        0x60              build/e16_encx24j600_spiflash/production/_ext/821589181/drv_usart.o
mpfsObject          0x10              build/e16_encx24j600_spiflash/production/_ext/614935175/mpfs.o
gDrvSST25VF016BCommonDataObj
                    0x3               build/e16_encx24j600_spiflash/production/_ext/1112873152/drv_sst25vf016b.o
gDrvSST25VF016BBufferObj
                    0x2c0             build/e16_encx24j600_spiflash/production/_ext/1112873152/drv_sst25vf016b.o
sNetPresSockets     0x168             build/e16_encx24j600_spiflash/production/_ext/871719959/net_pres.o
net_pres_wolfSSLInfoDataGramClient0
                    0xc               build/e16_encx24j600_spiflash/production/_ext/971131287/net_pres_enc_glue.o
sysDevconObj        0x8               build/e16_encx24j600_spiflash/production/_ext/482662494/sys_devcon.o
gSYSFSMediaObject   0x2c              build/e16_encx24j600_spiflash/production/_ext/1750042194/sys_fs_media_manager.o
sysRandCtx          0x108             build/e16_encx24j600_spiflash/production/_ext/470001640/sys_random.o
gSYSFSCurrentMountPoint
                    0x8               build/e16_encx24j600_spiflash/production/_ext/1750042194/sys_fs.o
errorValue          0x4               build/e16_encx24j600_spiflash/production/_ext/1750042194/sys_fs.o
gSYSFSVolumeObject  0x1c              build/e16_encx24j600_spiflash/production/_ext/1750042194/sys_fs_media_manager.o
initTime            0x4               build/e16_encx24j600_spiflash/production/_ext/1164207549/dhcps.o
gSPIFlashGeometryTable
                    0x4               build/e16_encx24j600_spiflash/production/_ext/1112873152/drv_sst25vf016b.o
VolToPart           0x2               build/e16_encx24j600_spiflash/production/_ext/1750042194/sys_fs_media_manager.o
mutexDirObj         0x1               build/e16_encx24j600_spiflash/production/_ext/1750042194/sys_fs.o
net_pres_wolfSSLInfoStreamClient0
                    0xc               build/e16_encx24j600_spiflash/production/_ext/971131287/net_pres_enc_glue.o

Microchip PIC32 Memory-Usage Report

kseg0 Program-Memory Usage
section                    address  length [bytes]      (dec)  Description
-------                 ----------  -------------------------  -----------
.rodata                 0x9d000000         0x2828       10280  Read-only const 
.text.vfprintf          0x9d002828         0x1c0c        7180   
.text.TCPIP_HTTP_Proces 0x9d004434         0x1a68        6760   
.text.DRV_SPI_SetupHard 0x9d005e9c         0x1778        6008   
.rodata                 0x9d007614         0x1710        5904  Read-only const 
.text.TCPIP_TCP_Task    0x9d008d24         0x14bc        5308   
.text.ProcessReply      0x9d00a1e0         0x1348        4936   
.text.ParseCertRelative 0x9d00b528         0x1328        4904   
.text.SendServerKeyExch 0x9d00c850         0x1200        4608   
.text.TCPIP_SMTP_Client 0x9d00da50         0x117c        4476   
.text.TCPIP_HTTP_PostEx 0x9d00ebcc         0x1148        4424   
.text._DRV_USART_Hardwa 0x9d00fd14         0x1138        4408   
.text.TCPIP_DDNS_Task   0x9d010e4c         0x10c8        4296   
.text.Transform         0x9d011f14         0x1018        4120   
.text.DoHandShakeMsgTyp 0x9d012f2c          0xfbc        4028   
.rodata                 0x9d013ee8          0xf6c        3948  Read-only const 
.text._DHCPS_ProcessGet 0x9d014e54          0xf18        3864   
.rodata                 0x9d015d6c         0x1c68        7272  Read-only const 
.text.DoServerKeyExchan 0x9d0179d4          0xbe8        3048   
.text.CipherRequires    0x9d0185bc          0xbc8        3016   
.text.DoClientKeyExchan 0x9d019184          0xbb8        3000   
.text._vfprintf_cdnopux 0x9d019d3c          0xad4        2772   
.rodata                 0x9d01a810          0xabc        2748  Read-only const 
.text.SendClientKeyExch 0x9d01b2cc          0xab8        2744   
.text.Transform         0x9d01bd84          0xa88        2696   
.text.SetCipherSpecs    0x9d01c80c          0xa44        2628   
.text.DoClientHello     0x9d01d250          0x940        2368   
.text.fp_invmod         0x9d01db90          0x8fc        2300   
.dinit                  0x9d01e48c          0x8f0        2288   
.text.TCPIP_STACK_Task  0x9d01ed7c          0x8e4        2276   
.text._Command_DNS_Serv 0x9d01f660          0x8a0        2208   
.rodata                 0x9d01ff00          0x898        2200  Read-only const 
.text.TCPIP_DHCP_Task   0x9d020798          0x874        2164   
.text.ecc_projective_ad 0x9d02100c          0x848        2120   
.text._TcpSend          0x9d021854          0x7f4        2036   
.text.OidFromId         0x9d022048          0x7d0        2000   
.text.wc_AesCbcDecrypt  0x9d022818          0x7b8        1976   
.text.fp_div            0x9d022fd0          0x768        1896   
.text.wc_AesSetKey      0x9d023738          0x768        1896   
.text.wc_AesCbcEncrypt  0x9d023ea0          0x768        1896   
.text.SYS_FS_MEDIA_MANA 0x9d024608          0x758        1880   
.text.ProcessBuffer     0x9d024d60          0x6b4        1716   
.text.DRV_SPI_ISRMaster 0x9d025414          0x6a4        1700   
.text.DoCertificate     0x9d025ab8          0x6a0        1696   
.text.InitSuites        0x9d026158          0x668        1640   
.text.GetName           0x9d0267c0          0x664        1636   
.text.DRV_ENCX24J600_Co 0x9d026e24          0x61c        1564   
.text.SendCertificate   0x9d027440          0x5fc        1532   
.text.wc_ecc_mulmod     0x9d027a3c          0x5f8        1528   
.text.ecc_projective_db 0x9d028034          0x550        1360   
.text.DRV_SPI_ISRMaster 0x9d028584          0x548        1352   
.text._DRV_USART_Buffer 0x9d028acc          0x530        1328   
.text.SetKeysSide       0x9d028ffc          0x520        1312   
.text.NET_PRES_Initiali 0x9d02951c          0x514        1300   
.text.SendClientHello   0x9d029a30          0x514        1300   
.rodata                 0x9d029f44          0x4f0        1264  Read-only const 
.text.SYS_CMD_Tasks     0x9d02a434          0x4f0        1264   
.text.TCPIP_TCP_FifoSiz 0x9d02a924          0x4cc        1228   
.text.TCPIP_SNTP_Task   0x9d02adf0          0x4c8        1224   
.text.DRV_SPI_Open      0x9d02b2b8          0x4b4        1204   
.text.DRV_USART_BaudSet 0x9d02b76c          0x4b0        1200   
.rodata                 0x9d02bc1c          0x4b0        1200  Read-only const 
.text.TCPIP_DHCPS_Initi 0x9d02c0cc          0x4a8        1192   
.rodata                 0x9d02c574          0x4a4        1188  Read-only const 
.text.TCPIP_STACK_Initi 0x9d02ca18          0x490        1168   
.rodata                 0x9d02cea8          0x484        1156  Read-only const 
.text.Transform         0x9d02d32c          0x470        1136   
.text.TCPIP_ARP_Task    0x9d02d79c          0x468        1128   
.text.SendCertificateVe 0x9d02dc04          0x468        1128   
.text                   0x9d02e06c          0x8bc        2236  App's exec code 
.text.TCPIP_HTTP_Print  0x9d02e928          0x454        1108   
.text.wc_ecc_verify_has 0x9d02ed7c          0x454        1108   
.text._CommandArp       0x9d02f1d0          0x434        1076   
.text.Hash_DRBG_Generat 0x9d02f604          0x42c        1068   
.rodata                 0x9d02fa30          0x428        1064  Read-only const 
.text.wolfSSL_connect   0x9d02fe58          0x424        1060   
.text.libm              0x9d03027c          0x408        1032   
.text.wc_RabbitProcess  0x9d030684          0x400        1024   
.text.DRV_USART_Read    0x9d030a84          0x3f8        1016   
.text.TCPIP_Helper_Stri 0x9d030e7c          0x3f0        1008   
.text.DRV_USART_BufferA 0x9d03126c          0x3e8        1000   
.text._DRV_SST25VF016B_ 0x9d031654          0x3e4         996   
.text.SetSSL_CTX        0x9d031a38          0x3e4         996   
.text.AddSession        0x9d031e1c          0x3e0         992   
.text.SendServerHello   0x9d0321fc          0x3d8         984   
.text.wolfSSL_accept    0x9d0325d4          0x3cc         972   
.rodata                 0x9d0329a0          0x3c0         960  Read-only const 
.text._DNS_Send_Query   0x9d032d60          0x3c0         960   
.text.TCPIP_TCP_ArrayFi 0x9d033120          0x3a0         928   
.text.DRV_ENCX24J600_Rx 0x9d0334c0          0x390         912   
.text.Console_UART_Task 0x9d033850          0x390         912   
.text.PemToDer          0x9d033be0          0x390         912   
.text._CommandDhcpOptio 0x9d033f70          0x388         904   
.text.DRV_ENCX24J600_Tx 0x9d0342f8          0x380         896   
.text.TCPIP_STACK_Bring 0x9d034678          0x380         896   
.text.TCPIP_DNS_ClientI 0x9d0349f8          0x37c         892   
.text.SYS_FS_MEDIA_MANA 0x9d034d74          0x370         880   
.text.SPIFlashWriteArra 0x9d0350e4          0x36c         876   
.text.TCPIP_ARP_Initial 0x9d035450          0x36c         876   
.text._Command_NetInfo  0x9d0357bc          0x36c         876   
.text._TCP_Open         0x9d035b28          0x364         868   
.text.DRV_USART_Initial 0x9d035e8c          0x360         864   
.text.NET_PRES_SocketOp 0x9d0361ec          0x35c         860   
.text.DecodeToKey       0x9d036548          0x358         856   
.text.TCPIP_ANNOUNCE_Ta 0x9d0368a0          0x344         836   
.text.TCPIP_NBNS_Task   0x9d036be4          0x340         832   
.text.DRV_SPI_MasterEBM 0x9d036f24          0x334         820   
.text.wc_RabbitSetKey   0x9d037258          0x314         788   
.text.ParseCmdBuffer    0x9d03756c          0x30c         780   
.text.TCPIP_COMMAND_Tas 0x9d037878          0x30c         780   
.text.TCPIP_UDP_Task    0x9d037b84          0x304         772   
.text.wc_EccPrivateKeyD 0x9d037e88          0x300         768   
.text.TCPIP_IPV4_Packet 0x9d038188          0x300         768   
.text._DHCPSend         0x9d038488          0x2ec         748   
.text._DNS_ProcessPacke 0x9d038774          0x2e4         740   
.text.DeriveKeys        0x9d038a58          0x2e4         740   
.text.ValidateDate      0x9d038d3c          0x2e0         736   
.text.BuildMessage      0x9d03901c          0x2e0         736   
.text.CommandHelp       0x9d0392fc          0x2dc         732   
.text.DRV_USART_LineCon 0x9d0395d8          0x2d8         728   
.text.AddCA             0x9d0398b0          0x2d8         728   
.text.MakeSslMasterSecr 0x9d039b88          0x2d0         720   
.text._DRV_ENCX24J600_M 0x9d039e58          0x2cc         716   
.text.Base64_Decode     0x9d03a124          0x2bc         700   
.text.fp_sqr_comba      0x9d03a3e0          0x2b8         696   
.text.DRV_ENCX24J600_Re 0x9d03a698          0x2b8         696   
.text.MatchSuite        0x9d03a950          0x2b8         696   
.text.DtlsMsgSet        0x9d03ac08          0x2b4         692   
.text.libm              0x9d03aebc          0x2b4         692   
.text.DRV_SPI_MasterEBM 0x9d03b170          0x2b0         688   
.text.DRV_SPI_Initializ 0x9d03b420          0x2b0         688   
.text.MPFS_Open         0x9d03b6d0          0x2b0         688   
.text.TCPIP_UDP_Flush   0x9d03b980          0x2a8         680   
.text.wc_ecc_make_key_e 0x9d03bc28          0x2a4         676   
.text.TCPIP_TCP_ArrayPu 0x9d03becc          0x2a0         672   
.text.wc_ecc_sign_hash_ 0x9d03c16c          0x29c         668   
.text.fp_div_2d         0x9d03c408          0x294         660   
.text.wc_Sha256Final    0x9d03c69c          0x290         656   
.text.SPIFlashInit      0x9d03c92c          0x28c         652   
.text.DRV_SPI_Close     0x9d03cbb8          0x288         648   
.text.malloc            0x9d03ce40          0x288         648   
.text._fp_exptmod       0x9d03d0c8          0x284         644   
.text.SYS_FS_FileOpen   0x9d03d34c          0x280         640   
.text._DRV_USART_Buffer 0x9d03d5cc          0x27c         636   
.text.TCPIP_HTTP_Initia 0x9d03d848          0x27c         636   
.text.SSL_ResourceFree  0x9d03dac4          0x27c         636   
.text._Command_MacInfo  0x9d03dd40          0x278         632   
.text.fpsubadd          0x9d03dfb8          0x278         632   
.text.DRV_SST25VF016B_T 0x9d03e230          0x274         628   
.text.DRV_USART_BufferA 0x9d03e4a4          0x274         628   
.text.SSL_hmac          0x9d03e718          0x274         628   
.text.FreeHandshakeReso 0x9d03e98c          0x26c         620   
.text.GetSession        0x9d03ebf8          0x268         616   
.rodata                 0x9d03ee60          0x264         612  Read-only const 
.text.TCPIP_IPV4_Task   0x9d03f0c4          0x264         612   
.text.SYS_TMR_Tasks     0x9d03f328          0x25c         604   
.text                   0x9d03f584          0x25c         604  App's exec code 
.text.BuildFinished     0x9d03f7e0          0x258         600   
.text.DoCertificateVeri 0x9d03fa38          0x258         600   
.text._DHCPReceive      0x9d03fc90          0x254         596   
.text.fp_mul_comba      0x9d03fee4          0x250         592   
.text.wc_ShaFinal       0x9d040134          0x24c         588   
.text.MPFS_Stat         0x9d040380          0x24c         588   
.text.Hash_df           0x9d0405cc          0x244         580   
.text._DHCPOptionHostNa 0x9d040810          0x244         580   
.text.TCPIP_DNS_EntryQu 0x9d040a54          0x240         576   
.text.BuildCertHashes   0x9d040c94          0x240         576   
.text.DRV_ENCX24J600_Re 0x9d040ed4          0x238         568   
.text.wc_RsaFunction    0x9d04110c          0x234         564   
.text.PRF               0x9d041340          0x234         564   
.text._DRV_TMR_ClockSou 0x9d041574          0x230         560   
.text.fp32div           0x9d0417a4          0x230         560   
.text.DRV_SPI_ClientCon 0x9d0419d4          0x22c         556   
.text._UDPOpen          0x9d041c00          0x228         552   
.text.fp_montgomery_red 0x9d041e28          0x224         548   
.text.DRV_ENCX24J600_Ru 0x9d04204c          0x224         548   
.text.ConfirmSignature  0x9d042270          0x220         544   
.text.Des3ProcessBlock  0x9d042490          0x220         544   
.text.APP_Tasks         0x9d0426b0          0x21c         540   
.text.DRV_SPI_ISRErrorT 0x9d0428cc          0x21c         540   
.text.scale             0x9d042ae8          0x21c         540   
.text.DesSetKey         0x9d042d04          0x218         536   
.rodata                 0x9d042f1c          0x218         536  Read-only const 
.text.SYS_Initialize    0x9d043134          0x214         532   
.text.RABBIT_next_state 0x9d043348          0x214         532   
.text.__floatdisf       0x9d04355c          0x214         532   
.text._TCPIP_HEAP_Free  0x9d043770          0x210         528   
.text.p_hash            0x9d043980          0x210         528   
.text.GetInputData      0x9d043b90          0x20c         524   
.text.wc_HmacSetKey     0x9d043d9c          0x208         520   
.text._Command_StackOnO 0x9d043fa4          0x208         520   
.text.DRV_TMR_Initializ 0x9d0441ac          0x204         516   
.text                   0x9d0443b0          0x204         516  App's exec code 
.text.SPIFlashWrite     0x9d0445b4          0x200         512   
.text.SendData          0x9d0447b4          0x200         512   
.text._Command_NetworkO 0x9d0449b4          0x1fc         508   
.rodata                 0x9d044bb0          0x1fc         508  Read-only const 
.text._Command_AddressS 0x9d044dac          0x1f8         504   
.text.TCPIP_ICMP_Task   0x9d044fa4          0x1f4         500   
.text.ecc_map           0x9d045198          0x1ec         492   
.text.DRV_USART_TasksEr 0x9d045384          0x1ec         492   
.text.MatchBaseName     0x9d045570          0x1e8         488   
.text.DRV_TMR_AlarmRegi 0x9d045758          0x1e8         488   
.text._LoadNetworkConfi 0x9d045940          0x1e8         488   
.text.SendFinished      0x9d045b28          0x1e4         484   
.text.TCPIP_UDP_Bind    0x9d045d0c          0x1e0         480   
.text._Command_IPAddres 0x9d045eec          0x1e0         480   
.text._DNS_IsNameResolv 0x9d0460cc          0x1dc         476   
.text.DRV_SPI_SYS_QUEUE 0x9d0462a8          0x1d8         472   
.text._DNS_RESPONSE_Has 0x9d046480          0x1d8         472   
.text.wc_RsaPublicKeyDe 0x9d046658          0x1d4         468   
.text.TCPIP_DNS_ClientT 0x9d04682c          0x1d4         468   
.text._Command_DHCPLeas 0x9d046a00          0x1d4         468   
.text.InitSSL           0x9d046bd4          0x1d4         468   
.text.strtoul           0x9d046da8          0x1d4         468   
.text.SPIFlashReadArray 0x9d046f7c          0x1d0         464   
.text.SendCertificateRe 0x9d04714c          0x1d0         464   
.text.DesRawProcessBloc 0x9d04731c          0x1cc         460   
.text.TCPIP_Helper_Stri 0x9d0474e8          0x1cc         460   
.text.TCPIP_ARP_EntryRe 0x9d0476b4          0x1c8         456   
.text.wc_ecc_import_x96 0x9d04787c          0x1c4         452   
.text.fp_mul_2d         0x9d047a40          0x1c4         452   
.text.DRV_SPI_BufferAdd 0x9d047c04          0x1c4         452   
.text.DRV_SST25VF016B_B 0x9d047dc8          0x1c4         452   
.text.DRV_SST25VF016B_B 0x9d047f8c          0x1c0         448   
.text.fp32mul           0x9d04814c          0x1bc         444   
.text.TCPIP_DHCPS_Task  0x9d048308          0x1b8         440   
.text.wc_ecc_shared_sec 0x9d0484c0          0x1b4         436   
.text.wc_RNG_GenerateBl 0x9d048674          0x1b0         432   
.text.DRV_SST25VF016B_B 0x9d048824          0x1b0         432   
.text.TCPIP_UDP_ArrayGe 0x9d0489d4          0x1b0         432   
.text.TCPIP_UDP_Options 0x9d048b84          0x1b0         432   
.text._DNS_Resolve      0x9d048d34          0x1b0         432   
.text.DRV_SPI_MasterRMS 0x9d048ee4          0x1ac         428   
.text.TCPIP_Helper_Base 0x9d049090          0x1ac         428   
.text.DRV_TMR_CounterFr 0x9d04923c          0x1a4         420   
.text._DNS_GetAddresses 0x9d0493e0          0x1a4         420   
.text.DtlsPoolSend      0x9d049584          0x1a4         420   
.text.gmtime            0x9d049728          0x1a4         420   
.text.fround            0x9d0498cc          0x1a4         420   
.text.DRV_SPI_BufferAdd 0x9d049a70          0x1a0         416   
.text.SendAlert         0x9d049c10          0x1a0         416   
.text                   0x9d049db0          0x1a0         416  App's exec code 
.text.SPIFlashEraseSect 0x9d049f50          0x19c         412   
.text.TCPIP_TCP_Options 0x9d04a0ec          0x19c         412   
.text.strtol            0x9d04a288          0x19c         412   
.text.NET_PRES_SocketWr 0x9d04a424          0x198         408   
.text._ARPProbeAddress  0x9d04a5bc          0x198         408   
.text.fp_mod_2d         0x9d04a754          0x194         404   
.text._DRV_TMR_ClockPre 0x9d04a8e8          0x194         404   
.text.TCPIP_Helper_Base 0x9d04aa7c          0x194         404   
.text._sbrk_init        0x9d04ac10          0x194         404   
.text.TCPIP_TCP_ArrayGe 0x9d04ada4          0x190         400   
.text._HTTP_ReadTo      0x9d04af34          0x190         400   
.text.DRV_USART_Open    0x9d04b0c4          0x18c         396   
.text.TCPIP_DHCP_Initia 0x9d04b250          0x18c         396   
.rodata                 0x9d04b3dc          0x188         392  Read-only const 
.text.DRV_SPI_BufferAdd 0x9d04b564          0x184         388   
.text.TCPIP_UDP_Deiniti 0x9d04b6e8          0x184         388   
.text.DRV_SPI_MasterRMR 0x9d04b86c          0x180         384   
.rodata                 0x9d04b9ec          0x180         384  Read-only const 
.text.wc_RsaPrivateKeyD 0x9d04bb6c          0x180         384   
.text.SYS_FS_Mount      0x9d04bcec          0x180         384   
.text.TCPIP_TCP_Initial 0x9d04be6c          0x180         384   
.text.SetPrefix         0x9d04bfec          0x180         384   
.text.DRV_ENCX24J600_Ch 0x9d04c16c          0x17c         380   
.text._SYS_TMR_ClientCr 0x9d04c2e8          0x178         376   
.text.TCPIP_HTTP_FileIn 0x9d04c460          0x178         376   
.text.TCPIP_SNTP_Initia 0x9d04c5d8          0x178         376   
.text.DRV_ENCX24J600_SP 0x9d04c750          0x174         372   
.text.wc_ecc_export_x96 0x9d04c8c4          0x170         368   
.text.SYS_FS_FileSeek   0x9d04ca34          0x170         368   
.text._TCPIP_HEAP_Mallo 0x9d04cba4          0x170         368   
.text.wc_DhGenerateKeyP 0x9d04cd14          0x170         368   
.text.wc_InitRng        0x9d04ce84          0x16c         364   
.text.StoreECC_DSA_Sig  0x9d04cff0          0x16c         364   
.text._Command_HeapInfo 0x9d04d15c          0x16c         364   
.text._DHCPS_StartOpera 0x9d04d2c8          0x16c         364   
.text.TCPIP_DHCPS_Lease 0x9d04d434          0x16c         364   
.text.wc_Md5Final       0x9d04d5a0          0x168         360   
.text._DHCPStartOperati 0x9d04d708          0x168         360   
.text.SendChangeCipher  0x9d04d870          0x168         360   
.text                   0x9d04d9d8          0x2d0         720  App's exec code 
.text.TCPIP_HTTP_Print_ 0x9d04dca8          0x164         356   
.text.s_fp_sub          0x9d04de0c          0x164         356   
.text.wc_HmacFinal      0x9d04df70          0x164         356   
.text.TCPIP_Helper_IPv6 0x9d04e0d4          0x164         356   
.text.TCPIP_IPV4_Select 0x9d04e238          0x164         356   
.text.TCPIP_HEAP_Create 0x9d04e39c          0x164         356   
.text.TCPIP_HTTP_GetExe 0x9d04e500          0x160         352   
.text.TCPIP_HTTP_Print_ 0x9d04e660          0x160         352   
.text.TCPIP_TCP_Options 0x9d04e7c0          0x160         352   
.text.DRV_ENCX24J600_SP 0x9d04e920          0x15c         348   
.text.DRV_ENCX24J600_SP 0x9d04ea7c          0x15c         348   
.text.DRV_ENCX24J600_Ch 0x9d04ebd8          0x15c         348   
.text._ARPSendIfPkt     0x9d04ed34          0x15c         348   
.text._DHCPProcessRecei 0x9d04ee90          0x15c         348   
.text.mp_read_radix     0x9d04efec          0x158         344   
.text.DRV_ENCX24J600_SP 0x9d04f144          0x158         344   
.text.NET_PRES_Tasks    0x9d04f29c          0x158         344   
.text.DtlsMsgStore      0x9d04f3f4          0x158         344   
.rodata                 0x9d04f54c          0x154         340  Read-only const 
.text.GetObjectId       0x9d04f6a0          0x154         340   
.text.DRV_ENCX24J600_Ch 0x9d04f7f4          0x154         340   
.text._SYS_TMR_AlarmCal 0x9d04f948          0x154         340   
.text.ReceiveData       0x9d04fa9c          0x154         340   
.text._IntHandlerDrvUsa 0x9d04fbf0          0x150         336   
.text._TcpDisconnect    0x9d04fd40          0x14c         332   
.text.TCPIP_UDP_Initial 0x9d04fe8c          0x14c         332   
.text.GetDate           0x9d04ffd8          0x148         328   
.text._TcpCloseSocket   0x9d050120          0x148         328   
.text.TCPIP_UDP_Options 0x9d050268          0x148         328   
.text.TCPIP_HTTP_URLDec 0x9d0503b0          0x148         328   
.text.powf              0x9d0504f8          0x148         328   
.text.s_fp_add          0x9d050640          0x144         324   
.text.TCPIP_UDP_OpenSer 0x9d050784          0x144         324   
.text.TCPIP_SMTP_ArrayP 0x9d0508c8          0x144         324   
.text.fputc             0x9d050a0c          0x144         324   
.text.DRV_ENCX24J600_SP 0x9d050b50          0x140         320   
.text.DisplayNodeMsg    0x9d050c90          0x140         320   
.text.MatchDomainName   0x9d050dd0          0x140         320   
.text.DRV_ENCX24J600_Ch 0x9d050f10          0x13c         316   
.text.DRV_SST25VF016B_O 0x9d05104c          0x13c         316   
.text.NET_PRES_EncProvi 0x9d051188          0x138         312   
.text.NET_PRES_EncProvi 0x9d0512c0          0x138         312   
.text.fp_mul_d          0x9d0513f8          0x138         312   
.text.ToTraditional     0x9d051530          0x138         312   
.text.wc_Des3_CbcDecryp 0x9d051668          0x138         312   
.text.wc_Sha256Update   0x9d0517a0          0x138         312   
.text.TCPIP_TCP_Bind    0x9d0518d8          0x138         312   
.text.IntHandlerDrvTmrI 0x9d051a10          0x134         308   
.text._IntHandlerSPIIns 0x9d051b44          0x134         308   
.text._IntHandlerSPIIns 0x9d051c78          0x134         308   
.text.TCPIP_HTTP_Print_ 0x9d051dac          0x134         308   
.text.GetCertHeader     0x9d051ee0          0x134         308   
.text.DRV_TMR_CounterVa 0x9d052014          0x134         308   
.text._Command_GatewayA 0x9d052148          0x134         308   
.text.TCPIP_Helper_Stri 0x9d05227c          0x134         308   
.text.TCPIP_STACK_NetUp 0x9d0523b0          0x134         308   
.text.DRV_ENCX24J600_SP 0x9d0524e4          0x130         304   
.text._ARPDeleteResourc 0x9d052614          0x130         304   
.text._Command_MACAddre 0x9d052744          0x130         304   
.text.wc_DhSetKey       0x9d052874          0x130         304   
.text.CheckAvailableSiz 0x9d0529a4          0x130         304   
.text.wc_ShaUpdate      0x9d052ad4          0x12c         300   
.text.DRV_ENCX24J600_In 0x9d052c00          0x12c         300   
.text._flsbuf           0x9d052d2c          0x12c         300   
.text.Hash_DRBG_Reseed  0x9d052e58          0x128         296   
.text._SYS_FS_DiskNumbe 0x9d052f80          0x128         296   
.text.TCPIP_ANNOUNCE_In 0x9d0530a8          0x128         296   
.text.TCPIP_IPV4_ArpHan 0x9d0531d0          0x128         296   
.text.SendBuffered      0x9d0532f8          0x128         296   
.text.BuildTlsFinished  0x9d053420          0x128         296   
.text.wolfSSL_SetTlsHma 0x9d053548          0x128         296   
.text.DRV_ENCX24J600_Se 0x9d053670          0x124         292   
.text._Tcpv4TxAckFnc    0x9d053794          0x124         292   
.text._OAHashFindBkt    0x9d0538b8          0x124         292   
.text.SetAlgoID         0x9d0539dc          0x120         288   
.text.TCPIP_Helper_Pack 0x9d053afc          0x120         288   
.text                   0x9d053c1c          0x120         288  App's exec code 
.text.DRV_ENCX24J600_De 0x9d053d3c          0x11c         284   
.text.MPFS_Mount        0x9d053e58          0x11c         284   
.text._GetMaxSegSizeOpt 0x9d053f74          0x11c         284   
.text.TCPIP_ARP_IsResol 0x9d054090          0x11c         284   
.text.SetCurveId        0x9d0541ac          0x11c         284   
.text._DRV_TMR_Resume   0x9d0542c8          0x118         280   
.text._DHCPSetLeaseTime 0x9d0543e0          0x118         280   
.text.TCPIP_Helper_Pack 0x9d0544f8          0x118         280   
.text.RsaUnPad          0x9d054610          0x114         276   
.text.TCPIP_ARP_EntryQu 0x9d054724          0x114         276   
.text._Command_PrimaryD 0x9d054838          0x114         276   
.text.FreeArrays        0x9d05494c          0x114         276   
.text.wolfSSL_DeriveTls 0x9d054a60          0x114         276   
.text.wolfSSL_MakeTlsMa 0x9d054b74          0x114         276   
.text.wc_ecc_sign_hash  0x9d054c88          0x110         272   
.text.TCPIP_STACK_KillS 0x9d054d98          0x110         272   
.text.wc_RabbitSetIV    0x9d054ea8          0x110         272   
.text.GrowInputBuffer   0x9d054fb8          0x110         272   
.text.AllocDer          0x9d0550c8          0x110         272   
.text.wc_RNG_HealthTest 0x9d0551d8          0x10c         268   
.text.wc_Des3_CbcEncryp 0x9d0552e4          0x10c         268   
.text.DRV_SST25VF016B_I 0x9d0553f0          0x10c         268   
.text.SYS_CMD_ADDGRP    0x9d0554fc          0x10c         268   
.text.TCPIP_DHCP_InfoGe 0x9d055608          0x10c         268   
.text.AlreadySigner     0x9d055714          0x10c         268   
.text.fp_rshd           0x9d055820          0x108         264   
.text.fp_exptmod        0x9d055928          0x108         264   
.text.DRV_SPI_SYS_QUEUE 0x9d055a30          0x108         264   
.text.MPFSGetArray      0x9d055b38          0x108         264   
.text._UDPv4AllocateSkt 0x9d055c40          0x108         264   
.text.wc_DhAgree        0x9d055d48          0x108         264   
.text.wc_RsaPad         0x9d055e50          0x104         260   
.text.DRV_ENCX24J600_Op 0x9d055f54          0x104         260   
.text.DRV_SST25VF016B_C 0x9d056058          0x104         260   
.text.MPFSGet           0x9d05615c          0x104         260   
.text._DNS_ValidateIf   0x9d056260          0x104         260   
.text._DHCPS_Enable     0x9d056364          0x104         260   
.text.wolfSSL_CTX_load_ 0x9d056468          0x104         260   
.rodata                 0x9d05656c          0x104         260  Read-only const 
.rodata                 0x9d056670           0x10          16  Read-only const 
.rodata                 0x9d056680          0x100         256  Read-only const 
.text._TcpSocketSetIdle 0x9d056780          0x100         256   
.text._DHCPEnable       0x9d056880          0x100         256   
.text.DoFinished        0x9d056980          0x100         256   
.text.dptofp            0x9d056a80          0x100         256   
.text.NET_PRES_EncProvi 0x9d056b80           0xfc         252   
.text.NET_PRES_EncProvi 0x9d056c7c           0xfc         252   
.text.DateGreaterThan   0x9d056d78           0xfc         252   
.text.DRV_ENCX24J600_SP 0x9d056e74           0xfc         252   
.text.SYS_CMD_READY_TO_ 0x9d056f70           0xfc         252   
.text.TCPIP_TCP_ServerO 0x9d05706c           0xfc         252   
.text._UDPv4TxAckFnc    0x9d057168           0xfc         252   
.text.TCPIP_HTTP_Task   0x9d057264           0xfc         252   
.text.wc_ecc_verify_has 0x9d057360           0xf8         248   
.text.fp_read_unsigned_ 0x9d057458           0xf8         248   
.text.InitDecodedCert   0x9d057550           0xf8         248   
.text._DRV_TMR_Suspend  0x9d057648           0xf8         248   
.text.Console_UART_Writ 0x9d057740           0xf8         248   
.text._DHCPClose        0x9d057838           0xf8         248   
.text.wolfSSL_DTLS_SetC 0x9d057930           0xf8         248   
.text.TLS_hmac          0x9d057a28           0xf8         248   
.text.NET_PRES_SocketCl 0x9d057b20           0xf4         244   
.text._DHCPOpenSocket   0x9d057c14           0xf4         244   
.text.TCPIP_DHCP_Connec 0x9d057d08           0xf4         244   
.text.fp_div_2          0x9d057dfc           0xf0         240   
.text.fp_mod            0x9d057eec           0xf0         240   
.text.ParseCert         0x9d057fdc           0xf0         240   
.text._DRV_ENCX24J600_D 0x9d0580cc           0xf0         240   
.text.DRV_ENCX24J600_In 0x9d0581bc           0xf0         240   
.text.TCPIP_SMTP_Put    0x9d0582ac           0xf0         240   
.text.GetCA             0x9d05839c           0xf0         240   
.text.fp_montgomery_cal 0x9d05848c           0xec         236   
.text.fp_lshd           0x9d058578           0xec         236   
.text.SYS_TMR_SystemCou 0x9d058664           0xec         236   
.text._TCPIP_StackSyncF 0x9d058750           0xec         236   
.text.GetInt            0x9d05883c           0xe8         232   
.text._SYS_TMR_ClientPa 0x9d058924           0xe8         232   
.text.TCPIP_TCP_ArrayPe 0x9d058a0c           0xe8         232   
.text._DHCPPacketFilter 0x9d058af4           0xe8         232   
.text.TCPIP_IPV4_DeInit 0x9d058bdc           0xe8         232   
.text.GetCAByName       0x9d058cc4           0xe8         232   
.rodata                 0x9d058dac            0x4           4  Read-only const 
.rodata                 0x9d058db0           0xe8         232  Read-only const 
.text.TCPIP_UDP_Disconn 0x9d058e98           0xe4         228   
.text.TCPIP_NBNS_Initia 0x9d058f7c           0xe4         228   
.text.GeneratePublic    0x9d059060           0xe4         228   
.text.DtlsMsgDrain      0x9d059144           0xe4         228   
.text.TCPIP_OAHASH_Entr 0x9d059228           0xe0         224   
.text.TCPIP_STACK_Bring 0x9d059308           0xe0         224   
.text._TCPIP_PKT_Packet 0x9d0593e8           0xe0         224   
.text._DHCPSAddComplete 0x9d0594c8           0xe0         224   
.text.NET_PRES_SocketRe 0x9d0595a8           0xdc         220   
.text.SYS_CMD_DELETE    0x9d059684           0xdc         220   
.text.SYS_DEVCON_Perfor 0x9d059760           0xdc         220   
.text.TCPIP_ARP_CacheEn 0x9d05983c           0xdc         220   
.text._HTTP_CloseConnec 0x9d059918           0xdc         220   
.text._Command_BIOSName 0x9d0599f4           0xdc         220   
.text._Command_DefaultI 0x9d059ad0           0xdc         220   
.text.SendServerHelloDo 0x9d059bac           0xdc         220   
.text.general_exception 0x9d059c88           0xdc         220   
.text.fp_to_unsigned_bi 0x9d059d64           0xd8         216   
.text.GetAlgoId         0x9d059e3c           0xd8         216   
.text.wc_RsaSSL_Sign    0x9d059f14           0xd8         216   
.text.NET_PRES_SocketWr 0x9d059fec           0xd8         216   
.text.NET_PRES_SocketRe 0x9d05a0c4           0xd8         216   
.text.SYS_CMD_Initializ 0x9d05a19c           0xd8         216   
.text.TCPIP_TCP_Deiniti 0x9d05a274           0xd8         216   
.text._ARPUpdateEntry   0x9d05a34c           0xd8         216   
.text.Hash_DRBG_Instant 0x9d05a424           0xd4         212   
.text.wc_RsaPublicEncry 0x9d05a4f8           0xd4         212   
.text.SYS_FS_FileStat   0x9d05a5cc           0xd4         212   
.text.FindEmailAddress  0x9d05a6a0           0xd4         212   
.text.libm              0x9d05a774           0xd4         212   
.text._mon_putc         0x9d05a848           0xd4         212   
.rodata                 0x9d05a91c           0xd0         208  Read-only const 
.text.wc_Md5Update      0x9d05a9ec           0xd0         208   
.text.fp_cmp_mag        0x9d05aabc           0xd0         208   
.text.SYS_TMR_Initializ 0x9d05ab8c           0xd0         208   
.rodata                 0x9d05ac5c            0x4           4  Read-only const 
.rodata                 0x9d05ac60           0xd0         208  Read-only const 
.text.TCPIP_HTTP_Print_ 0x9d05ad30           0xcc         204   
.text.wc_GenerateSeed   0x9d05adfc           0xcc         204   
.text.DRV_TMR_Tasks     0x9d05aec8           0xcc         204   
.text.TCPIP_UDP_RemoteB 0x9d05af94           0xcc         204   
.text.TCPIP_ARP_EntryRe 0x9d05b060           0xcc         204   
.text.VerifyRsaSign     0x9d05b12c           0xcc         204   
.text.mystrnstr         0x9d05b1f8           0xcc         204   
.text.mp_init_multi     0x9d05b2c4           0xc8         200   
.text.DecodeECC_DSA_Sig 0x9d05b38c           0xc8         200   
.text._UDPsetPacketInfo 0x9d05b454           0xc8         200   
.text.TCPIP_OAHASH_Entr 0x9d05b51c           0xc8         200   
.text.StoreKeys         0x9d05b5e4           0xc8         200   
.text._sbrk             0x9d05b6ac           0xc8         200   
.text.wc_EncodeSignatur 0x9d05b774           0xc4         196   
.text.wc_Md5GetHash     0x9d05b838           0xc4         196   
.text.wc_Sha256GetHash  0x9d05b8fc           0xc4         196   
.text.SYS_FS_Unmount    0x9d05b9c0           0xc4         196   
.text._DHCPOptionWriteS 0x9d05ba84           0xc4         196   
.text.TCPIP_DNS_Disable 0x9d05bb48           0xc4         196   
.text._TCPIPStackModule 0x9d05bc0c           0xc4         196   
.text.DtlsPoolSave      0x9d05bcd0           0xc4         196   
.text.libm              0x9d05bd94           0xc4         196   
.text.wc_ecc_make_key   0x9d05be58           0xc0         192   
.text.FreeDecodedCert   0x9d05bf18           0xc0         192   
.text.DRV_ENCX24J600_Ma 0x9d05bfd8           0xc0         192   
.text.DRV_SPI_SYS_QUEUE 0x9d05c098           0xc0         192   
.text.SYS_CMD_PRINT     0x9d05c158           0xc0         192   
.text.SYS_FS_FileRead   0x9d05c218           0xc0         192   
.text.TCPIP_UDP_ArrayPu 0x9d05c2d8           0xc0         192   
.text._DHCPOptionProces 0x9d05c398           0xc0         192   
.text.TCPIP_Commands_In 0x9d05c458           0xc0         192   
.text.TCPIP_DDNS_Initia 0x9d05c518           0xc0         192   
.text.FreeCiphers       0x9d05c5d8           0xc0         192   
.text.DoApplicationData 0x9d05c698           0xc0         192   
.text.logf              0x9d05c758           0xc0         192   
.text.SendCommandPrint  0x9d05c818           0xbc         188   
.text.SYS_CMDIO_ADD     0x9d05c8d4           0xbc         188   
.text._DHCPOptionWriteI 0x9d05c990           0xbc         188   
.text.TCPIP_PKT_DataSeg 0x9d05ca4c           0xbc         188   
.text.TCPIP_DHCPS_HashD 0x9d05cb08           0xbc         188   
.text.CreateFragment    0x9d05cbc4           0xbc         188   
.text.fp_mul_2          0x9d05cc80           0xb8         184   
.text._SYS_FS_DiskGet   0x9d05cd38           0xb8         184   
.text.SYS_FS_FileClose  0x9d05cdf0           0xb8         184   
.text.TCPIP_UDP_BcastIP 0x9d05cea8           0xb8         184   
.text.TCPIP_DNS_OAHASH_ 0x9d05cf60           0xb8         184   
.text.TCPIP_DNS_GetIPAd 0x9d05d018           0xb8         184   
.text.AddFragHeaders    0x9d05d0d0           0xb8         184   
.text.CleanPreMaster    0x9d05d188           0xb8         184   
.text.wc_Des3_SetKey    0x9d05d240           0xb4         180   
.text.wc_HmacUpdate     0x9d05d2f4           0xb4         180   
.text.Console_UART_Read 0x9d05d3a8           0xb4         180   
.text.SYS_FS_MEDIA_MANA 0x9d05d45c           0xb4         180   
.rodata                 0x9d05d510           0xb4         180  Read-only const 
.text.MPFS_Seek         0x9d05d5c4           0xb4         180   
.text._ARPNotifyClients 0x9d05d678           0xb4         180   
.text.TCPIP_DHCP_Disabl 0x9d05d72c           0xb4         180   
.text._DNS_DeleteHash   0x9d05d7e0           0xb4         180   
.text._DHCPSrvClose     0x9d05d894           0xb4         180   
.text.TCPIP_HTTP_Print_ 0x9d05d948           0xb0         176   
.text._WaitWhileBusy    0x9d05d9f8           0xb0         176   
.text._DNS_AddSelection 0x9d05daa8           0xb0         176   
.text.TCPIP_HTTP_PostVa 0x9d05db58           0xb0         176   
.text.TCPIP_IPV4_Packet 0x9d05dc08           0xb0         176   
.text.DRV_ENCX24J600_SP 0x9d05dcb8           0xac         172   
.text.DRV_USART_TasksRe 0x9d05dd64           0xac         172   
.text.DRV_USART_TasksTr 0x9d05de10           0xac         172   
.text.SYS_FS_Initialize 0x9d05debc           0xac         172   
.text._DNS_Enable       0x9d05df68           0xac         172   
.text.TCPIP_STACK_NetDo 0x9d05e014           0xac         172   
.text._TCPIPStackInsert 0x9d05e0c0           0xac         172   
.text.InitSSL_Ctx       0x9d05e16c           0xac         172   
.text.fptodp            0x9d05e218           0xac         172   
.text.atol              0x9d05e2c4           0xac         172   
.text.DRV_ENCX24J600_De 0x9d05e370           0xa8         168   
.text._SYS_TMR_ClientCh 0x9d05e418           0xa8         168   
.text.SYS_FS_FileNameFo 0x9d05e4c0           0xa8         168   
.text                   0x9d05e568           0xa8         168  App's exec code 
.text.atoi              0x9d05e610           0xa8         168   
.text.DRV_SPI_SetVTable 0x9d05e6b8           0xa4         164   
.text.fp_add            0x9d05e75c           0xa4         164   
.text.TCPIP_UDP_PutIsRe 0x9d05e800           0xa4         164   
.text._TCPIP_PKT_Packet 0x9d05e8a4           0xa4         164   
.text.TCPIP_IPV4_Initia 0x9d05e948           0xa4         164   
.text._TCPIP_HEAP_MaxSi 0x9d05e9ec           0xa4         164   
.text.TCPIP_HTTP_Print_ 0x9d05ea90           0xa0         160   
.text.fp_sub            0x9d05eb30           0xa0         160   
.text.Console_UART_Stat 0x9d05ebd0           0xa0         160   
.text.stricmppgm2ram    0x9d05ec70           0xa0         160   
.text._TCPSendWinIncUpd 0x9d05ed10           0xa0         160   
.text._TcpAbort         0x9d05edb0           0xa0         160   
.text.TCPIP_DNS_RemoveA 0x9d05ee50           0xa0         160   
.text.TCPIP_Helper_Sing 0x9d05eef0           0xa0         160   
.text.TCPIP_PKT_PacketM 0x9d05ef90           0xa0         160   
.text.DiscreteLogWorkFa 0x9d05f030           0xa0         160   
.text.GetLength         0x9d05f0d0           0x9c         156   
.text.SetLength         0x9d05f16c           0x9c         156   
.text.NET_PRES_SocketSi 0x9d05f208           0x9c         156   
.text.TCPIP_ARP_Probe   0x9d05f2a4           0x9c         156   
.rodata                 0x9d05f340           0x9c         156  Read-only const 
.text.TCPIP_STACK_Strin 0x9d05f3dc           0x9c         156   
.text.TCPIP_STACK_IPAdd 0x9d05f478           0x9c         156   
.rodata                 0x9d05f514           0x9c         156  Read-only const 
.text.HashOutput        0x9d05f5b0           0x9c         156   
.text.HashInput         0x9d05f64c           0x9c         156   
.text.AddHeaders        0x9d05f6e8           0x9c         156   
.text.ShrinkInputBuffer 0x9d05f784           0x9c         156   
.text.fpcmp             0x9d05f820           0x9c         156   
.text.write             0x9d05f8bc           0x9c         156   
.text.DRV_ENCX24J600_SP 0x9d05f958           0x98         152   
.text.NET_PRES_SocketFl 0x9d05f9f0           0x98         152   
.text._SYS_FS_MEDIA_MAN 0x9d05fa88           0x98         152   
.text._TcpCleanup       0x9d05fb20           0x98         152   
.text.TCPIP_UDP_Destina 0x9d05fbb8           0x98         152   
.text._DNSDiscardName   0x9d05fc50           0x98         152   
.text._DNS_CleanCacheEn 0x9d05fce8           0x98         152   
.text._HTTP_Cleanup     0x9d05fd80           0x98         152   
.text.TCPIP_Helper_IPAd 0x9d05fe18           0x98         152   
.text.AddHandShakeHeade 0x9d05feb0           0x98         152   
.text                   0x9d05ff48           0x98         152  App's exec code 
.text.NET_PRES_EncProvi 0x9d05ffe0           0x94         148   
.text.TCPIP_HTTP_Print_ 0x9d060074           0x94         148   
.text.wc_ShaGetHash     0x9d060108           0x94         148   
.text.putsUART2         0x9d06019c           0x94         148   
.text.SYS_FS_FileNameGe 0x9d060230           0x94         148   
.text.SYS_FS_MEDIA_MANA 0x9d0602c4           0x94         148   
.text.uitoa             0x9d060358           0x94         148   
.text._UDPSetNewRxPacke 0x9d0603ec           0x94         148   
.text.TCPIP_ARP_EntryGe 0x9d060480           0x94         148   
.text.TCPIP_HTTP_ArgGet 0x9d060514           0x94         148   
.text.wolfSSL_CTX_new   0x9d0605a8           0x94         148   
.text.DeriveTlsKeys     0x9d06063c           0x94         148   
.rodata                 0x9d0606d0           0x90         144  Read-only const 
.text.NET_PRES_SocketOp 0x9d060760           0x90         144   
.text.NET_PRES_SocketIs 0x9d0607f0           0x90         144   
.text.SYS_CONSOLE_Statu 0x9d060880           0x90         144   
.text.SYS_FS_MEDIA_MANA 0x9d060910           0x90         144   
.text.TCPIP_UDP_SocketI 0x9d0609a0           0x90         144   
.text.TCPIP_UDP_TxOffse 0x9d060a30           0x90         144   
.text.TCPIP_Helper_Prot 0x9d060ac0           0x90         144   
.text._TCPIPStackIpAddF 0x9d060b50           0x90         144   
.text.DHCPSLocateReques 0x9d060be0           0x90         144   
.text.SSL_CtxResourceFr 0x9d060c70           0x90         144   
.text.strstr            0x9d060d00           0x90         144   
.text.array_add         0x9d060d90           0x8c         140   
.text.wc_AesSetIV       0x9d060e1c           0x8c         140   
.text.HmacKeyInnerHash  0x9d060ea8           0x8c         140   
.text.SYS_CONSOLE_Write 0x9d060f34           0x8c         140   
.text._LoadFATRecord    0x9d060fc0           0x8c         140   
.text.hexatob           0x9d06104c           0x8c         140   
.text.TCPIP_TCP_RemoteB 0x9d0610d8           0x8c         140   
.text._DHCPNotifyClient 0x9d061164           0x8c         140   
.text.TCPIP_Helper_Form 0x9d0611f0           0x8c         140   
.text.TCPIP_Helper_Prot 0x9d06127c           0x8c         140   
.text.TCPIP_Helper_Prot 0x9d061308           0x8c         140   
.text.TCPIP_STACK_NetAl 0x9d061394           0x8c         140   
.text.TCPIP_STACK_NetBi 0x9d061420           0x8c         140   
.text.DtlsPoolReset     0x9d0614ac           0x8c         140   
.text.wolfSSL_Cleanup   0x9d061538           0x8c         140   
.text.rand              0x9d0615c4           0x8c         140   
.text.NET_PRES_EncProvi 0x9d061650           0x88         136   
.text.NET_PRES_EncProvi 0x9d0616d8           0x88         136   
.text.NET_PRES_EncProvi 0x9d061760           0x88         136   
.text.NET_PRES_EncProvi 0x9d0617e8           0x88         136   
.text.TCPIP_HTTP_Print_ 0x9d061870           0x88         136   
.text.TCPIP_HTTP_Print_ 0x9d0618f8           0x88         136   
.text.TCPIP_HTTP_Print_ 0x9d061980           0x88         136   
.text.FreeSigner        0x9d061a08           0x88         136   
.text.FreeSignerTable   0x9d061a90           0x88         136   
.text.TCPIP_UDP_SourceI 0x9d061b18           0x88         136   
.rodata                 0x9d061ba0           0x88         136  Read-only const 
.text.AddRecordHeader   0x9d061c28           0x88         136   
.text.PickHashSigAlgo   0x9d061cb0           0x88         136   
.text.wolfSSL_read_inte 0x9d061d38           0x88         136   
.text.libm              0x9d061dc0           0x88         136   
.text.mp_copy           0x9d061e48           0x84         132   
.text.DRV_ENCX24J600_St 0x9d061ecc           0x84         132   
.text.DRV_SST25VF016B_G 0x9d061f50           0x84         132   
.text._DRV_TMR_ModuleOb 0x9d061fd4           0x84         132   
.text.ReadCommandCharac 0x9d062058           0x84         132   
.text._TcpClientSocketC 0x9d0620dc           0x84         132   
.text.TCPIP_SMTP_MailSe 0x9d062160           0x84         132   
.text.TCPIP_STACK_NetHa 0x9d0621e4           0x84         132   
.text._TCPIPStackModule 0x9d062268           0x84         132   
.text.TCPIP_DDNS_Deinit 0x9d0622ec           0x84         132   
.text.DtlsMsgInsert     0x9d062370           0x84         132   
.text.GetSequence       0x9d0623f4           0x80         128   
.text.GetSet            0x9d062474           0x80         128   
.text.DRV_ENCX24J600_St 0x9d0624f4           0x80         128   
.text._DRV_SPI_SYS_QUEU 0x9d062574           0x80         128   
.text.SYS_CONSOLE_Read  0x9d0625f4           0x80         128   
.text.TCPIP_DNS_OAHASH_ 0x9d062674           0x80         128   
.text.TCPIP_Helper_MACA 0x9d0626f4           0x80         128   
.text.TCPIP_ICMP_Initia 0x9d062774           0x80         128   
.text._DHCPServerCleanu 0x9d0627f4           0x80         128   
.text.TCPIP_DHCPS_CopyD 0x9d062874           0x80         128   
.text.FreeSSL_Ctx       0x9d0628f4           0x80         128   
.text.DtlsMsgNew        0x9d062974           0x80         128   
.text.TCPIP_HTTP_Print_ 0x9d0629f4           0x7c         124   
.text.wc_Arc4SetKey     0x9d062a70           0x7c         124   
.text.wc_FreeRsaKey     0x9d062aec           0x7c         124   
.text.DRV_ENCX24J600_SP 0x9d062b68           0x7c         124   
.text.CommandCleanup    0x9d062be4           0x7c         124   
.text._TCP_EphemeralPor 0x9d062c60           0x7c         124   
.text._UDPAllocateEphem 0x9d062cdc           0x7c         124   
.text.TCPIP_ARP_Deiniti 0x9d062d58           0x7c         124   
.text.TCPIP_ARP_Handler 0x9d062dd4           0x7c         124   
.text.TCPIP_Helper_Prot 0x9d062e50           0x7c         124   
.text._TCPIPStackAnyNet 0x9d062ecc           0x7c         124   
.text.TCPIP_DHCPS_GetAr 0x9d062f48           0x7c         124   
.text.TCPIP_DHCPS_Disab 0x9d062fc4           0x7c         124   
.text.HashOutputRaw     0x9d063040           0x7c         124   
.text.MakeTlsMasterSecr 0x9d0630bc           0x7c         124   
.text.fptoul            0x9d063138           0x7c         124   
.text.NET_PRES_EncGlue_ 0x9d0631b4           0x78         120   
.text.NET_PRES_EncGlue_ 0x9d06322c           0x78         120   
.text.NET_PRES_EncGlue_ 0x9d0632a4           0x78         120   
.text.NET_PRES_EncGlue_ 0x9d06331c           0x78         120   
.text.NET_PRES_EncGlue_ 0x9d063394           0x78         120   
.text.NET_PRES_EncGlue_ 0x9d06340c           0x78         120   
.text.NET_PRES_EncGlue_ 0x9d063484           0x78         120   
.text.NET_PRES_EncGlue_ 0x9d0634fc           0x78         120   
.text.SYS_PORTS_PinDire 0x9d063574           0x78         120   
.text.BSP_Initialize    0x9d0635ec           0x78         120   
.text.wc_ecc_new_point  0x9d063664           0x78         120   
.text.fp_cmp            0x9d0636dc           0x78         120   
.text.DRV_ENCX24J600_Pa 0x9d063754           0x78         120   
.text.DRV_ENCX24J600_Ev 0x9d0637cc           0x78         120   
.rodata                 0x9d063844           0x78         120  Read-only const 
.text.SYS_CONSOLE_Initi 0x9d0638bc           0x78         120   
.text.TCPIP_TCP_SocketI 0x9d063934           0x78         120   
.text.TCPIP_TCP_Destina 0x9d0639ac           0x78         120   
.text.TCPIP_UDP_Close   0x9d063a24           0x78         120   
.text.TCPIP_DHCP_IsEnab 0x9d063a9c           0x78         120   
.text.TCPIP_DHCP_IsServ 0x9d063b14           0x78         120   
.text.TCPIP_DHCP_Handle 0x9d063b8c           0x78         120   
.text.TCPIP_Helper_Prot 0x9d063c04           0x78         120   
.text._TCPIP_MacEventCB 0x9d063c7c           0x78         120   
.text.TCPIP_PKT_Initial 0x9d063cf4           0x78         120   
.text._DHCPS_ValidatePk 0x9d063d6c           0x78         120   
.text.wolfSSL_Init      0x9d063de4           0x78         120   
.text.wolfSSL_UnloadCer 0x9d063e5c           0x78         120   
.text.fp_2expt          0x9d063ed4           0x74         116   
.text.fp_mulmod         0x9d063f48           0x74         116   
.text.wc_InitSha256     0x9d063fbc           0x74         116   
.text.DRV_ENCX24J600_Ru 0x9d064030           0x74         116   
.text.DRV_SPI_SYS_QUEUE 0x9d0640a4           0x74         116   
.text.SYS_FS_MEDIA_MANA 0x9d064118           0x74         116   
.text.MPFSGetSize       0x9d06418c           0x74         116   
.text.MPFSGetStartAddr  0x9d064200           0x74         116   
.text._TcpSocketSetSour 0x9d064274           0x74         116   
.text._TcpSwapHeader    0x9d0642e8           0x74         116   
.text._DHCPOptionProces 0x9d06435c           0x74         116   
.text._DHCPOptionProces 0x9d0643d0           0x74         116   
.text.TCPIP_SMTP_Client 0x9d064444           0x74         116   
.text.TCPIP_Helper_Stri 0x9d0644b8           0x74         116   
.text._TCPIPStackSignal 0x9d06452c           0x74         116   
.text._TCPIP_PKT_Socket 0x9d0645a0           0x74         116   
.text.strncpy           0x9d064614           0x74         116   
.text.wc_Arc4Process    0x9d064688           0x70         112   
.text.wc_ShaHash        0x9d0646f8           0x70         112   
.text.CommandQuit       0x9d064768           0x70         112   
.text.SYS_FS_FileTell   0x9d0647d8           0x70         112   
.text.SYS_FS_FileSize   0x9d064848           0x70         112   
.text._UDPClose         0x9d0648b8           0x70         112   
.text.TCPIP_UDP_SocketN 0x9d064928           0x70         112   
.text._ARPSetEntry      0x9d064998           0x70         112   
.text._ARPRemoveEntry   0x9d064a08           0x70         112   
.text._TCPIP_PKT_Packet 0x9d064a78           0x70         112   
.text.TCPIP_SNTP_Deinit 0x9d064ae8           0x70         112   
.text._TCPIP_HEAP_Delet 0x9d064b58           0x70         112   
.text.wolfSSL_new       0x9d064bc8           0x70         112   
.text.FreeDer           0x9d064c38           0x70         112   
.text.strncmp           0x9d064ca8           0x70         112   
.text.TCPIP_HTTP_Print_ 0x9d064d18           0x6c         108   
.text.TCPIP_HTTP_Print_ 0x9d064d84           0x6c         108   
.text.TCPIP_HTTP_Print_ 0x9d064df0           0x6c         108   
.text.TCPIP_HTTP_Print_ 0x9d064e5c           0x6c         108   
.text.TCPIP_HTTP_Print_ 0x9d064ec8           0x6c         108   
.text.wc_ecc_import_pri 0x9d064f34           0x6c         108   
.text.wc_InitRsaKey     0x9d064fa0           0x6c         108   
.text.wc_Sha256Hash     0x9d06500c           0x6c         108   
.text.TCPIP_TCP_Close   0x9d065078           0x6c         108   
.text._DHCPCleanup      0x9d0650e4           0x6c         108   
.text._DNSGetData       0x9d065150           0x6c         108   
.text.TCPIP_SMTP_UsageB 0x9d0651bc           0x6c         108   
.text.TCPIP_SMTP_UsageE 0x9d065228           0x6c         108   
.text.TCPIP_SMTP_IsPutR 0x9d065294           0x6c         108   
.text._TCPIP_AnnounceCl 0x9d065300           0x6c         108   
.text.TCPIP_ANNOUNCE_De 0x9d06536c           0x6c         108   
.text.DtlsPoolInit      0x9d0653d8           0x6c         108   
.text.DtlsMsgDelete     0x9d065444           0x6c         108   
.text.strncat           0x9d0654b0           0x6c         108   
.text.SYS_Tasks         0x9d06551c           0x68         104   
.text.wc_FreeRng        0x9d065584           0x68         104   
.text.fp_rshb           0x9d0655ec           0x68         104   
.text.DRV_ENCX24J600_SP 0x9d065654           0x68         104   
.text._DRV_SPI_SYS_QUEU 0x9d0656bc           0x68         104   
.text.NET_PRES_SocketIs 0x9d065724           0x68         104   
.text.Console_UART_Flus 0x9d06578c           0x68         104   
.text.SYS_RANDOM_Initia 0x9d0657f4           0x68         104   
.text.TCPIP_TCP_SignalH 0x9d06585c           0x68         104   
.text._UDPFreeTxResourc 0x9d0658c4           0x68         104   
.text.TCPIP_UDP_OpenCli 0x9d06592c           0x68         104   
.text.TCPIP_UDP_SignalH 0x9d065994           0x68         104   
.text.TCPIP_ARP_HashEnt 0x9d0659fc           0x68         104   
.text._DHCPSetTimeout   0x9d065a64           0x68         104   
.text.TCPIP_DNS_RemoveE 0x9d065acc           0x68         104   
.text.TCPIP_STACK_IsBca 0x9d065b34           0x68         104   
.text._TCPIPStackModule 0x9d065b9c           0x68         104   
.text.TCPIP_SNTP_UTCSec 0x9d065c04           0x68         104   
.text.dylen.part.0      0x9d065c6c           0x68         104   
.text._sprintf_cdnopuxX 0x9d065cd4           0x68         104   
.rodata                 0x9d065d3c           0x68         104  Read-only const 
.text._general_exceptio 0x9d065da4           0x64         100   
.text.TCPIP_HTTP_Print_ 0x9d065e08           0x64         100   
.text.TCPIP_HTTP_Print_ 0x9d065e6c           0x64         100   
.text.TCPIP_HTTP_Print_ 0x9d065ed0           0x64         100   
.text.TCPIP_HTTP_Print_ 0x9d065f34           0x64         100   
.text.TCPIP_HTTP_Print_ 0x9d065f98           0x64         100   
.text.fp_add_d          0x9d065ffc           0x64         100   
.rodata                 0x9d066060           0x64         100  Read-only const 
.text.DRV_ENCX24J600_Cl 0x9d0660c4           0x64         100   
.rodata                 0x9d066128           0x64         100  Read-only const 
.text.DRV_SST25VF016B_C 0x9d06618c           0x64         100   
.text.DRV_TMR_AlarmDisa 0x9d0661f0           0x64         100   
.text.DRV_TMR_Start     0x9d066254           0x64         100   
.text.SendCommandCharac 0x9d0662b8           0x64         100   
.text._TcpSocketKill    0x9d06631c           0x64         100   
.text.TCPIP_TCP_Connect 0x9d066380           0x64         100   
.text.TCPIP_TCP_Discard 0x9d0663e4           0x64         100   
.text.TCPIP_UDP_GetIsRe 0x9d066448           0x64         100   
.text.TCPIP_DHCP_Deinit 0x9d0664ac           0x64         100   
.text.TCPIP_DNS_ClientI 0x9d066510           0x64         100   
.text.ANNOUNCE_Notify   0x9d066574           0x64         100   
.text.TCPIP_STACK_Addre 0x9d0665d8           0x64         100   
.text.TCPIP_IPV4_Cleanu 0x9d06663c           0x64         100   
.text.wolfSSL_CertManag 0x9d0666a0           0x64         100   
.text.memmove           0x9d066704           0x64         100   
.text.NET_PRES_EncProvi 0x9d066768           0x60          96   
.text.NET_PRES_EncProvi 0x9d0667c8           0x60          96   
.text.wc_Md5Hash        0x9d066828           0x60          96   
.text.wc_RsaPrivateDecr 0x9d066888           0x60          96   
.text.wc_RsaSSL_VerifyI 0x9d0668e8           0x60          96   
.text.DRV_SPI_SYS_QUEUE 0x9d066948           0x60          96   
.text.DRV_SPI_SYS_QUEUE 0x9d0669a8           0x60          96   
.text.DRV_TMR_AlarmEnab 0x9d066a08           0x60          96   
.text.SYS_FS_MEDIA_MANA 0x9d066a68           0x60          96   
.text.SYS_FS_MEDIA_MANA 0x9d066ac8           0x60          96   
.text._DHCPOptionProces 0x9d066b28           0x60          96   
.text._DNSClientCleanup 0x9d066b88           0x60          96   
.text.TCPIP_OAHASH_Entr 0x9d066be8           0x60          96   
.rodata                 0x9d066c48           0x60          96  Read-only const 
.text.IPv4RegisterFilte 0x9d066ca8           0x60          96   
.text.TCPIP_DHCPS_Deini 0x9d066d08           0x60          96   
.text.CheckCurveId      0x9d066d68           0x60          96   
.text.sitofp            0x9d066dc8           0x60          96   
.text.NET_PRES_EncProvi 0x9d066e28           0x5c          92   
.text.TCPIP_HTTP_FileAu 0x9d066e84           0x5c          92   
.text.fp_mul            0x9d066ee0           0x5c          92   
.text.fp_montgomery_set 0x9d066f3c           0x5c          92   
.text.wc_Des3_SetIV     0x9d066f98           0x5c          92   
.text.DRV_ENCX24J600_SP 0x9d066ff4           0x5c          92   
.text.DRV_ENCX24J600_SP 0x9d067050           0x5c          92   
.text.DRV_ENCX24J600_Ru 0x9d0670ac           0x5c          92   
.text.DRV_ENCX24J600_Se 0x9d067108           0x5c          92   
.text._SendCmd          0x9d067164           0x5c          92   
.text.DRV_TMR_Open      0x9d0671c0           0x5c          92   
.text._DNS_NetIsValid   0x9d06721c           0x5c          92   
.text.fnv_32_hash       0x9d067278           0x5c          92   
.text.TCPIP_STACK_MACId 0x9d0672d4           0x5c          92   
.text.wolfSSL_write     0x9d067330           0x5c          92   
.text.vsnprintf         0x9d06738c           0x5c          92   
.text.SYS_CLK_Initializ 0x9d0673e8           0x58          88   
.text.GetMyVersion      0x9d067440           0x58          88   
.text.FreeAltNames      0x9d067498           0x58          88   
.text.FreeNameSubtrees  0x9d0674f0           0x58          88   
.text.DRV_ENCX24J600_St 0x9d067548           0x58          88   
.text.DRV_SPI_SYS_QUEUE 0x9d0675a0           0x58          88   
.text.DRV_SST25VF016B_B 0x9d0675f8           0x58          88   
.text.SendCommandMessag 0x9d067650           0x58          88   
.text.SYS_DEVCON_System 0x9d0676a8           0x58          88   
.text.SYS_FS_MEDIA_MANA 0x9d067700           0x58          88   
.text.SYS_INT_SourceDis 0x9d067758           0x58          88   
.text._TCPSocketTxFreeS 0x9d0677b0           0x58          88   
.text._TCP_PortIsAvaila 0x9d067808           0x58          88   
.text._DHCPOptionProces 0x9d067860           0x58          88   
.text._DHCPOptionProces 0x9d0678b8           0x58          88   
.text._DHCPOptionProces 0x9d067910           0x58          88   
.text.TCPIP_HTTP_Deinit 0x9d067968           0x58          88   
.text.TCPIP_HTTP_PostNa 0x9d0679c0           0x58          88   
.text.TCPIP_Helper_Prot 0x9d067a18           0x58          88   
.text.TCPIP_STACK_Initi 0x9d067a70           0x58          88   
.text.TCPIP_STACK_NetBy 0x9d067ac8           0x58          88   
.text.TCPIP_Notificatio 0x9d067b20           0x58          88   
.text.main_entry        0x9d067b78           0x54          84   
.text.TCPIP_STACK_Init  0x9d067bcc           0x54          84   
.text.TCPIP_HTTP_UserAu 0x9d067c20           0x54          84   
.text.fp_cmp_d          0x9d067c74           0x54          84   
.text.SYS_TMR_ObjectDel 0x9d067cc8           0x54          84   
.text._TCPIP_Helper_Sec 0x9d067d1c           0x54          84   
.text.TCPIP_STACK_Addre 0x9d067d70           0x54          84   
.text.ShrinkOutputBuffe 0x9d067dc4           0x54          84   
.text.wolfSSL_CTX_set_v 0x9d067e18           0x54          84   
.text.wolfSSLv23_server 0x9d067e6c           0x54          84   
.text.NET_PRES_EncProvi 0x9d067ec0           0x50          80   
.text.NET_PRES_EncProvi 0x9d067f10           0x50          80   
.text.NET_PRES_EncProvi 0x9d067f60           0x50          80   
.text.NET_PRES_EncProvi 0x9d067fb0           0x50          80   
.text.wc_InitSha        0x9d068000           0x50          80   
.text.CheckCurve        0x9d068050           0x50          80   
.text.wc_Md5RestorePos  0x9d0680a0           0x50          80   
.text.MPFSGetPosition   0x9d0680f0           0x50          80   
.text._TCPSetSourceAddr 0x9d068140           0x50          80   
.text._TCPSetHalfFlushF 0x9d068190           0x50          80   
.text._TcpFlush         0x9d0681e0           0x50          80   
.rodata                 0x9d068230           0x50          80  Read-only const 
.text.TCPIP_TCP_Flush   0x9d068280           0x50          80   
.text.TCPIP_TCP_FifoRxF 0x9d0682d0           0x50          80   
.text.TCPIP_UDP_Discard 0x9d068320           0x50          80   
.text._DHCPOptionWriteP 0x9d068370           0x50          80   
.text._DHCPOptionProces 0x9d0683c0           0x50          80   
.text.TCPIP_DNS_OAHASH_ 0x9d068410           0x50          80   
.text.TCPIP_NBNS_Deinit 0x9d068460           0x50          80   
.text.TCPIP_SMTP_Client 0x9d0684b0           0x50          80   
.text.TCPIP_STACK_NetMA 0x9d068500           0x50          80   
.text.TCPIP_STACK_NetMA 0x9d068550           0x50          80   
.text._TCPIPStackModule 0x9d0685a0           0x50          80   
.text.TCPIP_Notificatio 0x9d0685f0           0x50          80   
.text.wolfSSL_get_error 0x9d068640           0x50          80   
.text.wolfSSLv23_client 0x9d068690           0x50          80   
.text.sbrk              0x9d0686e0           0x50          80   
.text.SYS_CLK_Secondary 0x9d068730           0x4c          76   
.text.TCPIP_HTTP_Print_ 0x9d06877c           0x4c          76   
.text.TCPIP_HTTP_Print_ 0x9d0687c8           0x4c          76   
.text.TCPIP_HTTP_Print_ 0x9d068814           0x4c          76   
.text._DRV_ENCX24J600_V 0x9d068860           0x4c          76   
.text.DRV_ENCX24J600_Pa 0x9d0688ac           0x4c          76   
.text.SYS_CONSOLE_Tasks 0x9d0688f8           0x4c          76   
.text.SYS_CONSOLE_Flush 0x9d068944           0x4c          76   
.text.UARTDeviceEventHa 0x9d068990           0x4c          76   
.text.SYS_TMR_TickCount 0x9d0689dc           0x4c          76   
.text.TCPIP_TCP_SignalH 0x9d068a28           0x4c          76   
.text.TCPIP_UDP_SignalH 0x9d068a74           0x4c          76   
.text._ARPRemoveCacheEn 0x9d068ac0           0x4c          76   
.text.TCPIP_NBNS_Cleanu 0x9d068b0c           0x4c          76   
.text.TCPIP_STACK_NetAd 0x9d068b58           0x4c          76   
.text.TCPIP_STACK_MACId 0x9d068ba4           0x4c          76   
.text.TCPIP_STACK_DNSSe 0x9d068bf0           0x4c          76   
.text._TCPIPStackSignal 0x9d068c3c           0x4c          76   
.text.TCPIP_Notificatio 0x9d068c88           0x4c          76   
.text.TCPIP_SNTP_Cleanu 0x9d068cd4           0x4c          76   
.text._TCPIP_HEAP_Callo 0x9d068d20           0x4c          76   
.text.TCPIP_DDNS_Servic 0x9d068d6c           0x4c          76   
.text.FreeSSL           0x9d068db8           0x4c          76   
.text.wolfSSL_negotiate 0x9d068e04           0x4c          76   
.text                   0x9d068e50           0x4c          76  App's exec code 
.text.calloc            0x9d068e9c           0x4c          76   
.rodata                 0x9d068ee8           0x4c          76  Read-only const 
.text.Hash_DRBG_Uninsta 0x9d068f34           0x48          72   
.text.fp_count_bits     0x9d068f7c           0x48          72   
.text.DRV_TMR_Close     0x9d068fc4           0x48          72   
.text.SYS_DEVCON_System 0x9d06900c           0x48          72   
.text.SYS_RESET_Softwar 0x9d069054           0x48          72   
.text.SYS_FS_FileStat_W 0x9d06909c           0x48          72   
.text.strupr            0x9d0690e4           0x48          72   
.text.TCPIP_TCP_WasRese 0x9d06912c           0x48          72   
.text.TCPIP_TCP_StringP 0x9d069174           0x48          72   
.text._UDPIsAvailablePo 0x9d0691bc           0x48          72   
.text.TCPIP_UDP_TxPoint 0x9d069204           0x48          72   
.text.TCPIP_ARP_Handler 0x9d06924c           0x48          72   
.text._DHCPOptionWriteM 0x9d069294           0x48          72   
.text.TCPIP_HEAP_Create 0x9d0692dc           0x48          72   
.text.TCPIP_Helper_Sing 0x9d069324           0x48          72   
.text.TCPIP_STACK_IPAdd 0x9d06936c           0x48          72   
.text.TCPIP_STACK_Netwo 0x9d0693b4           0x48          72   
.text.TCPIP_STACK_NetAd 0x9d0693fc           0x48          72   
.text.DtlsPoolDelete    0x9d069444           0x48          72   
.text.wolfSSL_GetMacSec 0x9d06948c           0x48          72   
.text.wolfDTLSv1_server 0x9d0694d4           0x48          72   
.text._bootstrap_except 0x9d06951c           0x48          72   
.vector_default         0x9d069564           0x48          72   
.text.TCPIP_HTTP_Print_ 0x9d0695ac           0x44          68   
.text.TCPIP_HTTP_Print_ 0x9d0695f0           0x44          68   
.text.CRYPT_MD5_DataAdd 0x9d069634           0x44          68   
.text.CRYPT_MD5_Finaliz 0x9d069678           0x44          68   
.text.wc_ecc_del_point  0x9d0696bc           0x44          68   
.text.wc_ecc_free       0x9d069700           0x44          68   
.text.fp_set            0x9d069744           0x44          68   
.text.fp_reverse        0x9d069788           0x44          68   
.text.MakeSigner        0x9d0697cc           0x44          68   
.text.DRV_ENCX24J600_SP 0x9d069810           0x44          68   
.text.DRV_ENCX24J600_SP 0x9d069854           0x44          68   
.text.DRV_ENCX24J600_Co 0x9d069898           0x44          68   
.text.IsCommandReady    0x9d0698dc           0x44          68   
.text.MPFS_EOF          0x9d069920           0x44          68   
.rodata                 0x9d069964           0x44          68  Read-only const 
.text._SwapARPPacket    0x9d0699a8           0x44          68   
.text.TCPIP_DHCP_Handle 0x9d0699ec           0x44          68   
.text.TCPIP_DNS_ClientD 0x9d069a30           0x44          68   
.text.TCPIP_Helper_Prot 0x9d069a74           0x44          68   
.text._TCPIP_STACK_Tick 0x9d069ab8           0x44          68   
.text.TCPIP_STACK_NetMa 0x9d069afc           0x44          68   
.text.TCPIP_STACK_NetIs 0x9d069b40           0x44          68   
.text.TCPIP_STACK_NetIs 0x9d069b84           0x44          68   
.text.TCPIP_STACK_NetAd 0x9d069bc8           0x44          68   
.text.Ipv4DeRegisterFil 0x9d069c0c           0x44          68   
.text.VerifyClientSuite 0x9d069c50           0x44          68   
.text.wolfDTLSv1_client 0x9d069c94           0x44          68   
.text.wolfSSL_GetHmacTy 0x9d069cd8           0x44          68   
.rodata                 0x9d069d1c           0x44          68  Read-only const 
.text                   0x9d069d60           0x44          68  App's exec code 
.text.SYS_PORTS_Initial 0x9d069da4           0x40          64   
.text.TCPIP_HTTP_Print_ 0x9d069de4           0x40          64   
.text.wc_InitMd5        0x9d069e24           0x40          64   
.text.fp_sqr            0x9d069e64           0x40          64   
.text.fp_leading_bit    0x9d069ea4           0x40          64   
.text.DRV_ENCX24J600_SP 0x9d069ee4           0x40          64   
.text.DRV_ENCX24J600_Pa 0x9d069f24           0x40          64   
.text.DRV_SPI_SYS_QUEUE 0x9d069f64           0x40          64   
.text.DRV_SST25VF016B_M 0x9d069fa4           0x40          64   
.text.SYS_FS_FileOpen_W 0x9d069fe4           0x40          64   
.text.TCPIP_TCP_IsConne 0x9d06a024           0x40          64   
.text.TCPIP_TCP_PutIsRe 0x9d06a064           0x40          64   
.text.TCPIP_TCP_Find    0x9d06a0a4           0x40          64   
.text.TCPIP_Commands_De 0x9d06a0e4           0x40          64   
.text.TCPIP_Helper_Prot 0x9d06a124           0x40          64   
.text.TCPIP_ICMP_Deinit 0x9d06a164           0x40          64   
.text.DtlsMsgListDelete 0x9d06a1a4           0x40          64   
.text.wolfSSL_set_fd    0x9d06a1e4           0x40          64   
.text.wolfSSL_CertManag 0x9d06a224           0x40          64   
.text.wc_ShaRestorePos  0x9d06a264           0x3c          60   
.text.DRV_ENCX24J600_SP 0x9d06a2a0           0x3c          60   
.text.DRV_ENCX24J600_SP 0x9d06a2dc           0x3c          60   
.text.DRV_ENCX24J600_Ad 0x9d06a318           0x3c          60   
.text.DRV_USART_ClientS 0x9d06a354           0x3c          60   
.text.Console_UART_Read 0x9d06a390           0x3c          60   
.text.SYS_DEBUG_Message 0x9d06a3cc           0x3c          60   
.text.SYS_FS_MEDIA_MANA 0x9d06a408           0x3c          60   
.text._TCPIsGetReady    0x9d06a444           0x3c          60   
.text.TCPIP_TCP_ClientO 0x9d06a480           0x3c          60   
.text.TCPIP_TCP_Disconn 0x9d06a4bc           0x3c          60   
.text._UDPTxPktValid    0x9d06a4f8           0x3c          60   
.text._UDPFreeRxQueue   0x9d06a534           0x3c          60   
.text._ARPTxAckFnc      0x9d06a570           0x3c          60   
.text.TCPIP_ARP_HashKey 0x9d06a5ac           0x3c          60   
.text.TCPIP_DNS_IsResol 0x9d06a5e8           0x3c          60   
.text.TCPIP_OAHASH_Init 0x9d06a624           0x3c          60   
.text.TCPIP_Helper_Sing 0x9d06a660           0x3c          60   
.text._TCPIPSignalEntry 0x9d06a69c           0x3c          60   
.text._TCPIPStackSetCon 0x9d06a6d8           0x3c          60   
.text.TCPIP_STACK_Deini 0x9d06a714           0x3c          60   
.text._DHCPSUpdateEntry 0x9d06a750           0x3c          60   
.text.TCPIP_DHCPS_MACHa 0x9d06a78c           0x3c          60   
.text.MakeMasterSecret  0x9d06a7c8           0x3c          60   
.text.SYS_PORTS_PinSet  0x9d06a804           0x38          56   
.text.SYS_PORTS_PinClea 0x9d06a83c           0x38          56   
.text.BSP_LEDStateSet   0x9d06a874           0x38          56   
.text.BSP_SwitchStateGe 0x9d06a8ac           0x38          56   
.text.wolfSSL_Malloc    0x9d06a8e4           0x38          56   
.text.wolfSSL_Free      0x9d06a91c           0x38          56   
.text.fp_unsigned_bin_s 0x9d06a954           0x38          56   
.text.DRV_ENCX24J600_Cl 0x9d06a98c           0x38          56   
.rodata                 0x9d06a9c4           0x38          56  Read-only const 
.text.DRV_SST25VF016B_A 0x9d06a9fc           0x38          56   
.text.CommandReset      0x9d06aa34           0x38          56   
.text.SYS_FS_Unmount_Wr 0x9d06aa6c           0x38          56   
.text._TcpSocketChk     0x9d06aaa4           0x38          56   
.text._UDPSocketDcpt    0x9d06aadc           0x38          56   
.text._ARPAllocateTxPac 0x9d06ab14           0x38          56   
.text.TCPIP_DHCP_Enable 0x9d06ab4c           0x38          56   
.text.TCPIP_DHCP_Renew  0x9d06ab84           0x38          56   
.text.TCPIP_DHCP_Reques 0x9d06abbc           0x38          56   
.text.TCPIP_STACK_Addre 0x9d06abf4           0x38          56   
.text.IsAtLeastTLSv1_2  0x9d06ac2c           0x38          56   
.rodata                 0x9d06ac64           0x38          56  Read-only const 
.text.NET_PRES_EncProvi 0x9d06ac9c           0x34          52   
.text.NET_PRES_EncProvi 0x9d06acd0           0x34          52   
.text.NET_PRES_EncProvi 0x9d06ad04           0x34          52   
.text.CRYPT_MD5_Initial 0x9d06ad38           0x34          52   
.text.DRV_ENCX24J600_SP 0x9d06ad6c           0x34          52   
.text.DRV_ENCX24J600_SP 0x9d06ada0           0x34          52   
.text.DRV_ENCX24J600_SP 0x9d06add4           0x34          52   
.text.DRV_ENCX24J600_SP 0x9d06ae08           0x34          52   
.text.DRV_ENCX24J600_SP 0x9d06ae3c           0x34          52   
.text.DRV_ENCX24J600_SP 0x9d06ae70           0x34          52   
.text.DRV_ENCX24J600_SP 0x9d06aea4           0x34          52   
.text.DRV_ENCX24J600_SP 0x9d06aed8           0x34          52   
.text.DRV_ENCX24J600_SP 0x9d06af0c           0x34          52   
.text.DRV_ENCX24J600_SP 0x9d06af40           0x34          52   
.text.DRV_ENCX24J600_SP 0x9d06af74           0x34          52   
.text.DRV_ENCX24J600_Ta 0x9d06afa8           0x34          52   
.text.DRV_ENCX24J600_Ev 0x9d06afdc           0x34          52   
.text.DRV_SPI_BufferAdd 0x9d06b010           0x34          52   
.text.SYS_CMDIO_GET_HAN 0x9d06b044           0x34          52   
.text.MPFS_Unmount      0x9d06b078           0x34          52   
.text.MPFSClose         0x9d06b0ac           0x34          52   
.text.TCPIP_TCP_GetIsRe 0x9d06b0e0           0x34          52   
.text._UDPUpdatePacketL 0x9d06b114           0x34          52   
.text._SMTPSocketRxSign 0x9d06b148           0x34          52   
.text.TCPIP_STACK_Index 0x9d06b17c           0x34          52   
.text.TCPIP_STACK_NetAd 0x9d06b1b0           0x34          52   
.text.TCPIP_STACK_DNSSe 0x9d06b1e4           0x34          52   
.text.TCPIP_STACK_NetAd 0x9d06b218           0x34          52   
.text._TCPIPStackHandle 0x9d06b24c           0x34          52   
.text.TCPIP_STACK_NetIs 0x9d06b280           0x34          52   
.text.TCPIP_DHCPS_GetDa 0x9d06b2b4           0x34          52   
.text.DtlsMsgFind       0x9d06b2e8           0x34          52   
.text.LowResTimer       0x9d06b31c           0x34          52   
.text.NET_PRES_CertStor 0x9d06b350           0x30          48   
.text.wc_ecc_is_valid_i 0x9d06b380           0x30          48   
.text.mp_init           0x9d06b3b0           0x30          48   
.text.DRV_ENCX24J600_Rx 0x9d06b3e0           0x30          48   
.text.popQueue          0x9d06b410           0x30          48   
.text.SYS_DEBUG_Initial 0x9d06b440           0x30          48   
.rodata                 0x9d06b470           0x30          48  Read-only const 
.text._DHCPSocketRxSign 0x9d06b4a0           0x30          48   
.text.TCPIP_DHCP_IsActi 0x9d06b4d0           0x30          48   
.text._DNSSocketRxSigna 0x9d06b500           0x30          48   
.text._HTTPSocketRxSign 0x9d06b530           0x30          48   
.text.NBNSSocketRxSigna 0x9d06b560           0x30          48   
.text.TCPIP_SMTP_String 0x9d06b590           0x30          48   
.text._TCPIP_AnnounceSo 0x9d06b5c0           0x30          48   
.text.TCPIP_OAHASH_Entr 0x9d06b5f0           0x30          48   
.text.TCPIP_Helper_Sing 0x9d06b620           0x30          48   
.text.TCPIP_Helper_TCPS 0x9d06b650           0x30          48   
.text.TCPIP_Helper_UDPS 0x9d06b680           0x30          48   
.text.TCPIP_STACK_NetAd 0x9d06b6b0           0x30          48   
.text.TCPIP_STACK_NetAd 0x9d06b6e0           0x30          48   
.text.TCPIP_STACK_NetMa 0x9d06b710           0x30          48   
.text.TCPIP_STACK_Netwo 0x9d06b740           0x30          48   
.text._TCPIPStackModule 0x9d06b770           0x30          48   
.rodata                 0x9d06b7a0           0x30          48  Read-only const 
.text.TCPIP_SNTP_Socket 0x9d06b7d0           0x30          48   
.text._TCPIP_HEAP_FreeS 0x9d06b800           0x30          48   
.text.TCPIP_ICMP_Cleanu 0x9d06b830           0x30          48   
.text.TCPIP_DHCPSSocket 0x9d06b860           0x30          48   
.text._DDNSSocketRxSign 0x9d06b890           0x30          48   
.text.TCPIP_DDNS_Update 0x9d06b8c0           0x30          48   
.text.InitCipherSpecs   0x9d06b8f0           0x30          48   
.text.free              0x9d06b920           0x30          48   
.text.NET_PRES_EncProvi 0x9d06b950           0x2c          44   
.text.TCPIP_HTTP_Print_ 0x9d06b97c           0x2c          44   
.text.TCPIP_HTTP_Print_ 0x9d06b9a8           0x2c          44   
.text.TCPIP_HTTP_Print_ 0x9d06b9d4           0x2c          44   
.text.TCPIP_HTTP_Print_ 0x9d06ba00           0x2c          44   
.text.TCPIP_HTTP_Print_ 0x9d06ba2c           0x2c          44   
.text.DRV_USART_BufferE 0x9d06ba58           0x2c          44   
.text.MPFS_Read         0x9d06ba84           0x2c          44   
.text.TCPIP_OAHASH_Entr 0x9d06bab0           0x2c          44   
.text.TCPIP_STACK_NetDe 0x9d06badc           0x2c          44   
.text.TCPIP_STACK_NetNa 0x9d06bb08           0x2c          44   
.text.TCPIP_STACK_NetAd 0x9d06bb34           0x2c          44   
.text.TCPIP_Notificatio 0x9d06bb60           0x2c          44   
.text._DHCPSRemoveCache 0x9d06bb8c           0x2c          44   
.text.InitCiphers       0x9d06bbb8           0x2c          44   
.text.DtlsPoolTimeout   0x9d06bbe4           0x2c          44   
.text.wolfSSL_CTX_use_P 0x9d06bc10           0x2c          44   
.text.strchr            0x9d06bc3c           0x2c          44   
.text._stub_sbd_memlayo 0x9d06bc68           0x2c          44   
.text.TCPIP_HTTP_Print_ 0x9d06bc94           0x28          40   
.text.wc_ecc_sig_size   0x9d06bcbc           0x28          40   
.text.SetSequence       0x9d06bce4           0x28          40   
.text.DRV_ENCX24J600_Rx 0x9d06bd0c           0x28          40   
.text.DRV_ENCX24J600_Li 0x9d06bd34           0x28          40   
.text.DRV_ENCX24J600_Ev 0x9d06bd5c           0x28          40   
.text._DRV_SPI_RootDriv 0x9d06bd84           0x28          40   
.text._DRV_SST25VF016B_ 0x9d06bdac           0x28          40   
.text._DRV_USART_Driver 0x9d06bdd4           0x28          40   
.text.Console_UART_Regi 0x9d06bdfc           0x28          40   
.text.SYS_TMR_TickCount 0x9d06be24           0x28          40   
.text.TCPIP_TCP_Put     0x9d06be4c           0x28          40   
.text.TCPIP_TCP_SocketN 0x9d06be74           0x28          40   
.text.TCPIP_UDP_Put     0x9d06be9c           0x28          40   
.text.TCPIP_UDP_SocketN 0x9d06bec4           0x28          40   
.text.TCPIP_STACK_NetAd 0x9d06beec           0x28          40   
.text.TCPIP_STACK_NetAd 0x9d06bf14           0x28          40   
.text.TCPIP_STACK_NetAd 0x9d06bf3c           0x28          40   
.text.TCPIP_STACK_NetMA 0x9d06bf64           0x28          40   
.text._TCPIPStackSignal 0x9d06bf8c           0x28          40   
.text._TCPIP_HEAP_Size  0x9d06bfb4           0x28          40   
.text._TCPIP_HEAP_LastE 0x9d06bfdc           0x28          40   
.text.TCPIP_DHCPS_HashM 0x9d06c004           0x28          40   
.text.wolfSSL_CTX_free  0x9d06c02c           0x28          40   
.text.wolfSSL_free      0x9d06c054           0x28          40   
.text.wolfSSL_CTX_use_c 0x9d06c07c           0x28          40   
.text.isinfl            0x9d06c0a4           0x28          40   
.text.DRV_SPI_BufferAdd 0x9d06c0cc           0x24          36   
.text.DRV_SPI_BufferAdd 0x9d06c0f0           0x24          36   
.text.SYS_TMR_TickCount 0x9d06c114           0x24          36   
.text.SYS_TMR_SystemCou 0x9d06c138           0x24          36   
.text._TCP_TxPktValid   0x9d06c15c           0x24          36   
.text._DHCPOptionWriteE 0x9d06c180           0x24          36   
.text._TCPIPSignalEntry 0x9d06c1a4           0x24          36   
.text.TCPIP_DHCPS_DataC 0x9d06c1c8           0x24          36   
.text.TCPIP_DHCPS_HashM 0x9d06c1ec           0x24          36   
.text.TCPIP_DHCPS_IsEna 0x9d06c210           0x24          36   
.text.tolower           0x9d06c234           0x24          36   
.text.toupper           0x9d06c258           0x24          36   
.text.main              0x9d06c27c           0x20          32   
.rodata                 0x9d06c29c           0x20          32  Read-only const 
.text.BSP_LEDStateGet   0x9d06c2bc           0x20          32   
.text.mp_add            0x9d06c2dc           0x20          32   
.text.mp_sub            0x9d06c2fc           0x20          32   
.text.mp_mul            0x9d06c31c           0x20          32   
.text.mp_to_unsigned_bi 0x9d06c33c           0x20          32   
.text.mp_read_unsigned_ 0x9d06c35c           0x20          32   
.text.mp_montgomery_cal 0x9d06c37c           0x20          32   
.text.mp_sqr            0x9d06c39c           0x20          32   
.text.mp_montgomery_red 0x9d06c3bc           0x20          32   
.text._DRV_ENCX24J600_V 0x9d06c3dc           0x20          32   
.text.DRV_SPI_Tasks     0x9d06c3fc           0x20          32   
.text.SYS_CMD_MESSAGE   0x9d06c41c           0x20          32   
.text.MPFS_Close        0x9d06c43c           0x20          32   
.text.TCPIP_TCP_Get     0x9d06c45c           0x20          32   
.text.TCPIP_UDP_ServerO 0x9d06c47c           0x20          32   
.text.TCPIP_UDP_ClientO 0x9d06c49c           0x20          32   
.text.TCPIP_UDP_IsConne 0x9d06c4bc           0x20          32   
.text.TCPIP_UDP_Get     0x9d06c4dc           0x20          32   
.text.TCPIP_DNS_OAHASH_ 0x9d06c4fc           0x20          32   
.text.TCPIP_DNS_GetIPv4 0x9d06c51c           0x20          32   
.text.TCPIP_DNS_GetIPv6 0x9d06c53c           0x20          32   
.text.TCPIP_DNS_Enable  0x9d06c55c           0x20          32   
.text.TCPIP_HEAP_Malloc 0x9d06c57c           0x20          32   
.text.TCPIP_HEAP_Calloc 0x9d06c59c           0x20          32   
.text.TCPIP_HEAP_Free   0x9d06c5bc           0x20          32   
.text.TCPIP_STACK_Statu 0x9d06c5dc           0x20          32   
.text.TCPIP_STACK_NetIs 0x9d06c5fc           0x20          32   
.text.TCPIP_STACK_Addre 0x9d06c61c           0x20          32   
.text.TCPIP_STACK_HeapH 0x9d06c63c           0x20          32   
.rodata                 0x9d06c65c           0x20          32  Read-only const 
.text._ICMPAckPacket    0x9d06c67c           0x20          32   
.text.IsTLS             0x9d06c69c           0x20          32   
.text.InitSSL_Method    0x9d06c6bc           0x20          32   
.text.NET_PRES_CertStor 0x9d06c6dc           0x1c          28   
.text.BSP_LEDToggle     0x9d06c6f8           0x1c          28   
.text.wc_ecc_size       0x9d06c714           0x1c          28   
.text.mp_clear          0x9d06c730           0x1c          28   
.text.mp_mulmod         0x9d06c74c           0x1c          28   
.text.mp_mod            0x9d06c768           0x1c          28   
.text.mp_invmod         0x9d06c784           0x1c          28   
.text.mp_exptmod        0x9d06c7a0           0x1c          28   
.text.mp_cmp            0x9d06c7bc           0x1c          28   
.text.mp_cmp_d          0x9d06c7d8           0x1c          28   
.text.mp_unsigned_bin_s 0x9d06c7f4           0x1c          28   
.text.mp_count_bits     0x9d06c810           0x1c          28   
.text.mp_leading_bit    0x9d06c82c           0x1c          28   
.text.mp_rshb           0x9d06c848           0x1c          28   
.text.mp_set            0x9d06c864           0x1c          28   
.text.mp_montgomery_set 0x9d06c880           0x1c          28   
.text.wc_RsaEncryptSize 0x9d06c89c           0x1c          28   
.rodata                 0x9d06c8b8           0x1c          28  Read-only const 
.text.SYS_DEVCON_JTAGDi 0x9d06c8d4           0x1c          28   
.text.SYS_FS_Tasks      0x9d06c8f0           0x1c          28   
.text.MPFS_GetSize      0x9d06c90c           0x1c          28   
.text.MPFS_GetPosition  0x9d06c928           0x1c          28   
.text.SYS_RANDOM_Pseudo 0x9d06c944           0x1c          28   
.text.SYS_TMR_ModuleSta 0x9d06c960           0x1c          28   
.text.SYS_TMR_CallbackS 0x9d06c97c           0x1c          28   
.text.SYS_TMR_CallbackP 0x9d06c998           0x1c          28   
.text.btohexa_high      0x9d06c9b4           0x1c          28   
.text.btohexa_low       0x9d06c9d0           0x1c          28   
.text.TCPIP_UDP_TxPutIs 0x9d06c9ec           0x1c          28   
.text.TCPIP_DNS_Resolve 0x9d06ca08           0x1c          28   
.text.TCPIP_DNS_IsNameR 0x9d06ca24           0x1c          28   
.text.TCPIP_SMTP_Flush  0x9d06ca40           0x1c          28   
.text._Command_ZcllOnOf 0x9d06ca5c           0x1c          28   
.text._Command_DHCPSOnO 0x9d06ca78           0x1c          28   
.text.TCPIP_Helper_Chec 0x9d06ca94           0x1c          28   
.text.TCPIP_Notificatio 0x9d06cab0           0x1c          28   
.text.TCPIP_DHCPS_Enabl 0x9d06cacc           0x1c          28   
.text.wolfSSL_peek      0x9d06cae8           0x1c          28   
.text.wolfSSL_read      0x9d06cb04           0x1c          28   
.text.srand             0x9d06cb20           0x1c          28   
.text.DRV_ENCX24J600_Tx 0x9d06cb3c           0x18          24   
.text.DRV_ENCX24J600_Ch 0x9d06cb54           0x18          24   
.text.DRV_ENCX24J600_Ch 0x9d06cb6c           0x18          24   
.text.SYS_INT_Initializ 0x9d06cb84           0x18          24   
.text.TCPIP_ARP_HashKey 0x9d06cb9c           0x18          24   
.text.TCPIP_STACK_NetIn 0x9d06cbb4           0x18          24   
.text.TCPIP_STACK_MACOb 0x9d06cbcc           0x18          24   
.text.TCPIP_STACK_NetIx 0x9d06cbe4           0x18          24   
.text.TCPIP_STACK_Gatew 0x9d06cbfc           0x18          24   
.text.TCPIP_STACK_Prima 0x9d06cc14           0x18          24   
.text.TCPIP_STACK_Secon 0x9d06cc2c           0x18          24   
.text.c32to24           0x9d06cc44           0x18          24   
.text.MakeDTLSv1        0x9d06cc5c           0x18          24   
.text                   0x9d06cc74           0x18          24  App's exec code 
.text.SYS_DEVCON_Initia 0x9d06cc8c           0x14          20   
.text.TCPIP_SMTP_PutIsD 0x9d06cca0           0x14          20   
.text.TCPIP_ARP_HashKey 0x9d06ccb4           0x10          16   
.text.TCPIP_HTTP_Curren 0x9d06ccc4           0x10          16   
.text.TCPIP_HTTP_Curren 0x9d06ccd4           0x10          16   
.text.TCPIP_Helper_Sing 0x9d06cce4           0x10          16   
.rodata                 0x9d06ccf4           0x10          16  Read-only const 
.text.NET_PRES_EncProvi 0x9d06cd04            0xc          12   
.text.NET_PRES_EncProvi 0x9d06cd10            0xc          12   
.text.NET_PRES_EncProvi 0x9d06cd1c            0xc          12   
.text.NET_PRES_EncProvi 0x9d06cd28            0xc          12   
.text.SYS_CLK_SystemFre 0x9d06cd34            0xc          12   
.text.SYS_CLK_Periphera 0x9d06cd40            0xc          12   
.text.mp_iszero         0x9d06cd4c            0xc          12   
.text.DRV_ENCX24J600_De 0x9d06cd58            0xc          12   
.text.DRV_ENCX24J600_Re 0x9d06cd64            0xc          12   
.text.DRV_ENCX24J600_Ch 0x9d06cd70            0xc          12   
.text.DRV_SPI_SYS_QUEUE 0x9d06cd7c            0xc          12   
.text.TCPIP_SMTP_IsBusy 0x9d06cd88            0xc          12   
.text.TCPIP_STACK_Numbe 0x9d06cd94            0xc          12   
.text.TCPIP_STACK_NetBI 0x9d06cda0            0xc          12   
.text._TCPIPStackAddres 0x9d06cdac            0xc          12   
.text.APP_Initialize    0x9d06cdb8            0x8           8   
.text.TCPIP_HTTP_Print_ 0x9d06cdc0            0x8           8   
.text.TCPIP_HTTP_Print_ 0x9d06cdc8            0x8           8   
.text.wolfCrypt_Init    0x9d06cdd0            0x8           8   
.text.InitMutex         0x9d06cdd8            0x8           8   
.text.FreeMutex         0x9d06cde0            0x8           8   
.text.LockMutex         0x9d06cde8            0x8           8   
.text.UnLockMutex       0x9d06cdf0            0x8           8   
.text.wc_ecc_init       0x9d06cdf8            0x8           8   
.text.DRV_ENCX24J600_SP 0x9d06ce00            0x8           8   
.text.DRV_ENCX24J600_Cl 0x9d06ce08            0x8           8   
.text.DRV_ENCX24J600_Cl 0x9d06ce10            0x8           8   
.text.DRV_ENCX24J600_In 0x9d06ce18            0x8           8   
.text.DRV_ENCX24J600_Co 0x9d06ce20            0x8           8   
.text.DRV_ENCX24J600_De 0x9d06ce28            0x8           8   
.text.DRV_ENCX24J600_Re 0x9d06ce30            0x8           8   
.text.DRV_ENCX24J600_Tx 0x9d06ce38            0x8           8   
.text.DRV_ENCX24J600_Rx 0x9d06ce40            0x8           8   
.text.DRV_ENCX24J600_Ch 0x9d06ce48            0x8           8   
.text.DRV_ENCX24J600_Ch 0x9d06ce50            0x8           8   
.text.DRV_ENCX24J600_Ch 0x9d06ce58            0x8           8   
.text.DRV_ENCX24J600_Re 0x9d06ce60            0x8           8   
.text.DRV_ENCX24J600_Rx 0x9d06ce68            0x8           8   
.text.DRV_ENCX24J600_Po 0x9d06ce70            0x8           8   
.text.DRV_ENCX24J600_Pr 0x9d06ce78            0x8           8   
.text.DRV_ENCX24J600_Re 0x9d06ce80            0x8           8   
.text.DRV_ENCX24J600_Co 0x9d06ce88            0x8           8   
.text.DRV_SPI_BufferSta 0x9d06ce90            0x8           8   
.text.DRV_SPI_SYS_QUEUE 0x9d06ce98            0x8           8   
.text.SPIFlashBeginWrit 0x9d06cea0            0x8           8   
.text.GetCommandCharact 0x9d06cea8            0x8           8   
.text.SYS_DEBUG_ErrorLe 0x9d06ceb0            0x8           8   
.text.SYS_DEVCON_Tasks  0x9d06ceb8            0x8           8   
.rodata                 0x9d06cec0            0x8           8  Read-only const 
.text._DHCPOptionProces 0x9d06cec8            0x8           8   
.text.TCPIP_HTTP_Curren 0x9d06ced0            0x8           8   
.text.TCPIP_HTTP_Curren 0x9d06ced8            0x8           8   
.text.TCPIP_HTTP_Curren 0x9d06cee0            0x8           8   
.text.TCPIP_HTTP_Curren 0x9d06cee8            0x8           8   
.text.TCPIP_HTTP_Curren 0x9d06cef0            0x8           8   
.text.TCPIP_HTTP_Curren 0x9d06cef8            0x8           8   
.text.TCPIP_HTTP_Curren 0x9d06cf00            0x8           8   
.text.TCPIP_HTTP_Curren 0x9d06cf08            0x8           8   
.text.TCPIP_HTTP_Curren 0x9d06cf10            0x8           8   
.text._TCPIP_HEAP_Buffe 0x9d06cf18            0x8           8   
.text.TCPIP_STACK_NetDe 0x9d06cf20            0x8           8   
.text.TCPIP_PKT_Deiniti 0x9d06cf28            0x8           8   
.text.TCPIP_DDNS_LastSt 0x9d06cf30            0x8           8   
.text.wc_InitDhKey      0x9d06cf38            0x8           8   
.text.wc_FreeDhKey      0x9d06cf40            0x8           8   
.text.SendCertificateSt 0x9d06cf48            0x8           8   
.text.wolfSSL_SetIORecv 0x9d06cf50            0x8           8   
.text.wolfSSL_SetIOSend 0x9d06cf58            0x8           8   
.text.wolfSSL_pending   0x9d06cf60            0x8           8   
.text._on_reset         0x9d06cf68            0x8           8   
.text._on_bootstrap     0x9d06cf70            0x8           8   
      Total kseg0_program_mem used  :     0x6cf78      446328  85.1% of 0x80000

kseg0 Boot-Memory Usage
section                    address  length [bytes]      (dec)  Description
-------                 ----------  -------------------------  -----------
         Total kseg0_boot_mem used  :           0           0  <1% of 0x970

Exception-Memory Usage 
section                    address  length [bytes]      (dec)  Description
-------                 ----------  -------------------------  -----------
.app_excpt              0x9fc01180           0x10          16  General-Exception 
.vector_0               0x9fc01200            0x8           8  Interrupt Vector 0 
.vector_1               0x9fc01220            0x8           8  Interrupt Vector 1 
.vector_2               0x9fc01240            0x8           8  Interrupt Vector 2 
.vector_3               0x9fc01260            0x8           8  Interrupt Vector 3 
.vector_4               0x9fc01280            0x8           8  Interrupt Vector 4 
.vector_5               0x9fc012a0            0x8           8  Interrupt Vector 5 
.vector_6               0x9fc012c0            0x8           8  Interrupt Vector 6 
.vector_7               0x9fc012e0            0x8           8  Interrupt Vector 7 
.vector_8               0x9fc01300            0x8           8  Interrupt Vector 8 
.vector_9               0x9fc01320            0x8           8  Interrupt Vector 9 
.vector_10              0x9fc01340            0x8           8  Interrupt Vector 10 
.vector_11              0x9fc01360            0x8           8  Interrupt Vector 11 
.vector_12              0x9fc01380            0x8           8  Interrupt Vector 12 
.vector_13              0x9fc013a0            0x8           8  Interrupt Vector 13 
.vector_14              0x9fc013c0            0x8           8  Interrupt Vector 14 
.vector_15              0x9fc013e0            0x8           8  Interrupt Vector 15 
.vector_16              0x9fc01400            0x8           8  Interrupt Vector 16 
.vector_17              0x9fc01420            0x8           8  Interrupt Vector 17 
.vector_18              0x9fc01440            0x8           8  Interrupt Vector 18 
.vector_19              0x9fc01460            0x8           8  Interrupt Vector 19 
.vector_20              0x9fc01480            0x8           8  Interrupt Vector 20 
.vector_21              0x9fc014a0            0x8           8  Interrupt Vector 21 
.vector_22              0x9fc014c0            0x8           8  Interrupt Vector 22 
.vector_23              0x9fc014e0            0x8           8  Interrupt Vector 23 
.vector_24              0x9fc01500            0x8           8  Interrupt Vector 24 
.vector_25              0x9fc01520            0x8           8  Interrupt Vector 25 
.vector_26              0x9fc01540            0x8           8  Interrupt Vector 26 
.vector_27              0x9fc01560            0x8           8  Interrupt Vector 27 
.vector_28              0x9fc01580            0x8           8  Interrupt Vector 28 
.vector_29              0x9fc015a0            0x8           8  Interrupt Vector 29 
.vector_30              0x9fc015c0            0x8           8  Interrupt Vector 30 
.vector_31              0x9fc015e0            0x8           8  Interrupt Vector 31 
.vector_32              0x9fc01600            0x8           8  Interrupt Vector 32 
.vector_33              0x9fc01620            0x8           8  Interrupt Vector 33 
.vector_34              0x9fc01640            0x8           8  Interrupt Vector 34 
.vector_35              0x9fc01660            0x8           8  Interrupt Vector 35 
.vector_36              0x9fc01680            0x8           8  Interrupt Vector 36 
.vector_37              0x9fc016a0            0x8           8  Interrupt Vector 37 
.vector_38              0x9fc016c0            0x8           8  Interrupt Vector 38 
.vector_39              0x9fc016e0            0x8           8  Interrupt Vector 39 
.vector_40              0x9fc01700            0x8           8  Interrupt Vector 40 
.vector_41              0x9fc01720            0x8           8  Interrupt Vector 41 
.vector_42              0x9fc01740            0x8           8  Interrupt Vector 42 
.vector_43              0x9fc01760            0x8           8  Interrupt Vector 43 
.vector_44              0x9fc01780            0x8           8  Interrupt Vector 44 
.vector_45              0x9fc017a0            0x8           8  Interrupt Vector 45 
.vector_46              0x9fc017c0            0x8           8  Interrupt Vector 46 
.vector_47              0x9fc017e0            0x8           8  Interrupt Vector 47 
.vector_48              0x9fc01800            0x8           8  Interrupt Vector 48 
.vector_49              0x9fc01820            0x8           8  Interrupt Vector 49 
.vector_50              0x9fc01840            0x8           8  Interrupt Vector 50 
.vector_51              0x9fc01860            0x8           8  Interrupt Vector 51 
          Total exception_mem used  :       0x1b0         432  10.5% of 0x1000

kseg1 Boot-Memory Usage
section                    address  length [bytes]      (dec)  Description
-------                 ----------  -------------------------  -----------
.reset                  0xbfc00000          0x208         520  Reset handler 
.bev_excpt              0xbfc00380           0x10          16  BEV-Exception 
         Total kseg1_boot_mem used  :       0x218         536  45.9% of 0x490
        --------------------------------------------------------------------------
         Total Program Memory used  :     0x6d340      447296  84.1% of 0x81e00
        --------------------------------------------------------------------------


kseg1 Data-Memory Usage
section                    address  length [bytes]      (dec)  Description
-------                 ----------  -------------------------  -----------
.sdata                  0xa0000000           0x90         144  Small init data 
.sbss                   0xa0000090          0x2cc         716  Small uninit data 
.bss                    0xa000035c         0x4548       17736  Uninitialized data 
.bss                    0xa00048a4            0xc          12  Uninitialized data 
.bss                    0xa00068b0         0x1f30        7984  Uninitialized data 
.data                   0xa00089a0          0x2c8         712  Initialized data 
.bss                    0xa0008c68           0x90         144  Uninitialized data 
.data                   0xa0008cf8           0x8c         140  Initialized data 
.data.math_errhandling_ 0xa0008d84            0x4           4   
.bss                    0xa0008d88          0x170         368  Uninitialized data 
.data                   0xa0008ef8           0x2c          44  Initialized data 
.bss                    0xa0008f24           0x2c          44  Uninitialized data 
.data                   0xa0008f50           0x28          40  Initialized data 
.bss                    0xa0008f78           0x28          40  Uninitialized data 
.data                   0xa0008fa0           0x28          40  Initialized data 
.bss                    0xa0008fc8           0x64         100  Uninitialized data 
.data                   0xa000902c           0x1c          28  Initialized data 
.bss                    0xa0009048           0x64         100  Uninitialized data 
.bss.errno              0xa00090ac            0x4           4   
.bss                    0xa00090b0           0x10          16  Uninitialized data 
         Total kseg1_data_mem used  :      0x6f00       28416  21.7% of 0x20000
        --------------------------------------------------------------------------
            Total Data Memory used  :      0x6f00       28416  21.7% of 0x20000
        --------------------------------------------------------------------------


Dynamic Data-Memory Reservation
section                    address  length [bytes]      (dec)  Description
-------                 ----------  -------------------------  -----------
heap                    0xa00090c8        0x102c8       66248  Reserved for heap 
stack                   0xa00193a8         0x6c50       27728  Reserved for stack 

        --------------------------------------------------------------------------

Discarded input sections

 .text          0x00000000        0x0 c:/program files (x86)/microchip/xc32/v1.42/bin/bin/../../lib/gcc/pic32mx/4.8.3/../../../../pic32mx/lib/./proc/32MX795F512L/crt0_mips32r2.o
 .data          0x00000000        0x0 c:/program files (x86)/microchip/xc32/v1.42/bin/bin/../../lib/gcc/pic32mx/4.8.3/../../../../pic32mx/lib/./proc/32MX795F512L/crt0_mips32r2.o
 .bss           0x00000000        0x0 c:/program files (x86)/microchip/xc32/v1.42/bin/bin/../../lib/gcc/pic32mx/4.8.3/../../../../pic32mx/lib/./proc/32MX795F512L/crt0_mips32r2.o
 .text          0x00000000        0x0 c:/program files (x86)/microchip/xc32/v1.42/bin/bin/../../lib/gcc/pic32mx/4.8.3/../../../../pic32mx/lib\debug-exception-return.o
 .data          0x00000000        0x0 c:/program files (x86)/microchip/xc32/v1.42/bin/bin/../../lib/gcc/pic32mx/4.8.3/../../../../pic32mx/lib\debug-exception-return.o
 .bss           0x00000000        0x0 c:/program files (x86)/microchip/xc32/v1.42/bin/bin/../../lib/gcc/pic32mx/4.8.3/../../../../pic32mx/lib\debug-exception-return.o
 .reginfo       0x00000000       0x18 c:/program files (x86)/microchip/xc32/v1.42/bin/bin/../../lib/gcc/pic32mx/4.8.3/../../../../pic32mx/lib\debug-exception-return.o
 .text          0x00000000        0x0 build/e16_encx24j600_spiflash/production/_ext/1495834797/drv_flash_static.o
 .data          0x00000000        0x0 build/e16_encx24j600_spiflash/production/_ext/1495834797/drv_flash_static.o
 .bss           0x00000000        0x0 build/e16_encx24j600_spiflash/production/_ext/1495834797/drv_flash_static.o
 .reginfo       0x00000000       0x18 build/e16_encx24j600_spiflash/production/_ext/1495834797/drv_flash_static.o
 .text.FLASH_StartOperationAtAddress
                0x00000000       0x68 build/e16_encx24j600_spiflash/production/_ext/1495834797/drv_flash_static.o
 .text.DRV_FLASH0_WriteWord
                0x00000000       0x24 build/e16_encx24j600_spiflash/production/_ext/1495834797/drv_flash_static.o
 .text.DRV_FLASH0_WriteRow
                0x00000000       0x28 build/e16_encx24j600_spiflash/production/_ext/1495834797/drv_flash_static.o
 .text.DRV_FLASH0_ErasePage
                0x00000000       0x1c build/e16_encx24j600_spiflash/production/_ext/1495834797/drv_flash_static.o
 .text.DRV_FLASH0_IsBusy
                0x00000000       0x10 build/e16_encx24j600_spiflash/production/_ext/1495834797/drv_flash_static.o
 .text          0x00000000        0x0 build/e16_encx24j600_spiflash/production/_ext/1676865386/drv_spi_tasks.o
 .data          0x00000000        0x0 build/e16_encx24j600_spiflash/production/_ext/1676865386/drv_spi_tasks.o
 .bss           0x00000000        0x0 build/e16_encx24j600_spiflash/production/_ext/1676865386/drv_spi_tasks.o
 .reginfo       0x00000000       0x18 build/e16_encx24j600_spiflash/production/_ext/1676865386/drv_spi_tasks.o
 .text          0x00000000        0x0 build/e16_encx24j600_spiflash/production/_ext/1676865386/drv_spi_api.o
 .data          0x00000000        0x0 build/e16_encx24j600_spiflash/production/_ext/1676865386/drv_spi_api.o
 .bss           0x00000000        0x0 build/e16_encx24j600_spiflash/production/_ext/1676865386/drv_spi_api.o
 .reginfo       0x00000000       0x18 build/e16_encx24j600_spiflash/production/_ext/1676865386/drv_spi_api.o
 .text          0x00000000        0x0 build/e16_encx24j600_spiflash/production/_ext/1676865386/drv_spi_master_ebm_tasks.o
 .data          0x00000000        0x0 build/e16_encx24j600_spiflash/production/_ext/1676865386/drv_spi_master_ebm_tasks.o
 .bss           0x00000000        0x0 build/e16_encx24j600_spiflash/production/_ext/1676865386/drv_spi_master_ebm_tasks.o
 .reginfo       0x00000000       0x18 build/e16_encx24j600_spiflash/production/_ext/1676865386/drv_spi_master_ebm_tasks.o
 .text          0x00000000        0x0 build/e16_encx24j600_spiflash/production/_ext/1676865386/drv_spi_master_rm_tasks.o
 .data          0x00000000        0x0 build/e16_encx24j600_spiflash/production/_ext/1676865386/drv_spi_master_rm_tasks.o
 .bss           0x00000000        0x0 build/e16_encx24j600_spiflash/production/_ext/1676865386/drv_spi_master_rm_tasks.o
 .reginfo       0x00000000       0x18 build/e16_encx24j600_spiflash/production/_ext/1676865386/drv_spi_master_rm_tasks.o
 .text          0x00000000        0x0 build/e16_encx24j600_spiflash/production/_ext/971131287/net_pres_enc_glue.o
 .bss           0x00000000        0x0 build/e16_encx24j600_spiflash/production/_ext/971131287/net_pres_enc_glue.o
 .reginfo       0x00000000       0x18 build/e16_encx24j600_spiflash/production/_ext/971131287/net_pres_enc_glue.o
 .text.InitRng  0x00000000       0x1c build/e16_encx24j600_spiflash/production/_ext/971131287/net_pres_enc_glue.o
 .text          0x00000000        0x0 build/e16_encx24j600_spiflash/production/_ext/971131287/net_pres_cert_store.o
 .data          0x00000000        0x0 build/e16_encx24j600_spiflash/production/_ext/971131287/net_pres_cert_store.o
 .bss           0x00000000        0x0 build/e16_encx24j600_spiflash/production/_ext/971131287/net_pres_cert_store.o
 .reginfo       0x00000000       0x18 build/e16_encx24j600_spiflash/production/_ext/971131287/net_pres_cert_store.o
 .text          0x00000000        0x0 build/e16_encx24j600_spiflash/production/_ext/360868340/sys_clk_static.o
 .data          0x00000000        0x0 build/e16_encx24j600_spiflash/production/_ext/360868340/sys_clk_static.o
 .bss           0x00000000        0x0 build/e16_encx24j600_spiflash/production/_ext/360868340/sys_clk_static.o
 .reginfo       0x00000000       0x18 build/e16_encx24j600_spiflash/production/_ext/360868340/sys_clk_static.o
 .text.SYS_CLK_ReferenceClockFrequencyGet
                0x00000000        0x8 build/e16_encx24j600_spiflash/production/_ext/360868340/sys_clk_static.o
 .text.SYS_CLK_SecondaryOscillatorDisable
                0x00000000       0x4c build/e16_encx24j600_spiflash/production/_ext/360868340/sys_clk_static.o
 .text.SYS_CLK_SecondaryOscillatorIsEnabled
                0x00000000       0x10 build/e16_encx24j600_spiflash/production/_ext/360868340/sys_clk_static.o
 .text          0x00000000        0x0 build/e16_encx24j600_spiflash/production/_ext/394705988/sys_ports_static.o
 .data          0x00000000        0x0 build/e16_encx24j600_spiflash/production/_ext/394705988/sys_ports_static.o
 .bss           0x00000000        0x0 build/e16_encx24j600_spiflash/production/_ext/394705988/sys_ports_static.o
 .reginfo       0x00000000       0x18 build/e16_encx24j600_spiflash/production/_ext/394705988/sys_ports_static.o
 .text.SYS_PORTS_Read
                0x00000000       0x38 build/e16_encx24j600_spiflash/production/_ext/394705988/sys_ports_static.o
 .text.SYS_PORTS_Write
                0x00000000       0x2c build/e16_encx24j600_spiflash/production/_ext/394705988/sys_ports_static.o
 .text.SYS_PORTS_Set
                0x00000000       0x38 build/e16_encx24j600_spiflash/production/_ext/394705988/sys_ports_static.o
 .text.SYS_PORTS_Clear
                0x00000000       0x34 build/e16_encx24j600_spiflash/production/_ext/394705988/sys_ports_static.o
 .text.SYS_PORTS_DirectionSelect
                0x00000000       0x6c build/e16_encx24j600_spiflash/production/_ext/394705988/sys_ports_static.o
 .text.SYS_PORTS_DirectionGet
                0x00000000       0x38 build/e16_encx24j600_spiflash/production/_ext/394705988/sys_ports_static.o
 .text.SYS_PORTS_Toggle
                0x00000000       0x34 build/e16_encx24j600_spiflash/production/_ext/394705988/sys_ports_static.o
 .text.SYS_PORTS_OpenDrainEnable
                0x00000000       0x34 build/e16_encx24j600_spiflash/production/_ext/394705988/sys_ports_static.o
 .text.SYS_PORTS_OpenDrainDisable
                0x00000000       0x34 build/e16_encx24j600_spiflash/production/_ext/394705988/sys_ports_static.o
 .text.SYS_PORTS_ChangeNotificationGlobalEnable
                0x00000000       0x1c build/e16_encx24j600_spiflash/production/_ext/394705988/sys_ports_static.o
 .text.SYS_PORTS_ChangeNotificationGlobalDisable
                0x00000000       0x1c build/e16_encx24j600_spiflash/production/_ext/394705988/sys_ports_static.o
 .text.SYS_PORTS_GlobalChangeNotificationDisable
                0x00000000       0x1c build/e16_encx24j600_spiflash/production/_ext/394705988/sys_ports_static.o
 .text.SYS_PORTS_ChangeNotificationEnable
                0x00000000       0x78 build/e16_encx24j600_spiflash/production/_ext/394705988/sys_ports_static.o
 .text.SYS_PORTS_ChangeNotificationDisable
                0x00000000       0x20 build/e16_encx24j600_spiflash/production/_ext/394705988/sys_ports_static.o
 .text.SYS_PORTS_ChangeNotificationInIdleModeEnable
                0x00000000       0x1c build/e16_encx24j600_spiflash/production/_ext/394705988/sys_ports_static.o
 .text.SYS_PORTS_ChangeNotificationInIdleModeDisable
                0x00000000       0x1c build/e16_encx24j600_spiflash/production/_ext/394705988/sys_ports_static.o
 .text.SYS_PORTS_ChangeNotificationPullUpEnable
                0x00000000       0x20 build/e16_encx24j600_spiflash/production/_ext/394705988/sys_ports_static.o
 .text.SYS_PORTS_ChangeNotificationPullUpDisable
                0x00000000       0x20 build/e16_encx24j600_spiflash/production/_ext/394705988/sys_ports_static.o
 .text.SYS_PORTS_PinModeSelect
                0x00000000       0x38 build/e16_encx24j600_spiflash/production/_ext/394705988/sys_ports_static.o
 .text.SYS_PORTS_PinWrite
                0x00000000       0x70 build/e16_encx24j600_spiflash/production/_ext/394705988/sys_ports_static.o
 .text.SYS_PORTS_PinRead
                0x00000000       0x44 build/e16_encx24j600_spiflash/production/_ext/394705988/sys_ports_static.o
 .text.SYS_PORTS_PinToggle
                0x00000000       0x38 build/e16_encx24j600_spiflash/production/_ext/394705988/sys_ports_static.o
 .text.SYS_PORTS_PinOpenDrainEnable
                0x00000000       0x38 build/e16_encx24j600_spiflash/production/_ext/394705988/sys_ports_static.o
 .text.SYS_PORTS_PinOpenDrainDisable
                0x00000000       0x38 build/e16_encx24j600_spiflash/production/_ext/394705988/sys_ports_static.o
 .text.SYS_PORTS_RemapInput
                0x00000000        0x8 build/e16_encx24j600_spiflash/production/_ext/394705988/sys_ports_static.o
 .text.SYS_PORTS_RemapOutput
                0x00000000        0x8 build/e16_encx24j600_spiflash/production/_ext/394705988/sys_ports_static.o
 .text          0x00000000        0x0 build/e16_encx24j600_spiflash/production/_ext/689678155/system_init.o
 .reginfo       0x00000000       0x18 build/e16_encx24j600_spiflash/production/_ext/689678155/system_init.o
 .text          0x00000000        0x0 build/e16_encx24j600_spiflash/production/_ext/689678155/system_interrupt.o
 .data          0x00000000        0x0 build/e16_encx24j600_spiflash/production/_ext/689678155/system_interrupt.o
 .bss           0x00000000        0x0 build/e16_encx24j600_spiflash/production/_ext/689678155/system_interrupt.o
 .reginfo       0x00000000       0x18 build/e16_encx24j600_spiflash/production/_ext/689678155/system_interrupt.o
 .text          0x00000000        0x0 build/e16_encx24j600_spiflash/production/_ext/689678155/system_exceptions.o
 .data          0x00000000        0x0 build/e16_encx24j600_spiflash/production/_ext/689678155/system_exceptions.o
 .bss           0x00000000        0x0 build/e16_encx24j600_spiflash/production/_ext/689678155/system_exceptions.o
 .reginfo       0x00000000       0x18 build/e16_encx24j600_spiflash/production/_ext/689678155/system_exceptions.o
 .text          0x00000000        0x0 build/e16_encx24j600_spiflash/production/_ext/689678155/system_tasks.o
 .data          0x00000000        0x0 build/e16_encx24j600_spiflash/production/_ext/689678155/system_tasks.o
 .bss           0x00000000        0x0 build/e16_encx24j600_spiflash/production/_ext/689678155/system_tasks.o
 .reginfo       0x00000000       0x18 build/e16_encx24j600_spiflash/production/_ext/689678155/system_tasks.o
 .text          0x00000000        0x0 build/e16_encx24j600_spiflash/production/_ext/1360937237/app.o
 .data          0x00000000        0x0 build/e16_encx24j600_spiflash/production/_ext/1360937237/app.o
 .bss           0x00000000        0x0 build/e16_encx24j600_spiflash/production/_ext/1360937237/app.o
 .reginfo       0x00000000       0x18 build/e16_encx24j600_spiflash/production/_ext/1360937237/app.o
 .text          0x00000000        0x0 build/e16_encx24j600_spiflash/production/_ext/1360937237/main.o
 .data          0x00000000        0x0 build/e16_encx24j600_spiflash/production/_ext/1360937237/main.o
 .bss           0x00000000        0x0 build/e16_encx24j600_spiflash/production/_ext/1360937237/main.o
 .reginfo       0x00000000       0x18 build/e16_encx24j600_spiflash/production/_ext/1360937237/main.o
 .text          0x00000000        0x0 build/e16_encx24j600_spiflash/production/_ext/1360937237/http_print.o
 .data          0x00000000        0x0 build/e16_encx24j600_spiflash/production/_ext/1360937237/http_print.o
 .bss           0x00000000        0x0 build/e16_encx24j600_spiflash/production/_ext/1360937237/http_print.o
 .reginfo       0x00000000       0x18 build/e16_encx24j600_spiflash/production/_ext/1360937237/http_print.o
 .text          0x00000000        0x0 build/e16_encx24j600_spiflash/production/_ext/1360937237/custom_http_app.o
 .data          0x00000000        0x0 build/e16_encx24j600_spiflash/production/_ext/1360937237/custom_http_app.o
 .reginfo       0x00000000       0x18 build/e16_encx24j600_spiflash/production/_ext/1360937237/custom_http_app.o
 .text          0x00000000        0x0 build/e16_encx24j600_spiflash/production/_ext/1360937237/mpfs_img2.o
 .data          0x00000000        0x0 build/e16_encx24j600_spiflash/production/_ext/1360937237/mpfs_img2.o
 .bss           0x00000000        0x0 build/e16_encx24j600_spiflash/production/_ext/1360937237/mpfs_img2.o
 .reginfo       0x00000000       0x18 build/e16_encx24j600_spiflash/production/_ext/1360937237/mpfs_img2.o
 .text          0x00000000        0x0 build/e16_encx24j600_spiflash/production/_ext/728775826/bsp_sys_init.o
 .data          0x00000000        0x0 build/e16_encx24j600_spiflash/production/_ext/728775826/bsp_sys_init.o
 .bss           0x00000000        0x0 build/e16_encx24j600_spiflash/production/_ext/728775826/bsp_sys_init.o
 .reginfo       0x00000000       0x18 build/e16_encx24j600_spiflash/production/_ext/728775826/bsp_sys_init.o
 .text.BSP_LEDOn
                0x00000000       0x1c build/e16_encx24j600_spiflash/production/_ext/728775826/bsp_sys_init.o
 .text.BSP_LEDOff
                0x00000000       0x1c build/e16_encx24j600_spiflash/production/_ext/728775826/bsp_sys_init.o
 .text.BSP_SwitchS5Select
                0x00000000       0x34 build/e16_encx24j600_spiflash/production/_ext/728775826/bsp_sys_init.o
 .text.BSP_USBVBUSPowerEnable
                0x00000000        0x8 build/e16_encx24j600_spiflash/production/_ext/728775826/bsp_sys_init.o
 .text.BSP_USBVBUSSwitchOverCurrentDetect
                0x00000000        0x8 build/e16_encx24j600_spiflash/production/_ext/728775826/bsp_sys_init.o
 .text          0x00000000        0x0 build/e16_encx24j600_spiflash/production/_ext/29024758/random.o
 .data          0x00000000        0x0 build/e16_encx24j600_spiflash/production/_ext/29024758/random.o
 .bss           0x00000000        0x0 build/e16_encx24j600_spiflash/production/_ext/29024758/random.o
 .reginfo       0x00000000       0x18 build/e16_encx24j600_spiflash/production/_ext/29024758/random.o
 .text.wc_RNG_GenerateByte
                0x00000000       0x1c build/e16_encx24j600_spiflash/production/_ext/29024758/random.o
 .text          0x00000000        0x0 build/e16_encx24j600_spiflash/production/_ext/29024758/arc4.o
 .data          0x00000000        0x0 build/e16_encx24j600_spiflash/production/_ext/29024758/arc4.o
 .bss           0x00000000        0x0 build/e16_encx24j600_spiflash/production/_ext/29024758/arc4.o
 .reginfo       0x00000000       0x18 build/e16_encx24j600_spiflash/production/_ext/29024758/arc4.o
 .text          0x00000000        0x0 build/e16_encx24j600_spiflash/production/_ext/29024758/crypto.o
 .data          0x00000000        0x0 build/e16_encx24j600_spiflash/production/_ext/29024758/crypto.o
 .bss           0x00000000        0x0 build/e16_encx24j600_spiflash/production/_ext/29024758/crypto.o
 .reginfo       0x00000000       0x18 build/e16_encx24j600_spiflash/production/_ext/29024758/crypto.o
 .text.CRYPT_MD5_DataSizeSet
                0x00000000        0xc build/e16_encx24j600_spiflash/production/_ext/29024758/crypto.o
 .text.CRYPT_SHA_Initialize
                0x00000000       0x30 build/e16_encx24j600_spiflash/production/_ext/29024758/crypto.o
 .text.CRYPT_SHA_DataSizeSet
                0x00000000        0xc build/e16_encx24j600_spiflash/production/_ext/29024758/crypto.o
 .text.CRYPT_SHA_DataAdd
                0x00000000       0x40 build/e16_encx24j600_spiflash/production/_ext/29024758/crypto.o
 .text.CRYPT_SHA_Finalize
                0x00000000       0x40 build/e16_encx24j600_spiflash/production/_ext/29024758/crypto.o
 .text.CRYPT_SHA256_Initialize
                0x00000000       0x30 build/e16_encx24j600_spiflash/production/_ext/29024758/crypto.o
 .text.CRYPT_SHA256_DataSizeSet
                0x00000000        0xc build/e16_encx24j600_spiflash/production/_ext/29024758/crypto.o
 .text.CRYPT_SHA256_DataAdd
                0x00000000       0x40 build/e16_encx24j600_spiflash/production/_ext/29024758/crypto.o
 .text.CRYPT_SHA256_Finalize
                0x00000000       0x40 build/e16_encx24j600_spiflash/production/_ext/29024758/crypto.o
 .text.CRYPT_HMAC_SetKey
                0x00000000       0x54 build/e16_encx24j600_spiflash/production/_ext/29024758/crypto.o
 .text.CRYPT_HMAC_DataAdd
                0x00000000       0x40 build/e16_encx24j600_spiflash/production/_ext/29024758/crypto.o
 .text.CRYPT_HMAC_Finalize
                0x00000000       0x40 build/e16_encx24j600_spiflash/production/_ext/29024758/crypto.o
 .text.CRYPT_RNG_Initialize
                0x00000000       0x30 build/e16_encx24j600_spiflash/production/_ext/29024758/crypto.o
 .text.CRYPT_RNG_Get
                0x00000000       0x40 build/e16_encx24j600_spiflash/production/_ext/29024758/crypto.o
 .text.CRYPT_RNG_BlockGenerate
                0x00000000       0x40 build/e16_encx24j600_spiflash/production/_ext/29024758/crypto.o
 .text.CRYPT_TDES_KeySet
                0x00000000       0x40 build/e16_encx24j600_spiflash/production/_ext/29024758/crypto.o
 .text.CRYPT_TDES_IvSet
                0x00000000       0x40 build/e16_encx24j600_spiflash/production/_ext/29024758/crypto.o
 .text.CRYPT_TDES_CBC_Encrypt
                0x00000000       0x50 build/e16_encx24j600_spiflash/production/_ext/29024758/crypto.o
 .text.CRYPT_TDES_CBC_Decrypt
                0x00000000       0x50 build/e16_encx24j600_spiflash/production/_ext/29024758/crypto.o
 .text.CRYPT_AES_KeySet
                0x00000000       0x44 build/e16_encx24j600_spiflash/production/_ext/29024758/crypto.o
 .text.CRYPT_AES_IvSet
                0x00000000       0x40 build/e16_encx24j600_spiflash/production/_ext/29024758/crypto.o
 .text.CRYPT_AES_CBC_Encrypt
                0x00000000       0x50 build/e16_encx24j600_spiflash/production/_ext/29024758/crypto.o
 .text.CRYPT_AES_CBC_Decrypt
                0x00000000       0x50 build/e16_encx24j600_spiflash/production/_ext/29024758/crypto.o
 .text.CRYPT_RSA_Initialize
                0x00000000       0x54 build/e16_encx24j600_spiflash/production/_ext/29024758/crypto.o
 .text.CRYPT_RSA_Free
                0x00000000       0x50 build/e16_encx24j600_spiflash/production/_ext/29024758/crypto.o
 .text.CRYPT_RSA_PublicKeyDecode
                0x00000000       0x4c build/e16_encx24j600_spiflash/production/_ext/29024758/crypto.o
 .text.CRYPT_RSA_PrivateKeyDecode
                0x00000000       0x4c build/e16_encx24j600_spiflash/production/_ext/29024758/crypto.o
 .text.CRYPT_RSA_PublicEncrypt
                0x00000000       0x70 build/e16_encx24j600_spiflash/production/_ext/29024758/crypto.o
 .text.CRYPT_RSA_PrivateDecrypt
                0x00000000       0x68 build/e16_encx24j600_spiflash/production/_ext/29024758/crypto.o
 .text.CRYPT_RSA_EncryptSizeGet
                0x00000000       0x30 build/e16_encx24j600_spiflash/production/_ext/29024758/crypto.o
 .text.CRYPT_ECC_Initialize
                0x00000000       0x50 build/e16_encx24j600_spiflash/production/_ext/29024758/crypto.o
 .text.CRYPT_ECC_Free
                0x00000000       0x50 build/e16_encx24j600_spiflash/production/_ext/29024758/crypto.o
 .text.CRYPT_ECC_PublicExport
                0x00000000       0x50 build/e16_encx24j600_spiflash/production/_ext/29024758/crypto.o
 .text.CRYPT_ECC_PublicImport
                0x00000000       0x44 build/e16_encx24j600_spiflash/production/_ext/29024758/crypto.o
 .text.CRYPT_ECC_PrivateImport
                0x00000000       0x64 build/e16_encx24j600_spiflash/production/_ext/29024758/crypto.o
 .text.CRYPT_ECC_DHE_KeyMake
                0x00000000       0x44 build/e16_encx24j600_spiflash/production/_ext/29024758/crypto.o
 .text.CRYPT_ECC_DHE_SharedSecretMake
                0x00000000       0x64 build/e16_encx24j600_spiflash/production/_ext/29024758/crypto.o
 .text.CRYPT_ECC_DSA_HashSign
                0x00000000       0x78 build/e16_encx24j600_spiflash/production/_ext/29024758/crypto.o
 .text.CRYPT_ECC_DSA_HashVerify
                0x00000000       0x60 build/e16_encx24j600_spiflash/production/_ext/29024758/crypto.o
 .text.CRYPT_ECC_KeySizeGet
                0x00000000       0x30 build/e16_encx24j600_spiflash/production/_ext/29024758/crypto.o
 .text.CRYPT_ECC_SignatureSizeGet
                0x00000000       0x30 build/e16_encx24j600_spiflash/production/_ext/29024758/crypto.o
 .text.CRYPT_ERROR_StringGet
                0x00000000       0x34 build/e16_encx24j600_spiflash/production/_ext/29024758/crypto.o
 .text          0x00000000        0x0 build/e16_encx24j600_spiflash/production/_ext/29024758/md5.o
 .data          0x00000000        0x0 build/e16_encx24j600_spiflash/production/_ext/29024758/md5.o
 .bss           0x00000000        0x0 build/e16_encx24j600_spiflash/production/_ext/29024758/md5.o
 .reginfo       0x00000000       0x18 build/e16_encx24j600_spiflash/production/_ext/29024758/md5.o
 .text          0x00000000        0x0 build/e16_encx24j600_spiflash/production/_ext/29024758/sha.o
 .data          0x00000000        0x0 build/e16_encx24j600_spiflash/production/_ext/29024758/sha.o
 .bss           0x00000000        0x0 build/e16_encx24j600_spiflash/production/_ext/29024758/sha.o
 .reginfo       0x00000000       0x18 build/e16_encx24j600_spiflash/production/_ext/29024758/sha.o
 .text          0x00000000        0x0 build/e16_encx24j600_spiflash/production/_ext/29024758/coding.o
 .data          0x00000000        0x0 build/e16_encx24j600_spiflash/production/_ext/29024758/coding.o
 .bss           0x00000000        0x0 build/e16_encx24j600_spiflash/production/_ext/29024758/coding.o
 .reginfo       0x00000000       0x18 build/e16_encx24j600_spiflash/production/_ext/29024758/coding.o
 .text.CEscape  0x00000000      0x17c build/e16_encx24j600_spiflash/production/_ext/29024758/coding.o
 .text.DoBase64_Encode
                0x00000000      0x428 build/e16_encx24j600_spiflash/production/_ext/29024758/coding.o
 .text.Base64_Encode
                0x00000000       0x1c build/e16_encx24j600_spiflash/production/_ext/29024758/coding.o
 .text.Base64_EncodeEsc
                0x00000000       0x20 build/e16_encx24j600_spiflash/production/_ext/29024758/coding.o
 .text.Base64_Encode_NoNl
                0x00000000       0x20 build/e16_encx24j600_spiflash/production/_ext/29024758/coding.o
 .text          0x00000000        0x0 build/e16_encx24j600_spiflash/production/_ext/29024758/error.o
 .data          0x00000000        0x0 build/e16_encx24j600_spiflash/production/_ext/29024758/error.o
 .bss           0x00000000        0x0 build/e16_encx24j600_spiflash/production/_ext/29024758/error.o
 .reginfo       0x00000000       0x18 build/e16_encx24j600_spiflash/production/_ext/29024758/error.o
 .rodata        0x00000000      0xe88 build/e16_encx24j600_spiflash/production/_ext/29024758/error.o
 .text.wc_GetErrorString
                0x00000000      0x76c build/e16_encx24j600_spiflash/production/_ext/29024758/error.o
 .text.wc_ErrorString
                0x00000000       0x34 build/e16_encx24j600_spiflash/production/_ext/29024758/error.o
 .text          0x00000000        0x0 build/e16_encx24j600_spiflash/production/_ext/29024758/integer.o
 .data          0x00000000        0x0 build/e16_encx24j600_spiflash/production/_ext/29024758/integer.o
 .bss           0x00000000        0x0 build/e16_encx24j600_spiflash/production/_ext/29024758/integer.o
 .reginfo       0x00000000       0x18 build/e16_encx24j600_spiflash/production/_ext/29024758/integer.o
 .text          0x00000000        0x0 build/e16_encx24j600_spiflash/production/_ext/29024758/logging.o
 .data          0x00000000        0x0 build/e16_encx24j600_spiflash/production/_ext/29024758/logging.o
 .bss           0x00000000        0x0 build/e16_encx24j600_spiflash/production/_ext/29024758/logging.o
 .reginfo       0x00000000       0x18 build/e16_encx24j600_spiflash/production/_ext/29024758/logging.o
 .text.wolfSSL_SetLoggingCb
                0x00000000        0x8 build/e16_encx24j600_spiflash/production/_ext/29024758/logging.o
 .text.wolfSSL_Debugging_ON
                0x00000000        0x8 build/e16_encx24j600_spiflash/production/_ext/29024758/logging.o
 .text.wolfSSL_Debugging_OFF
                0x00000000        0x8 build/e16_encx24j600_spiflash/production/_ext/29024758/logging.o
 .text          0x00000000        0x0 build/e16_encx24j600_spiflash/production/_ext/29024758/memory.o
 .data          0x00000000        0x0 build/e16_encx24j600_spiflash/production/_ext/29024758/memory.o
 .bss           0x00000000        0x0 build/e16_encx24j600_spiflash/production/_ext/29024758/memory.o
 .reginfo       0x00000000       0x18 build/e16_encx24j600_spiflash/production/_ext/29024758/memory.o
 .text.wolfSSL_SetAllocators
                0x00000000       0x38 build/e16_encx24j600_spiflash/production/_ext/29024758/memory.o
 .text.wolfSSL_Realloc
                0x00000000       0x38 build/e16_encx24j600_spiflash/production/_ext/29024758/memory.o
 .text          0x00000000        0x0 build/e16_encx24j600_spiflash/production/_ext/29024758/misc.o
 .data          0x00000000        0x0 build/e16_encx24j600_spiflash/production/_ext/29024758/misc.o
 .bss           0x00000000        0x0 build/e16_encx24j600_spiflash/production/_ext/29024758/misc.o
 .reginfo       0x00000000       0x18 build/e16_encx24j600_spiflash/production/_ext/29024758/misc.o
 .text          0x00000000        0x0 build/e16_encx24j600_spiflash/production/_ext/29024758/port.o
 .data          0x00000000        0x0 build/e16_encx24j600_spiflash/production/_ext/29024758/port.o
 .bss           0x00000000        0x0 build/e16_encx24j600_spiflash/production/_ext/29024758/port.o
 .reginfo       0x00000000       0x18 build/e16_encx24j600_spiflash/production/_ext/29024758/port.o
 .text          0x00000000        0x0 build/e16_encx24j600_spiflash/production/_ext/29024758/ecc.o
 .data          0x00000000        0x0 build/e16_encx24j600_spiflash/production/_ext/29024758/ecc.o
 .bss           0x00000000        0x0 build/e16_encx24j600_spiflash/production/_ext/29024758/ecc.o
 .reginfo       0x00000000       0x18 build/e16_encx24j600_spiflash/production/_ext/29024758/ecc.o
 .text.wc_ecc_copy_point
                0x00000000       0x80 build/e16_encx24j600_spiflash/production/_ext/29024758/ecc.o
 .text.wc_ecc_cmp_point
                0x00000000       0x80 build/e16_encx24j600_spiflash/production/_ext/29024758/ecc.o
 .text.wc_ecc_shared_secret_ssh
                0x00000000      0x184 build/e16_encx24j600_spiflash/production/_ext/29024758/ecc.o
 .text.wc_ecc_point_is_at_infinity
                0x00000000       0x44 build/e16_encx24j600_spiflash/production/_ext/29024758/ecc.o
 .text.wc_ecc_import_point_der
                0x00000000      0x168 build/e16_encx24j600_spiflash/production/_ext/29024758/ecc.o
 .text.wc_ecc_export_point_der
                0x00000000      0x19c build/e16_encx24j600_spiflash/production/_ext/29024758/ecc.o
 .text.wc_ecc_export_x963_ex
                0x00000000       0x30 build/e16_encx24j600_spiflash/production/_ext/29024758/ecc.o
 .text.wc_ecc_check_key
                0x00000000      0x3d4 build/e16_encx24j600_spiflash/production/_ext/29024758/ecc.o
 .text.wc_ecc_export_private_only
                0x00000000       0xc4 build/e16_encx24j600_spiflash/production/_ext/29024758/ecc.o
 .text.wc_ecc_rs_to_sig
                0x00000000      0x11c build/e16_encx24j600_spiflash/production/_ext/29024758/ecc.o
 .text.wc_ecc_import_raw
                0x00000000      0x1dc build/e16_encx24j600_spiflash/production/_ext/29024758/ecc.o
 .text          0x00000000        0x0 build/e16_encx24j600_spiflash/production/_ext/29024758/pwdbased.o
 .data          0x00000000        0x0 build/e16_encx24j600_spiflash/production/_ext/29024758/pwdbased.o
 .bss           0x00000000        0x0 build/e16_encx24j600_spiflash/production/_ext/29024758/pwdbased.o
 .reginfo       0x00000000       0x18 build/e16_encx24j600_spiflash/production/_ext/29024758/pwdbased.o
 .text.wc_PBKDF1
                0x00000000      0x198 build/e16_encx24j600_spiflash/production/_ext/29024758/pwdbased.o
 .text.GetDigestSize
                0x00000000       0x34 build/e16_encx24j600_spiflash/production/_ext/29024758/pwdbased.o
 .text.wc_PBKDF2
                0x00000000      0x240 build/e16_encx24j600_spiflash/production/_ext/29024758/pwdbased.o
 .text.GetPKCS12HashSizes
                0x00000000       0x88 build/e16_encx24j600_spiflash/production/_ext/29024758/pwdbased.o
 .text.DoPKCS12Hash
                0x00000000      0x1d0 build/e16_encx24j600_spiflash/production/_ext/29024758/pwdbased.o
 .text.wc_PKCS12_PBKDF
                0x00000000      0x464 build/e16_encx24j600_spiflash/production/_ext/29024758/pwdbased.o
 .text          0x00000000        0x0 build/e16_encx24j600_spiflash/production/_ext/29024758/tfm.o
 .data          0x00000000        0x0 build/e16_encx24j600_spiflash/production/_ext/29024758/tfm.o
 .bss           0x00000000        0x0 build/e16_encx24j600_spiflash/production/_ext/29024758/tfm.o
 .reginfo       0x00000000       0x18 build/e16_encx24j600_spiflash/production/_ext/29024758/tfm.o
 .text.fp_exch  0x00000000       0xdc build/e16_encx24j600_spiflash/production/_ext/29024758/tfm.o
 .text.CheckRunTimeSettings
                0x00000000        0x8 build/e16_encx24j600_spiflash/production/_ext/29024758/tfm.o
 .text.CheckRunTimeFastMath
                0x00000000        0x8 build/e16_encx24j600_spiflash/production/_ext/29024758/tfm.o
 .text.fp_is_bit_set
                0x00000000       0x3c build/e16_encx24j600_spiflash/production/_ext/29024758/tfm.o
 .text.fp_set_bit
                0x00000000       0x48 build/e16_encx24j600_spiflash/production/_ext/29024758/tfm.o
 .text.fp_div_d
                0x00000000      0x338 build/e16_encx24j600_spiflash/production/_ext/29024758/tfm.o
 .text.fp_sub_d
                0x00000000       0x64 build/e16_encx24j600_spiflash/production/_ext/29024758/tfm.o
 .text.mp_sub_d
                0x00000000       0x20 build/e16_encx24j600_spiflash/production/_ext/29024758/tfm.o
 .text.mp_mul_2d
                0x00000000       0x20 build/e16_encx24j600_spiflash/production/_ext/29024758/tfm.o
 .text.mp_div_2d
                0x00000000       0x20 build/e16_encx24j600_spiflash/production/_ext/29024758/tfm.o
 .text.mp_isodd
                0x00000000       0x20 build/e16_encx24j600_spiflash/production/_ext/29024758/tfm.o
 .text.mp_set_int
                0x00000000       0x20 build/e16_encx24j600_spiflash/production/_ext/29024758/tfm.o
 .text.mp_is_bit_set
                0x00000000       0x1c build/e16_encx24j600_spiflash/production/_ext/29024758/tfm.o
 .text.mp_set_bit
                0x00000000       0x1c build/e16_encx24j600_spiflash/production/_ext/29024758/tfm.o
 .text.fp_sqrmod
                0x00000000       0x64 build/e16_encx24j600_spiflash/production/_ext/29024758/tfm.o
 .text.mp_sqrmod
                0x00000000       0x1c build/e16_encx24j600_spiflash/production/_ext/29024758/tfm.o
 .text.fp_cnt_lsb
                0x00000000       0x94 build/e16_encx24j600_spiflash/production/_ext/29024758/tfm.o
 .text.mp_mod_d
                0x00000000       0x20 build/e16_encx24j600_spiflash/production/_ext/29024758/tfm.o
 .text.mp_exch  0x00000000       0x20 build/e16_encx24j600_spiflash/production/_ext/29024758/tfm.o
 .text.fp_isprime
                0x00000000      0x274 build/e16_encx24j600_spiflash/production/_ext/29024758/tfm.o
 .text.mp_prime_is_prime
                0x00000000       0x2c build/e16_encx24j600_spiflash/production/_ext/29024758/tfm.o
 .text.fp_randprime
                0x00000000      0x140 build/e16_encx24j600_spiflash/production/_ext/29024758/tfm.o
 .text.mp_rand_prime
                0x00000000       0x3c build/e16_encx24j600_spiflash/production/_ext/29024758/tfm.o
 .text.fp_gcd   0x00000000      0x430 build/e16_encx24j600_spiflash/production/_ext/29024758/tfm.o
 .text.mp_gcd   0x00000000       0x20 build/e16_encx24j600_spiflash/production/_ext/29024758/tfm.o
 .text.fp_lcm   0x00000000       0xcc build/e16_encx24j600_spiflash/production/_ext/29024758/tfm.o
 .text.mp_lcm   0x00000000       0x20 build/e16_encx24j600_spiflash/production/_ext/29024758/tfm.o
 .text.mp_add_d
                0x00000000       0x20 build/e16_encx24j600_spiflash/production/_ext/29024758/tfm.o
 .text.mp_div_2
                0x00000000       0x20 build/e16_encx24j600_spiflash/production/_ext/29024758/tfm.o
 .text.mp_init_copy
                0x00000000       0x84 build/e16_encx24j600_spiflash/production/_ext/29024758/tfm.o
 .text.mp_radix_size
                0x00000000      0x178 build/e16_encx24j600_spiflash/production/_ext/29024758/tfm.o
 .text.mp_toradix
                0x00000000      0x188 build/e16_encx24j600_spiflash/production/_ext/29024758/tfm.o
 .text          0x00000000        0x0 build/e16_encx24j600_spiflash/production/_ext/29024758/asn.o
 .data          0x00000000        0x0 build/e16_encx24j600_spiflash/production/_ext/29024758/asn.o
 .bss           0x00000000        0x0 build/e16_encx24j600_spiflash/production/_ext/29024758/asn.o
 .reginfo       0x00000000       0x18 build/e16_encx24j600_spiflash/production/_ext/29024758/asn.o
 .text.pic32_time
                0x00000000       0x2c build/e16_encx24j600_spiflash/production/_ext/29024758/asn.o
 .text.ToTraditionalEnc
                0x00000000      0x6b8 build/e16_encx24j600_spiflash/production/_ext/29024758/asn.o
 .text.wc_RsaPublicKeyDecodeRaw
                0x00000000       0xfc build/e16_encx24j600_spiflash/production/_ext/29024758/asn.o
 .text.wc_DhKeyDecode
                0x00000000       0x9c build/e16_encx24j600_spiflash/production/_ext/29024758/asn.o
 .text.wc_DhParamsLoad
                0x00000000      0x18c build/e16_encx24j600_spiflash/production/_ext/29024758/asn.o
 .text.wc_DsaPublicKeyDecode
                0x00000000       0xe0 build/e16_encx24j600_spiflash/production/_ext/29024758/asn.o
 .text.wc_DsaPrivateKeyDecode
                0x00000000      0x120 build/e16_encx24j600_spiflash/production/_ext/29024758/asn.o
 .text.wc_DsaKeyToDer
                0x00000000      0x2dc build/e16_encx24j600_spiflash/production/_ext/29024758/asn.o
 .text.SetOctetString
                0x00000000       0x28 build/e16_encx24j600_spiflash/production/_ext/29024758/asn.o
 .text.SetSet   0x00000000       0x28 build/e16_encx24j600_spiflash/production/_ext/29024758/asn.o
 .text.SetImplicit
                0x00000000       0x44 build/e16_encx24j600_spiflash/production/_ext/29024758/asn.o
 .text.SetExplicit
                0x00000000       0x30 build/e16_encx24j600_spiflash/production/_ext/29024758/asn.o
 .text.SetRsaPublicKey
                0x00000000      0x290 build/e16_encx24j600_spiflash/production/_ext/29024758/asn.o
 .text.wc_GetCTC_HashOID
                0x00000000       0x34 build/e16_encx24j600_spiflash/production/_ext/29024758/asn.o
 .text.SetMyVersion
                0x00000000       0x4c build/e16_encx24j600_spiflash/production/_ext/29024758/asn.o
 .text.SetSerialNumber
                0x00000000       0x98 build/e16_encx24j600_spiflash/production/_ext/29024758/asn.o
 .text.wc_DerToPemEx
                0x00000000      0x388 build/e16_encx24j600_spiflash/production/_ext/29024758/asn.o
 .text.wc_DerToPem
                0x00000000       0x24 build/e16_encx24j600_spiflash/production/_ext/29024758/asn.o
 .text.wc_RsaKeyToDer
                0x00000000      0x320 build/e16_encx24j600_spiflash/production/_ext/29024758/asn.o
 .text.wc_RsaKeyToPublicDer
                0x00000000       0x28 build/e16_encx24j600_spiflash/production/_ext/29024758/asn.o
 .text.wc_EccPublicKeyDecode
                0x00000000      0x1d8 build/e16_encx24j600_spiflash/production/_ext/29024758/asn.o
 .text.wc_EccKeyToDer
                0x00000000      0x464 build/e16_encx24j600_spiflash/production/_ext/29024758/asn.o
 .text.GetNameHash
                0x00000000       0xd0 build/e16_encx24j600_spiflash/production/_ext/29024758/asn.o
 .text          0x00000000        0x0 build/e16_encx24j600_spiflash/production/_ext/29024758/des3.o
 .data          0x00000000        0x0 build/e16_encx24j600_spiflash/production/_ext/29024758/des3.o
 .bss           0x00000000        0x0 build/e16_encx24j600_spiflash/production/_ext/29024758/des3.o
 .reginfo       0x00000000       0x18 build/e16_encx24j600_spiflash/production/_ext/29024758/des3.o
 .text.DesProcessBlock
                0x00000000      0x1f4 build/e16_encx24j600_spiflash/production/_ext/29024758/des3.o
 .text.wc_Des_CbcEncrypt
                0x00000000      0x10c build/e16_encx24j600_spiflash/production/_ext/29024758/des3.o
 .text.wc_Des_CbcDecrypt
                0x00000000      0x130 build/e16_encx24j600_spiflash/production/_ext/29024758/des3.o
 .text.wc_Des_SetIV
                0x00000000       0x58 build/e16_encx24j600_spiflash/production/_ext/29024758/des3.o
 .text.wc_Des_SetKey
                0x00000000       0x50 build/e16_encx24j600_spiflash/production/_ext/29024758/des3.o
 .text          0x00000000        0x0 build/e16_encx24j600_spiflash/production/_ext/29024758/rsa.o
 .data          0x00000000        0x0 build/e16_encx24j600_spiflash/production/_ext/29024758/rsa.o
 .bss           0x00000000        0x0 build/e16_encx24j600_spiflash/production/_ext/29024758/rsa.o
 .reginfo       0x00000000       0x18 build/e16_encx24j600_spiflash/production/_ext/29024758/rsa.o
 .text.wc_MGF1  0x00000000      0x1ec build/e16_encx24j600_spiflash/production/_ext/29024758/rsa.o
 .text.wc_MGF   0x00000000       0x58 build/e16_encx24j600_spiflash/production/_ext/29024758/rsa.o
 .text.wc_RsaPublicEncrypt_ex
                0x00000000      0x394 build/e16_encx24j600_spiflash/production/_ext/29024758/rsa.o
 .text.wc_RsaPrivateDecryptInline_ex
                0x00000000      0x318 build/e16_encx24j600_spiflash/production/_ext/29024758/rsa.o
 .text.wc_RsaPrivateDecrypt
                0x00000000       0xf0 build/e16_encx24j600_spiflash/production/_ext/29024758/rsa.o
 .text.wc_RsaPrivateDecrypt_ex
                0x00000000      0x174 build/e16_encx24j600_spiflash/production/_ext/29024758/rsa.o
 .text.wc_RsaSSL_Verify
                0x00000000       0xf0 build/e16_encx24j600_spiflash/production/_ext/29024758/rsa.o
 .text.wc_RsaFlattenPublicKey
                0x00000000      0x118 build/e16_encx24j600_spiflash/production/_ext/29024758/rsa.o
 .text.wc_MakeRsaKey
                0x00000000      0x3b8 build/e16_encx24j600_spiflash/production/_ext/29024758/rsa.o
 .text          0x00000000        0x0 build/e16_encx24j600_spiflash/production/_ext/29024758/aes.o
 .data          0x00000000        0x0 build/e16_encx24j600_spiflash/production/_ext/29024758/aes.o
 .bss           0x00000000        0x0 build/e16_encx24j600_spiflash/production/_ext/29024758/aes.o
 .reginfo       0x00000000       0x18 build/e16_encx24j600_spiflash/production/_ext/29024758/aes.o
 .text          0x00000000        0x0 build/e16_encx24j600_spiflash/production/_ext/29024758/sha256.o
 .data          0x00000000        0x0 build/e16_encx24j600_spiflash/production/_ext/29024758/sha256.o
 .bss           0x00000000        0x0 build/e16_encx24j600_spiflash/production/_ext/29024758/sha256.o
 .reginfo       0x00000000       0x18 build/e16_encx24j600_spiflash/production/_ext/29024758/sha256.o
 .text          0x00000000        0x0 build/e16_encx24j600_spiflash/production/_ext/29024758/sha512.o
 .data          0x00000000        0x0 build/e16_encx24j600_spiflash/production/_ext/29024758/sha512.o
 .bss           0x00000000        0x0 build/e16_encx24j600_spiflash/production/_ext/29024758/sha512.o
 .reginfo       0x00000000       0x18 build/e16_encx24j600_spiflash/production/_ext/29024758/sha512.o
 .text          0x00000000        0x0 build/e16_encx24j600_spiflash/production/_ext/29024758/hmac.o
 .data          0x00000000        0x0 build/e16_encx24j600_spiflash/production/_ext/29024758/hmac.o
 .bss           0x00000000        0x0 build/e16_encx24j600_spiflash/production/_ext/29024758/hmac.o
 .reginfo       0x00000000       0x18 build/e16_encx24j600_spiflash/production/_ext/29024758/hmac.o
 .text.wolfSSL_GetHmacMaxSize
                0x00000000        0x8 build/e16_encx24j600_spiflash/production/_ext/29024758/hmac.o
 .text          0x00000000        0x0 build/e16_encx24j600_spiflash/production/_ext/29024758/hash.o
 .data          0x00000000        0x0 build/e16_encx24j600_spiflash/production/_ext/29024758/hash.o
 .bss           0x00000000        0x0 build/e16_encx24j600_spiflash/production/_ext/29024758/hash.o
 .reginfo       0x00000000       0x18 build/e16_encx24j600_spiflash/production/_ext/29024758/hash.o
 .text.wc_HashGetOID
                0x00000000       0x6c build/e16_encx24j600_spiflash/production/_ext/29024758/hash.o
 .text.wc_HashGetDigestSize
                0x00000000       0x64 build/e16_encx24j600_spiflash/production/_ext/29024758/hash.o
 .text.wc_Sha256RestorePos
                0x00000000       0x50 build/e16_encx24j600_spiflash/production/_ext/29024758/hash.o
 .text.wc_Hash  0x00000000       0xe8 build/e16_encx24j600_spiflash/production/_ext/29024758/hash.o
 .text          0x00000000        0x0 build/e16_encx24j600_spiflash/production/_ext/29024758/compress.o
 .data          0x00000000        0x0 build/e16_encx24j600_spiflash/production/_ext/29024758/compress.o
 .bss           0x00000000        0x0 build/e16_encx24j600_spiflash/production/_ext/29024758/compress.o
 .reginfo       0x00000000       0x18 build/e16_encx24j600_spiflash/production/_ext/29024758/compress.o
 .text          0x00000000        0x0 build/e16_encx24j600_spiflash/production/_ext/2115314394/drv_encx24j600_spi_bus.o
 .data          0x00000000        0x0 build/e16_encx24j600_spiflash/production/_ext/2115314394/drv_encx24j600_spi_bus.o
 .bss           0x00000000        0x0 build/e16_encx24j600_spiflash/production/_ext/2115314394/drv_encx24j600_spi_bus.o
 .reginfo       0x00000000       0x18 build/e16_encx24j600_spiflash/production/_ext/2115314394/drv_encx24j600_spi_bus.o
 .text          0x00000000        0x0 build/e16_encx24j600_spiflash/production/_ext/1455582699/drv_encx24j600_closed_state.o
 .data          0x00000000        0x0 build/e16_encx24j600_spiflash/production/_ext/1455582699/drv_encx24j600_closed_state.o
 .bss           0x00000000        0x0 build/e16_encx24j600_spiflash/production/_ext/1455582699/drv_encx24j600_closed_state.o
 .reginfo       0x00000000       0x18 build/e16_encx24j600_spiflash/production/_ext/1455582699/drv_encx24j600_closed_state.o
 .text          0x00000000        0x0 build/e16_encx24j600_spiflash/production/_ext/1730942135/drv_encx24j600_initialization_state.o
 .data          0x00000000        0x0 build/e16_encx24j600_spiflash/production/_ext/1730942135/drv_encx24j600_initialization_state.o
 .bss           0x00000000        0x0 build/e16_encx24j600_spiflash/production/_ext/1730942135/drv_encx24j600_initialization_state.o
 .reginfo       0x00000000       0x18 build/e16_encx24j600_spiflash/production/_ext/1730942135/drv_encx24j600_initialization_state.o
 .text.DRV_ENCX24J600_InitStateEnter
                0x00000000        0xc build/e16_encx24j600_spiflash/production/_ext/1730942135/drv_encx24j600_initialization_state.o
 .text          0x00000000        0x0 build/e16_encx24j600_spiflash/production/_ext/1730942135/drv_encx24j600_configure_state.o
 .data          0x00000000        0x0 build/e16_encx24j600_spiflash/production/_ext/1730942135/drv_encx24j600_configure_state.o
 .bss           0x00000000        0x0 build/e16_encx24j600_spiflash/production/_ext/1730942135/drv_encx24j600_configure_state.o
 .reginfo       0x00000000       0x18 build/e16_encx24j600_spiflash/production/_ext/1730942135/drv_encx24j600_configure_state.o
 .text          0x00000000        0x0 build/e16_encx24j600_spiflash/production/_ext/1730942135/drv_encx24j600_detect_state.o
 .data          0x00000000        0x0 build/e16_encx24j600_spiflash/production/_ext/1730942135/drv_encx24j600_detect_state.o
 .bss           0x00000000        0x0 build/e16_encx24j600_spiflash/production/_ext/1730942135/drv_encx24j600_detect_state.o
 .reginfo       0x00000000       0x18 build/e16_encx24j600_spiflash/production/_ext/1730942135/drv_encx24j600_detect_state.o
 .text          0x00000000        0x0 build/e16_encx24j600_spiflash/production/_ext/1730942135/drv_encx24j600_reset_state.o
 .data          0x00000000        0x0 build/e16_encx24j600_spiflash/production/_ext/1730942135/drv_encx24j600_reset_state.o
 .bss           0x00000000        0x0 build/e16_encx24j600_spiflash/production/_ext/1730942135/drv_encx24j600_reset_state.o
 .reginfo       0x00000000       0x18 build/e16_encx24j600_spiflash/production/_ext/1730942135/drv_encx24j600_reset_state.o
 .text          0x00000000        0x0 build/e16_encx24j600_spiflash/production/_ext/1210338337/drv_encx24j600_tx_packet.o
 .data          0x00000000        0x0 build/e16_encx24j600_spiflash/production/_ext/1210338337/drv_encx24j600_tx_packet.o
 .bss           0x00000000        0x0 build/e16_encx24j600_spiflash/production/_ext/1210338337/drv_encx24j600_tx_packet.o
 .reginfo       0x00000000       0x18 build/e16_encx24j600_spiflash/production/_ext/1210338337/drv_encx24j600_tx_packet.o
 .text          0x00000000        0x0 build/e16_encx24j600_spiflash/production/_ext/1210338337/drv_encx24j600_rx_packet.o
 .data          0x00000000        0x0 build/e16_encx24j600_spiflash/production/_ext/1210338337/drv_encx24j600_rx_packet.o
 .bss           0x00000000        0x0 build/e16_encx24j600_spiflash/production/_ext/1210338337/drv_encx24j600_rx_packet.o
 .reginfo       0x00000000       0x18 build/e16_encx24j600_spiflash/production/_ext/1210338337/drv_encx24j600_rx_packet.o
 .text          0x00000000        0x0 build/e16_encx24j600_spiflash/production/_ext/1207282394/drv_encx24j600_running_state.o
 .data          0x00000000        0x0 build/e16_encx24j600_spiflash/production/_ext/1207282394/drv_encx24j600_running_state.o
 .bss           0x00000000        0x0 build/e16_encx24j600_spiflash/production/_ext/1207282394/drv_encx24j600_running_state.o
 .reginfo       0x00000000       0x18 build/e16_encx24j600_spiflash/production/_ext/1207282394/drv_encx24j600_running_state.o
 .text          0x00000000        0x0 build/e16_encx24j600_spiflash/production/_ext/1207282394/drv_encx24j600_change_duplex_state.o
 .data          0x00000000        0x0 build/e16_encx24j600_spiflash/production/_ext/1207282394/drv_encx24j600_change_duplex_state.o
 .bss           0x00000000        0x0 build/e16_encx24j600_spiflash/production/_ext/1207282394/drv_encx24j600_change_duplex_state.o
 .reginfo       0x00000000       0x18 build/e16_encx24j600_spiflash/production/_ext/1207282394/drv_encx24j600_change_duplex_state.o
 .text          0x00000000        0x0 build/e16_encx24j600_spiflash/production/_ext/1207282394/drv_encx24j600_check_int_state.o
 .data          0x00000000        0x0 build/e16_encx24j600_spiflash/production/_ext/1207282394/drv_encx24j600_check_int_state.o
 .bss           0x00000000        0x0 build/e16_encx24j600_spiflash/production/_ext/1207282394/drv_encx24j600_check_int_state.o
 .reginfo       0x00000000       0x18 build/e16_encx24j600_spiflash/production/_ext/1207282394/drv_encx24j600_check_int_state.o
 .text          0x00000000        0x0 build/e16_encx24j600_spiflash/production/_ext/1207282394/drv_encx24j600_check_status_state.o
 .data          0x00000000        0x0 build/e16_encx24j600_spiflash/production/_ext/1207282394/drv_encx24j600_check_status_state.o
 .bss           0x00000000        0x0 build/e16_encx24j600_spiflash/production/_ext/1207282394/drv_encx24j600_check_status_state.o
 .reginfo       0x00000000       0x18 build/e16_encx24j600_spiflash/production/_ext/1207282394/drv_encx24j600_check_status_state.o
 .text          0x00000000        0x0 build/e16_encx24j600_spiflash/production/_ext/1207282394/drv_encx24j600_check_tx_status_state.o
 .data          0x00000000        0x0 build/e16_encx24j600_spiflash/production/_ext/1207282394/drv_encx24j600_check_tx_status_state.o
 .bss           0x00000000        0x0 build/e16_encx24j600_spiflash/production/_ext/1207282394/drv_encx24j600_check_tx_status_state.o
 .reginfo       0x00000000       0x18 build/e16_encx24j600_spiflash/production/_ext/1207282394/drv_encx24j600_check_tx_status_state.o
 .text.DRV_ENCX24J600_ChkTxStatusStateEnter
                0x00000000       0x10 build/e16_encx24j600_spiflash/production/_ext/1207282394/drv_encx24j600_check_tx_status_state.o
 .text.DRV_ENCX24J600_ChkTxStatusStateExit
                0x00000000        0x8 build/e16_encx24j600_spiflash/production/_ext/1207282394/drv_encx24j600_check_tx_status_state.o
 .text          0x00000000        0x0 build/e16_encx24j600_spiflash/production/_ext/1207282394/drv_encx24j600_reset_rx_state.o
 .data          0x00000000        0x0 build/e16_encx24j600_spiflash/production/_ext/1207282394/drv_encx24j600_reset_rx_state.o
 .bss           0x00000000        0x0 build/e16_encx24j600_spiflash/production/_ext/1207282394/drv_encx24j600_reset_rx_state.o
 .reginfo       0x00000000       0x18 build/e16_encx24j600_spiflash/production/_ext/1207282394/drv_encx24j600_reset_rx_state.o
 .text          0x00000000        0x0 build/e16_encx24j600_spiflash/production/_ext/772120936/drv_encx24j600_api.o
 .data          0x00000000        0x0 build/e16_encx24j600_spiflash/production/_ext/772120936/drv_encx24j600_api.o
 .bss           0x00000000        0x0 build/e16_encx24j600_spiflash/production/_ext/772120936/drv_encx24j600_api.o
 .reginfo       0x00000000       0x18 build/e16_encx24j600_spiflash/production/_ext/772120936/drv_encx24j600_api.o
 .text          0x00000000        0x0 build/e16_encx24j600_spiflash/production/_ext/772120936/drv_encx24j600_main_state.o
 .data          0x00000000        0x0 build/e16_encx24j600_spiflash/production/_ext/772120936/drv_encx24j600_main_state.o
 .bss           0x00000000        0x0 build/e16_encx24j600_spiflash/production/_ext/772120936/drv_encx24j600_main_state.o
 .reginfo       0x00000000       0x18 build/e16_encx24j600_spiflash/production/_ext/772120936/drv_encx24j600_main_state.o
 .text          0x00000000        0x0 build/e16_encx24j600_spiflash/production/_ext/772120936/drv_encx24j600_utils.o
 .data          0x00000000        0x0 build/e16_encx24j600_spiflash/production/_ext/772120936/drv_encx24j600_utils.o
 .bss           0x00000000        0x0 build/e16_encx24j600_spiflash/production/_ext/772120936/drv_encx24j600_utils.o
 .reginfo       0x00000000       0x18 build/e16_encx24j600_spiflash/production/_ext/772120936/drv_encx24j600_utils.o
 .text          0x00000000        0x0 build/e16_encx24j600_spiflash/production/_ext/1324760662/drv_spi.o
 .reginfo       0x00000000       0x18 build/e16_encx24j600_spiflash/production/_ext/1324760662/drv_spi.o
 .text.DRV_SPI_Deinitialize
                0x00000000      0x114 build/e16_encx24j600_spiflash/production/_ext/1324760662/drv_spi.o
 .text.DRV_SPI_Status
                0x00000000        0x8 build/e16_encx24j600_spiflash/production/_ext/1324760662/drv_spi.o
 .text          0x00000000        0x0 build/e16_encx24j600_spiflash/production/_ext/1385053818/drv_spi_sys_queue_fifo.o
 .data          0x00000000        0x0 build/e16_encx24j600_spiflash/production/_ext/1385053818/drv_spi_sys_queue_fifo.o
 .bss           0x00000000        0x0 build/e16_encx24j600_spiflash/production/_ext/1385053818/drv_spi_sys_queue_fifo.o
 .reginfo       0x00000000       0x18 build/e16_encx24j600_spiflash/production/_ext/1385053818/drv_spi_sys_queue_fifo.o
 .text.DRV_SPI_SYS_QUEUE_DestroyQueue
                0x00000000       0xa8 build/e16_encx24j600_spiflash/production/_ext/1385053818/drv_spi_sys_queue_fifo.o
 .text.DRV_SPI_SYS_QUEUE_Peek
                0x00000000       0x44 build/e16_encx24j600_spiflash/production/_ext/1385053818/drv_spi_sys_queue_fifo.o
 .text.DRV_SPI_SYS_QUEUE_Lock
                0x00000000       0x1c build/e16_encx24j600_spiflash/production/_ext/1385053818/drv_spi_sys_queue_fifo.o
 .text.DRV_SPI_SYS_QUEUE_Unlock
                0x00000000       0x1c build/e16_encx24j600_spiflash/production/_ext/1385053818/drv_spi_sys_queue_fifo.o
 .text.DRV_SPI_SYS_QUEUE_CreateQueueLock
                0x00000000       0x1c build/e16_encx24j600_spiflash/production/_ext/1385053818/drv_spi_sys_queue_fifo.o
 .text.DRV_SPI_SYS_QUEUE_DestroyQueueLock
                0x00000000       0x58 build/e16_encx24j600_spiflash/production/_ext/1385053818/drv_spi_sys_queue_fifo.o
 .text.DRV_SPI_SYS_QUEUE_FreeElementLock
                0x00000000       0x60 build/e16_encx24j600_spiflash/production/_ext/1385053818/drv_spi_sys_queue_fifo.o
 .text.DRV_SPI_SYS_QUEUE_DequeueLock
                0x00000000       0x60 build/e16_encx24j600_spiflash/production/_ext/1385053818/drv_spi_sys_queue_fifo.o
 .text.DRV_SPI_SYS_QUEUE_QueueManagerStatus
                0x00000000        0x8 build/e16_encx24j600_spiflash/production/_ext/1385053818/drv_spi_sys_queue_fifo.o
 .text.DRV_SPI_SYS_QUEUE_QueueStatus
                0x00000000        0x8 build/e16_encx24j600_spiflash/production/_ext/1385053818/drv_spi_sys_queue_fifo.o
 .text._DRV_SPI_SYS_QUEUE_LockQueueManager
                0x00000000        0x8 build/e16_encx24j600_spiflash/production/_ext/1385053818/drv_spi_sys_queue_fifo.o
 .text._DRV_SPI_SYS_QUEUE_UnlockQueueManager
                0x00000000        0x8 build/e16_encx24j600_spiflash/production/_ext/1385053818/drv_spi_sys_queue_fifo.o
 .text          0x00000000        0x0 build/e16_encx24j600_spiflash/production/_ext/1112873152/drv_sst25vf016b.o
 .data          0x00000000        0x0 build/e16_encx24j600_spiflash/production/_ext/1112873152/drv_sst25vf016b.o
 .bss           0x00000000        0x0 build/e16_encx24j600_spiflash/production/_ext/1112873152/drv_sst25vf016b.o
 .reginfo       0x00000000       0x18 build/e16_encx24j600_spiflash/production/_ext/1112873152/drv_sst25vf016b.o
 .text.DRV_SST25VF016B_Deinitialize
                0x00000000       0xbc build/e16_encx24j600_spiflash/production/_ext/1112873152/drv_sst25vf016b.o
 .text.DRV_SST25VF016B_Status
                0x00000000       0x78 build/e16_encx24j600_spiflash/production/_ext/1112873152/drv_sst25vf016b.o
 .text.DRV_SST25VF016B_ClientStatus
                0x00000000       0x3c build/e16_encx24j600_spiflash/production/_ext/1112873152/drv_sst25vf016b.o
 .text          0x00000000        0x0 build/e16_encx24j600_spiflash/production/_ext/1335609251/SPIFlash.o
 .data          0x00000000        0x0 build/e16_encx24j600_spiflash/production/_ext/1335609251/SPIFlash.o
 .bss           0x00000000        0x0 build/e16_encx24j600_spiflash/production/_ext/1335609251/SPIFlash.o
 .reginfo       0x00000000       0x18 build/e16_encx24j600_spiflash/production/_ext/1335609251/SPIFlash.o
 .text          0x00000000        0x0 build/e16_encx24j600_spiflash/production/_ext/941160041/drv_tmr.o
 .data          0x00000000        0x0 build/e16_encx24j600_spiflash/production/_ext/941160041/drv_tmr.o
 .reginfo       0x00000000       0x18 build/e16_encx24j600_spiflash/production/_ext/941160041/drv_tmr.o
 .text.DRV_TMR_Deinitialize
                0x00000000       0x54 build/e16_encx24j600_spiflash/production/_ext/941160041/drv_tmr.o
 .text.DRV_TMR_Status
                0x00000000       0x28 build/e16_encx24j600_spiflash/production/_ext/941160041/drv_tmr.o
 .text.DRV_TMR_Tasks_ISR
                0x00000000       0x1c build/e16_encx24j600_spiflash/production/_ext/941160041/drv_tmr.o
 .text.DRV_TMR_ClientStatus
                0x00000000       0x44 build/e16_encx24j600_spiflash/production/_ext/941160041/drv_tmr.o
 .text.DRV_TMR_CounterValueSet
                0x00000000      0x11c build/e16_encx24j600_spiflash/production/_ext/941160041/drv_tmr.o
 .text.DRV_TMR_CounterValue16BitSet
                0x00000000       0x1c build/e16_encx24j600_spiflash/production/_ext/941160041/drv_tmr.o
 .text.DRV_TMR_CounterValue32BitSet
                0x00000000       0x1c build/e16_encx24j600_spiflash/production/_ext/941160041/drv_tmr.o
 .text.DRV_TMR_CounterValue16BitGet
                0x00000000       0x20 build/e16_encx24j600_spiflash/production/_ext/941160041/drv_tmr.o
 .text.DRV_TMR_CounterValue32BitGet
                0x00000000       0x1c build/e16_encx24j600_spiflash/production/_ext/941160041/drv_tmr.o
 .text.DRV_TMR_CounterClear
                0x00000000      0x114 build/e16_encx24j600_spiflash/production/_ext/941160041/drv_tmr.o
 .text.DRV_TMR_Alarm16BitRegister
                0x00000000       0x28 build/e16_encx24j600_spiflash/production/_ext/941160041/drv_tmr.o
 .text.DRV_TMR_Alarm32BitRegister
                0x00000000       0x24 build/e16_encx24j600_spiflash/production/_ext/941160041/drv_tmr.o
 .text.DRV_TMR_AlarmPeriodSet
                0x00000000      0x160 build/e16_encx24j600_spiflash/production/_ext/941160041/drv_tmr.o
 .text.DRV_TMR_AlarmPeriod16BitSet
                0x00000000       0x1c build/e16_encx24j600_spiflash/production/_ext/941160041/drv_tmr.o
 .text.DRV_TMR_AlarmPeriod32BitSet
                0x00000000       0x1c build/e16_encx24j600_spiflash/production/_ext/941160041/drv_tmr.o
 .text.DRV_TMR_AlarmPeriodGet
                0x00000000       0x3c build/e16_encx24j600_spiflash/production/_ext/941160041/drv_tmr.o
 .text.DRV_TMR_AlarmPeriod16BitGet
                0x00000000       0x20 build/e16_encx24j600_spiflash/production/_ext/941160041/drv_tmr.o
 .text.DRV_TMR_AlarmPeriod32BitGet
                0x00000000       0x1c build/e16_encx24j600_spiflash/production/_ext/941160041/drv_tmr.o
 .text.DRV_TMR_AlarmDeregister
                0x00000000       0x60 build/e16_encx24j600_spiflash/production/_ext/941160041/drv_tmr.o
 .text.DRV_TMR_Alarm16BitDeregister
                0x00000000       0x1c build/e16_encx24j600_spiflash/production/_ext/941160041/drv_tmr.o
 .text.DRV_TMR_Alarm32BitDeregister
                0x00000000       0x1c build/e16_encx24j600_spiflash/production/_ext/941160041/drv_tmr.o
 .text.DRV_TMR_Stop
                0x00000000       0x80 build/e16_encx24j600_spiflash/production/_ext/941160041/drv_tmr.o
 .text.DRV_TMR_AlarmHasElapsed
                0x00000000       0x3c build/e16_encx24j600_spiflash/production/_ext/941160041/drv_tmr.o
 .text.DRV_TMR_OperationModeGet
                0x00000000       0x3c build/e16_encx24j600_spiflash/production/_ext/941160041/drv_tmr.o
 .text.DRV_TMR_DividerRangeGet
                0x00000000       0x74 build/e16_encx24j600_spiflash/production/_ext/941160041/drv_tmr.o
 .text.DRV_TMR_GateModeSet
                0x00000000      0x12c build/e16_encx24j600_spiflash/production/_ext/941160041/drv_tmr.o
 .text.DRV_TMR_GateModeClear
                0x00000000      0x12c build/e16_encx24j600_spiflash/production/_ext/941160041/drv_tmr.o
 .text.DRV_TMR_ClockSet
                0x00000000       0xa4 build/e16_encx24j600_spiflash/production/_ext/941160041/drv_tmr.o
 .text.DRV_TMR_PrescalerGet
                0x00000000      0x1fc build/e16_encx24j600_spiflash/production/_ext/941160041/drv_tmr.o
 .text          0x00000000        0x0 build/e16_encx24j600_spiflash/production/_ext/821589181/drv_usart.o
 .data          0x00000000        0x0 build/e16_encx24j600_spiflash/production/_ext/821589181/drv_usart.o
 .bss           0x00000000        0x0 build/e16_encx24j600_spiflash/production/_ext/821589181/drv_usart.o
 .reginfo       0x00000000       0x18 build/e16_encx24j600_spiflash/production/_ext/821589181/drv_usart.o
 .text.DRV_USART_Deinitialize
                0x00000000      0x1c8 build/e16_encx24j600_spiflash/production/_ext/821589181/drv_usart.o
 .text.DRV_USART_Status
                0x00000000       0x78 build/e16_encx24j600_spiflash/production/_ext/821589181/drv_usart.o
 .text.DRV_USART_ByteTransmitCallbackSet
                0x00000000       0x40 build/e16_encx24j600_spiflash/production/_ext/821589181/drv_usart.o
 .text.DRV_USART_ByteReceiveCallbackSet
                0x00000000       0x40 build/e16_encx24j600_spiflash/production/_ext/821589181/drv_usart.o
 .text.DRV_USART_ByteErrorCallbackSet
                0x00000000       0x40 build/e16_encx24j600_spiflash/production/_ext/821589181/drv_usart.o
 .text.DRV_USART_ErrorGet
                0x00000000       0x48 build/e16_encx24j600_spiflash/production/_ext/821589181/drv_usart.o
 .text.DRV_USART_TransferStatus
                0x00000000      0x250 build/e16_encx24j600_spiflash/production/_ext/821589181/drv_usart.o
 .text._DRV_USART_ClientBufferQueueObjectsRemove
                0x00000000      0x218 build/e16_encx24j600_spiflash/production/_ext/821589181/drv_usart.o
 .text.DRV_USART_Close
                0x00000000       0x94 build/e16_encx24j600_spiflash/production/_ext/821589181/drv_usart.o
 .text._DRV_USART_ByteTransmitTasks
                0x00000000       0x80 build/e16_encx24j600_spiflash/production/_ext/821589181/drv_usart.o
 .text._DRV_USART_ByteReceiveTasks
                0x00000000       0x74 build/e16_encx24j600_spiflash/production/_ext/821589181/drv_usart.o
 .text._DRV_USART_ByteErrorTasks
                0x00000000       0x74 build/e16_encx24j600_spiflash/production/_ext/821589181/drv_usart.o
 .text          0x00000000        0x0 build/e16_encx24j600_spiflash/production/_ext/821589181/drv_usart_buffer_queue.o
 .data          0x00000000        0x0 build/e16_encx24j600_spiflash/production/_ext/821589181/drv_usart_buffer_queue.o
 .bss           0x00000000        0x0 build/e16_encx24j600_spiflash/production/_ext/821589181/drv_usart_buffer_queue.o
 .reginfo       0x00000000       0x18 build/e16_encx24j600_spiflash/production/_ext/821589181/drv_usart_buffer_queue.o
 .text.DRV_USART_AddressedBufferAddWrite
                0x00000000      0x3b0 build/e16_encx24j600_spiflash/production/_ext/821589181/drv_usart_buffer_queue.o
 .text.DRV_USART_BufferProcessedSizeGet
                0x00000000       0x48 build/e16_encx24j600_spiflash/production/_ext/821589181/drv_usart_buffer_queue.o
 .text          0x00000000        0x0 build/e16_encx24j600_spiflash/production/_ext/821589181/drv_usart_read_write.o
 .data          0x00000000        0x0 build/e16_encx24j600_spiflash/production/_ext/821589181/drv_usart_read_write.o
 .bss           0x00000000        0x0 build/e16_encx24j600_spiflash/production/_ext/821589181/drv_usart_read_write.o
 .reginfo       0x00000000       0x18 build/e16_encx24j600_spiflash/production/_ext/821589181/drv_usart_read_write.o
 .text.DRV_USART_Write
                0x00000000      0x4e4 build/e16_encx24j600_spiflash/production/_ext/821589181/drv_usart_read_write.o
 .text          0x00000000        0x0 build/e16_encx24j600_spiflash/production/_ext/1595536294/UART.o
 .data          0x00000000        0x0 build/e16_encx24j600_spiflash/production/_ext/1595536294/UART.o
 .bss           0x00000000        0x0 build/e16_encx24j600_spiflash/production/_ext/1595536294/UART.o
 .reginfo       0x00000000       0x18 build/e16_encx24j600_spiflash/production/_ext/1595536294/UART.o
 .text.ReadStringUART
                0x00000000       0xb4 build/e16_encx24j600_spiflash/production/_ext/1595536294/UART.o
 .text          0x00000000        0x0 build/e16_encx24j600_spiflash/production/_ext/871719959/net_pres.o
 .data          0x00000000        0x0 build/e16_encx24j600_spiflash/production/_ext/871719959/net_pres.o
 .bss           0x00000000        0x0 build/e16_encx24j600_spiflash/production/_ext/871719959/net_pres.o
 .reginfo       0x00000000       0x18 build/e16_encx24j600_spiflash/production/_ext/871719959/net_pres.o
 .text.NET_PRES_Deinitialize
                0x00000000      0x138 build/e16_encx24j600_spiflash/production/_ext/871719959/net_pres.o
 .text.NET_PRES_Reinitialize
                0x00000000       0x30 build/e16_encx24j600_spiflash/production/_ext/871719959/net_pres.o
 .text.NET_PRES_SocketBind
                0x00000000       0x94 build/e16_encx24j600_spiflash/production/_ext/871719959/net_pres.o
 .text.NET_PRES_SocketRemoteBind
                0x00000000       0x94 build/e16_encx24j600_spiflash/production/_ext/871719959/net_pres.o
 .text.NET_PRES_SocketOptionsGet
                0x00000000       0x90 build/e16_encx24j600_spiflash/production/_ext/871719959/net_pres.o
 .text.NET_PRES_SocketWasReset
                0x00000000       0x90 build/e16_encx24j600_spiflash/production/_ext/871719959/net_pres.o
 .text.NET_PRES_SocketDisconnect
                0x00000000       0xe0 build/e16_encx24j600_spiflash/production/_ext/871719959/net_pres.o
 .text.NET_PRES_SocketConnect
                0x00000000       0x90 build/e16_encx24j600_spiflash/production/_ext/871719959/net_pres.o
 .text.NET_PRES_SocketInfoGet
                0x00000000       0x90 build/e16_encx24j600_spiflash/production/_ext/871719959/net_pres.o
 .text.NET_PRES_SocketPeek
                0x00000000       0xd8 build/e16_encx24j600_spiflash/production/_ext/871719959/net_pres.o
 .text.NET_PRES_SocketDiscard
                0x00000000       0x98 build/e16_encx24j600_spiflash/production/_ext/871719959/net_pres.o
 .text.NET_PRES_SocketSignalHandlerDeregister
                0x00000000       0x90 build/e16_encx24j600_spiflash/production/_ext/871719959/net_pres.o
 .text.NET_PRES_SocketIsNegotiatingEncryption
                0x00000000       0x68 build/e16_encx24j600_spiflash/production/_ext/871719959/net_pres.o
 .text.NET_PRES_SocketEncryptSocket
                0x00000000       0x88 build/e16_encx24j600_spiflash/production/_ext/871719959/net_pres.o
 .text.NET_PRES_SocketIsOpenModeSupported
                0x00000000      0x148 build/e16_encx24j600_spiflash/production/_ext/871719959/net_pres.o
 .text.NET_PRES_Status
                0x00000000       0x2c build/e16_encx24j600_spiflash/production/_ext/871719959/net_pres.o
 .text.NET_PRES_SocketLastError
                0x00000000       0x6c build/e16_encx24j600_spiflash/production/_ext/871719959/net_pres.o
 .text.NET_PRES_SocketGetTransportHandle
                0x00000000       0x6c build/e16_encx24j600_spiflash/production/_ext/871719959/net_pres.o
 .text          0x00000000        0x0 build/e16_encx24j600_spiflash/production/_ext/1891376032/sys_command.o
 .data          0x00000000        0x0 build/e16_encx24j600_spiflash/production/_ext/1891376032/sys_command.o
 .reginfo       0x00000000       0x18 build/e16_encx24j600_spiflash/production/_ext/1891376032/sys_command.o
 .text.SYS_CMD_RegisterCallback
                0x00000000       0x5c build/e16_encx24j600_spiflash/production/_ext/1891376032/sys_command.o
 .text.SYS_CMD_READY_TO_WRITE
                0x00000000       0x88 build/e16_encx24j600_spiflash/production/_ext/1891376032/sys_command.o
 .text          0x00000000        0x0 build/e16_encx24j600_spiflash/production/_ext/598853952/sys_buffer.o
 .data          0x00000000        0x0 build/e16_encx24j600_spiflash/production/_ext/598853952/sys_buffer.o
 .bss           0x00000000        0x0 build/e16_encx24j600_spiflash/production/_ext/598853952/sys_buffer.o
 .reginfo       0x00000000       0x18 build/e16_encx24j600_spiflash/production/_ext/598853952/sys_buffer.o
 .text.BUFFER_Initialize
                0x00000000       0x48 build/e16_encx24j600_spiflash/production/_ext/598853952/sys_buffer.o
 .text.BUFFER_Reset
                0x00000000       0x18 build/e16_encx24j600_spiflash/production/_ext/598853952/sys_buffer.o
 .text.BUFFER_WriteByte
                0x00000000       0x2c build/e16_encx24j600_spiflash/production/_ext/598853952/sys_buffer.o
 .text.BUFFER_WriteDoubleByte
                0x00000000       0x4c build/e16_encx24j600_spiflash/production/_ext/598853952/sys_buffer.o
 .text.BUFFER_ReadByte
                0x00000000       0x28 build/e16_encx24j600_spiflash/production/_ext/598853952/sys_buffer.o
 .text.BUFFER_ReadDoubleByte
                0x00000000       0x2c build/e16_encx24j600_spiflash/production/_ext/598853952/sys_buffer.o
 .text.BUFFER_Flush
                0x00000000       0x14 build/e16_encx24j600_spiflash/production/_ext/598853952/sys_buffer.o
 .text          0x00000000        0x0 build/e16_encx24j600_spiflash/production/_ext/598853952/sys_queue.o
 .data          0x00000000        0x0 build/e16_encx24j600_spiflash/production/_ext/598853952/sys_queue.o
 .bss           0x00000000        0x0 build/e16_encx24j600_spiflash/production/_ext/598853952/sys_queue.o
 .reginfo       0x00000000       0x18 build/e16_encx24j600_spiflash/production/_ext/598853952/sys_queue.o
 .text.QUEUE_Initialize
                0x00000000       0x18 build/e16_encx24j600_spiflash/production/_ext/598853952/sys_queue.o
 .text.QUEUE_Reset
                0x00000000       0x14 build/e16_encx24j600_spiflash/production/_ext/598853952/sys_queue.o
 .text.QUEUE_Push
                0x00000000       0xc0 build/e16_encx24j600_spiflash/production/_ext/598853952/sys_queue.o
 .text.QUEUE_Pop
                0x00000000       0x34 build/e16_encx24j600_spiflash/production/_ext/598853952/sys_queue.o
 .text          0x00000000        0x0 build/e16_encx24j600_spiflash/production/_ext/1434663852/sys_console.o
 .data          0x00000000        0x0 build/e16_encx24j600_spiflash/production/_ext/1434663852/sys_console.o
 .reginfo       0x00000000       0x18 build/e16_encx24j600_spiflash/production/_ext/1434663852/sys_console.o
 .text.SYS_CONSOLE_Deinitialize
                0x00000000       0x44 build/e16_encx24j600_spiflash/production/_ext/1434663852/sys_console.o
 .text.SYS_CONSOLE_Reinitialize
                0x00000000       0x68 build/e16_encx24j600_spiflash/production/_ext/1434663852/sys_console.o
 .text.SYS_CONSOLE_RegisterCallback
                0x00000000       0x4c build/e16_encx24j600_spiflash/production/_ext/1434663852/sys_console.o
 .text          0x00000000        0x0 build/e16_encx24j600_spiflash/production/_ext/1434663852/sys_console_uart.o
 .reginfo       0x00000000       0x18 build/e16_encx24j600_spiflash/production/_ext/1434663852/sys_console_uart.o
 .text          0x00000000        0x0 build/e16_encx24j600_spiflash/production/_ext/2137108136/sys_debug.o
 .data          0x00000000        0x0 build/e16_encx24j600_spiflash/production/_ext/2137108136/sys_debug.o
 .bss           0x00000000      0x800 build/e16_encx24j600_spiflash/production/_ext/2137108136/sys_debug.o
 .reginfo       0x00000000       0x18 build/e16_encx24j600_spiflash/production/_ext/2137108136/sys_debug.o
 .text.SYS_DEBUG_Reinitialize
                0x00000000       0x2c build/e16_encx24j600_spiflash/production/_ext/2137108136/sys_debug.o
 .text.SYS_DEBUG_Deinitialize
                0x00000000       0x1c build/e16_encx24j600_spiflash/production/_ext/2137108136/sys_debug.o
 .text.SYS_DEBUG_Tasks
                0x00000000        0x8 build/e16_encx24j600_spiflash/production/_ext/2137108136/sys_debug.o
 .text.SYS_DEBUG_Status
                0x00000000        0xc build/e16_encx24j600_spiflash/production/_ext/2137108136/sys_debug.o
 .text.SYS_DEBUG_Print
                0x00000000       0xf8 build/e16_encx24j600_spiflash/production/_ext/2137108136/sys_debug.o
 .text.SYS_DEBUG_ErrorLevelSet
                0x00000000        0x8 build/e16_encx24j600_spiflash/production/_ext/2137108136/sys_debug.o
 .text          0x00000000        0x0 build/e16_encx24j600_spiflash/production/_ext/482662494/sys_devcon.o
 .data          0x00000000        0x0 build/e16_encx24j600_spiflash/production/_ext/482662494/sys_devcon.o
 .bss           0x00000000        0x0 build/e16_encx24j600_spiflash/production/_ext/482662494/sys_devcon.o
 .reginfo       0x00000000       0x18 build/e16_encx24j600_spiflash/production/_ext/482662494/sys_devcon.o
 .text.SYS_DEVCON_Reinitialize
                0x00000000       0x10 build/e16_encx24j600_spiflash/production/_ext/482662494/sys_devcon.o
 .text.SYS_DEVCON_Deinitialize
                0x00000000        0x8 build/e16_encx24j600_spiflash/production/_ext/482662494/sys_devcon.o
 .text.SYS_DEVCON_Status
                0x00000000        0x8 build/e16_encx24j600_spiflash/production/_ext/482662494/sys_devcon.o
 .text.SYS_DEVCON_JTAGEnable
                0x00000000       0x18 build/e16_encx24j600_spiflash/production/_ext/482662494/sys_devcon.o
 .text.SYS_DEVCON_TraceEnable
                0x00000000       0x18 build/e16_encx24j600_spiflash/production/_ext/482662494/sys_devcon.o
 .text.SYS_DEVCON_TraceDisable
                0x00000000       0x1c build/e16_encx24j600_spiflash/production/_ext/482662494/sys_devcon.o
 .text.SYS_DEVCON_PowerModeEnter
                0x00000000       0x54 build/e16_encx24j600_spiflash/production/_ext/482662494/sys_devcon.o
 .text          0x00000000        0x0 build/e16_encx24j600_spiflash/production/_ext/482662494/sys_devcon_pic32mx.o
 .data          0x00000000        0x0 build/e16_encx24j600_spiflash/production/_ext/482662494/sys_devcon_pic32mx.o
 .bss           0x00000000        0x0 build/e16_encx24j600_spiflash/production/_ext/482662494/sys_devcon_pic32mx.o
 .reginfo       0x00000000       0x18 build/e16_encx24j600_spiflash/production/_ext/482662494/sys_devcon_pic32mx.o
 .text          0x00000000        0x0 build/e16_encx24j600_spiflash/production/_ext/1750042194/sys_fs.o
 .data          0x00000000        0x0 build/e16_encx24j600_spiflash/production/_ext/1750042194/sys_fs.o
 .bss           0x00000000        0x0 build/e16_encx24j600_spiflash/production/_ext/1750042194/sys_fs.o
 .reginfo       0x00000000       0x18 build/e16_encx24j600_spiflash/production/_ext/1750042194/sys_fs.o
 .text.SYS_FS_EventHandlerSet
                0x00000000       0x10 build/e16_encx24j600_spiflash/production/_ext/1750042194/sys_fs.o
 .text._SYS_FS_StringWildCardCompare
                0x00000000       0xb0 build/e16_encx24j600_spiflash/production/_ext/1750042194/sys_fs.o
 .text.SYS_FS_FileWrite
                0x00000000       0xc0 build/e16_encx24j600_spiflash/production/_ext/1750042194/sys_fs.o
 .text.SYS_FS_FileEOF
                0x00000000       0x90 build/e16_encx24j600_spiflash/production/_ext/1750042194/sys_fs.o
 .text.SYS_FS_Error
                0x00000000        0x8 build/e16_encx24j600_spiflash/production/_ext/1750042194/sys_fs.o
 .text.SYS_FS_FileError
                0x00000000       0x20 build/e16_encx24j600_spiflash/production/_ext/1750042194/sys_fs.o
 .text.SYS_FS_DirectoryMake
                0x00000000       0xdc build/e16_encx24j600_spiflash/production/_ext/1750042194/sys_fs.o
 .text.SYS_FS_DirectoryChange
                0x00000000       0xf0 build/e16_encx24j600_spiflash/production/_ext/1750042194/sys_fs.o
 .text.SYS_FS_FileDirectoryRemove
                0x00000000       0xf0 build/e16_encx24j600_spiflash/production/_ext/1750042194/sys_fs.o
 .text.SYS_FS_CurrentDriveGet
                0x00000000       0x60 build/e16_encx24j600_spiflash/production/_ext/1750042194/sys_fs.o
 .text.SYS_FS_CurrentDriveSet
                0x00000000       0xa8 build/e16_encx24j600_spiflash/production/_ext/1750042194/sys_fs.o
 .text.SYS_FS_DriveLabelGet
                0x00000000      0x114 build/e16_encx24j600_spiflash/production/_ext/1750042194/sys_fs.o
 .text.SYS_FS_DriveLabelSet
                0x00000000      0x134 build/e16_encx24j600_spiflash/production/_ext/1750042194/sys_fs.o
 .text.SYS_FS_FileTruncate
                0x00000000       0xb8 build/e16_encx24j600_spiflash/production/_ext/1750042194/sys_fs.o
 .text.SYS_FS_CurrentWorkingDirectoryGet
                0x00000000      0x2a8 build/e16_encx24j600_spiflash/production/_ext/1750042194/sys_fs.o
 .text.SYS_FS_FileDirectoryModeSet
                0x00000000      0x100 build/e16_encx24j600_spiflash/production/_ext/1750042194/sys_fs.o
 .text.SYS_FS_FileDirectoryTimeSet
                0x00000000      0x120 build/e16_encx24j600_spiflash/production/_ext/1750042194/sys_fs.o
 .text.SYS_FS_FileDirectoryRenameMove
                0x00000000      0x14c build/e16_encx24j600_spiflash/production/_ext/1750042194/sys_fs.o
 .text.SYS_FS_FileSync
                0x00000000       0xb8 build/e16_encx24j600_spiflash/production/_ext/1750042194/sys_fs.o
 .text.SYS_FS_FileStringGet
                0x00000000       0xd0 build/e16_encx24j600_spiflash/production/_ext/1750042194/sys_fs.o
 .text.SYS_FS_FileCharacterPut
                0x00000000       0xc4 build/e16_encx24j600_spiflash/production/_ext/1750042194/sys_fs.o
 .text.SYS_FS_FileStringPut
                0x00000000       0xc4 build/e16_encx24j600_spiflash/production/_ext/1750042194/sys_fs.o
 .text.SYS_FS_FilePrintf
                0x00000000       0xb4 build/e16_encx24j600_spiflash/production/_ext/1750042194/sys_fs.o
 .text.SYS_FS_FileTestError
                0x00000000       0x8c build/e16_encx24j600_spiflash/production/_ext/1750042194/sys_fs.o
 .text.SYS_FS_DriveFormat
                0x00000000       0xa8 build/e16_encx24j600_spiflash/production/_ext/1750042194/sys_fs.o
 .text.SYS_FS_DirOpen
                0x00000000      0x16c build/e16_encx24j600_spiflash/production/_ext/1750042194/sys_fs.o
 .text.SYS_FS_DirRead
                0x00000000       0xb8 build/e16_encx24j600_spiflash/production/_ext/1750042194/sys_fs.o
 .text.SYS_FS_DirRewind
                0x00000000       0xbc build/e16_encx24j600_spiflash/production/_ext/1750042194/sys_fs.o
 .text.SYS_FS_DirSearch
                0x00000000       0xf8 build/e16_encx24j600_spiflash/production/_ext/1750042194/sys_fs.o
 .text.SYS_FS_DirClose
                0x00000000       0x90 build/e16_encx24j600_spiflash/production/_ext/1750042194/sys_fs.o
 .text.SYS_FS_DrivePartition
                0x00000000       0xa8 build/e16_encx24j600_spiflash/production/_ext/1750042194/sys_fs.o
 .text.SYS_FS_DriveSectorGet
                0x00000000      0x120 build/e16_encx24j600_spiflash/production/_ext/1750042194/sys_fs.o
 .text          0x00000000        0x0 build/e16_encx24j600_spiflash/production/_ext/1750042194/sys_fs_media_manager.o
 .bss           0x00000000        0x0 build/e16_encx24j600_spiflash/production/_ext/1750042194/sys_fs_media_manager.o
 .reginfo       0x00000000       0x18 build/e16_encx24j600_spiflash/production/_ext/1750042194/sys_fs_media_manager.o
 .text.SYS_FS_MEDIA_MANAGER_DeRegister
                0x00000000       0x18 build/e16_encx24j600_spiflash/production/_ext/1750042194/sys_fs_media_manager.o
 .text.SYS_FS_MEDIA_MANAGER_SectorRead
                0x00000000       0xa0 build/e16_encx24j600_spiflash/production/_ext/1750042194/sys_fs_media_manager.o
 .text.SYS_FS_MEDIA_MANAGER_RegisterTransferHandler
                0x00000000        0xc build/e16_encx24j600_spiflash/production/_ext/1750042194/sys_fs_media_manager.o
 .text.SYS_FS_MEDIA_MANAGER_GetMediaGeometry
                0x00000000       0x38 build/e16_encx24j600_spiflash/production/_ext/1750042194/sys_fs_media_manager.o
 .text.SYS_FS_MEDIA_MANAGER_TransferTask
                0x00000000       0x4c build/e16_encx24j600_spiflash/production/_ext/1750042194/sys_fs_media_manager.o
 .text          0x00000000        0x0 build/e16_encx24j600_spiflash/production/_ext/614935175/mpfs.o
 .data          0x00000000        0x0 build/e16_encx24j600_spiflash/production/_ext/614935175/mpfs.o
 .reginfo       0x00000000       0x18 build/e16_encx24j600_spiflash/production/_ext/614935175/mpfs.o
 .text.MPFSGetLong
                0x00000000       0x24 build/e16_encx24j600_spiflash/production/_ext/614935175/mpfs.o
 .text.MPFSGetTimestamp
                0x00000000       0x74 build/e16_encx24j600_spiflash/production/_ext/614935175/mpfs.o
 .text.MPFSGetMicrotime
                0x00000000       0x74 build/e16_encx24j600_spiflash/production/_ext/614935175/mpfs.o
 .text.MPFSGetFlags
                0x00000000       0x74 build/e16_encx24j600_spiflash/production/_ext/614935175/mpfs.o
 .text.MPFSGetBytesRem
                0x00000000       0x5c build/e16_encx24j600_spiflash/production/_ext/614935175/mpfs.o
 .text.MPFSGetEndAddr
                0x00000000       0x80 build/e16_encx24j600_spiflash/production/_ext/614935175/mpfs.o
 .text.MPFSGetFilename
                0x00000000       0xb0 build/e16_encx24j600_spiflash/production/_ext/614935175/mpfs.o
 .text.MPFSGetID
                0x00000000       0x20 build/e16_encx24j600_spiflash/production/_ext/614935175/mpfs.o
 .text          0x00000000        0x0 build/e16_encx24j600_spiflash/production/_ext/1042686532/sys_int_pic32.o
 .data          0x00000000        0x0 build/e16_encx24j600_spiflash/production/_ext/1042686532/sys_int_pic32.o
 .bss           0x00000000        0x0 build/e16_encx24j600_spiflash/production/_ext/1042686532/sys_int_pic32.o
 .reginfo       0x00000000       0x18 build/e16_encx24j600_spiflash/production/_ext/1042686532/sys_int_pic32.o
 .text.SYS_INT_StatusGetAndDisable
                0x00000000       0x1c build/e16_encx24j600_spiflash/production/_ext/1042686532/sys_int_pic32.o
 .text.SYS_INT_StatusRestore
                0x00000000       0x1c build/e16_encx24j600_spiflash/production/_ext/1042686532/sys_int_pic32.o
 .text.SYS_INT_Disable
                0x00000000       0x20 build/e16_encx24j600_spiflash/production/_ext/1042686532/sys_int_pic32.o
 .text.SYS_INT_ExternalInterruptTriggerSet
                0x00000000       0x34 build/e16_encx24j600_spiflash/production/_ext/1042686532/sys_int_pic32.o
 .text          0x00000000        0x0 build/e16_encx24j600_spiflash/production/_ext/470001640/sys_random.o
 .data          0x00000000        0x0 build/e16_encx24j600_spiflash/production/_ext/470001640/sys_random.o
 .reginfo       0x00000000       0x18 build/e16_encx24j600_spiflash/production/_ext/470001640/sys_random.o
 .text.SYS_RANDOM_Deinitialize
                0x00000000        0xc build/e16_encx24j600_spiflash/production/_ext/470001640/sys_random.o
 .text.SYS_RANDOM_PseudoSeedSet
                0x00000000       0x1c build/e16_encx24j600_spiflash/production/_ext/470001640/sys_random.o
 COMMON         0x00000000      0x108 build/e16_encx24j600_spiflash/production/_ext/470001640/sys_random.o
 .text          0x00000000        0x0 build/e16_encx24j600_spiflash/production/_ext/64182180/sys_reset.o
 .data          0x00000000        0x0 build/e16_encx24j600_spiflash/production/_ext/64182180/sys_reset.o
 .bss           0x00000000        0x0 build/e16_encx24j600_spiflash/production/_ext/64182180/sys_reset.o
 .reginfo       0x00000000       0x18 build/e16_encx24j600_spiflash/production/_ext/64182180/sys_reset.o
 .text.SYS_RESET_ReasonGet
                0x00000000       0x10 build/e16_encx24j600_spiflash/production/_ext/64182180/sys_reset.o
 .text.SYS_RESET_ReasonClear
                0x00000000       0x1c build/e16_encx24j600_spiflash/production/_ext/64182180/sys_reset.o
 .text.SYS_RESET_NMIDelayCountSet
                0x00000000       0x34 build/e16_encx24j600_spiflash/production/_ext/64182180/sys_reset.o
 .text          0x00000000        0x0 build/e16_encx24j600_spiflash/production/_ext/2110151058/sys_tmr.o
 .data          0x00000000        0x0 build/e16_encx24j600_spiflash/production/_ext/2110151058/sys_tmr.o
 .reginfo       0x00000000       0x18 build/e16_encx24j600_spiflash/production/_ext/2110151058/sys_tmr.o
 .text.SYS_TMR_Deinitialize
                0x00000000       0xd0 build/e16_encx24j600_spiflash/production/_ext/2110151058/sys_tmr.o
 .text.SYS_TMR_Status
                0x00000000       0x20 build/e16_encx24j600_spiflash/production/_ext/2110151058/sys_tmr.o
 .text.SYS_TMR_ObjectCreate
                0x00000000       0x1c build/e16_encx24j600_spiflash/production/_ext/2110151058/sys_tmr.o
 .text.SYS_TMR_ObjectReload
                0x00000000       0xb4 build/e16_encx24j600_spiflash/production/_ext/2110151058/sys_tmr.o
 .text.SYS_TMR_ObjectCountGet
                0x00000000       0xe4 build/e16_encx24j600_spiflash/production/_ext/2110151058/sys_tmr.o
 .text.SYS_TMR_CallbackSingle
                0x00000000       0x1c build/e16_encx24j600_spiflash/production/_ext/2110151058/sys_tmr.o
 .text.SYS_TMR_DelayMS
                0x00000000       0x24 build/e16_encx24j600_spiflash/production/_ext/2110151058/sys_tmr.o
 .text.SYS_TMR_DelayStatusGet
                0x00000000       0x20 build/e16_encx24j600_spiflash/production/_ext/2110151058/sys_tmr.o
 .text          0x00000000        0x0 build/e16_encx24j600_spiflash/production/_ext/1886247299/sys_fs_wrapper.o
 .data          0x00000000        0x0 build/e16_encx24j600_spiflash/production/_ext/1886247299/sys_fs_wrapper.o
 .bss           0x00000000        0x0 build/e16_encx24j600_spiflash/production/_ext/1886247299/sys_fs_wrapper.o
 .reginfo       0x00000000       0x18 build/e16_encx24j600_spiflash/production/_ext/1886247299/sys_fs_wrapper.o
 .text.SYS_FS_DirOpen_Wrapper
                0x00000000       0x34 build/e16_encx24j600_spiflash/production/_ext/1886247299/sys_fs_wrapper.o
 .text          0x00000000        0x0 build/e16_encx24j600_spiflash/production/_ext/1886247299/helpers.o
 .data          0x00000000        0x0 build/e16_encx24j600_spiflash/production/_ext/1886247299/helpers.o
 .bss           0x00000000        0x0 build/e16_encx24j600_spiflash/production/_ext/1886247299/helpers.o
 .reginfo       0x00000000       0x18 build/e16_encx24j600_spiflash/production/_ext/1886247299/helpers.o
 .text.strnchr  0x00000000       0x40 build/e16_encx24j600_spiflash/production/_ext/1886247299/helpers.o
 .text.strncpy_m
                0x00000000       0xd8 build/e16_encx24j600_spiflash/production/_ext/1886247299/helpers.o
 .text          0x00000000        0x0 build/e16_encx24j600_spiflash/production/_ext/1164207549/tcp.o
 .data          0x00000000        0x0 build/e16_encx24j600_spiflash/production/_ext/1164207549/tcp.o
 .bss           0x00000000        0x0 build/e16_encx24j600_spiflash/production/_ext/1164207549/tcp.o
 .reginfo       0x00000000       0x18 build/e16_encx24j600_spiflash/production/_ext/1164207549/tcp.o
 .text.TCPIP_TCP_ConnectionSetToMSS
                0x00000000       0x10 build/e16_encx24j600_spiflash/production/_ext/1164207549/tcp.o
 .text.TCPIP_TCP_Abort
                0x00000000       0x3c build/e16_encx24j600_spiflash/production/_ext/1164207549/tcp.o
 .text.TCPIP_TCP_SocketsNumberGet
                0x00000000        0x8 build/e16_encx24j600_spiflash/production/_ext/1164207549/tcp.o
 .text.TCPIP_TCP_FifoTxFullGet
                0x00000000       0x68 build/e16_encx24j600_spiflash/production/_ext/1164207549/tcp.o
 .text.TCPIP_TCP_FifoTxFreeGet
                0x00000000       0x54 build/e16_encx24j600_spiflash/production/_ext/1164207549/tcp.o
 .text.TCPIP_TCP_Peek
                0x00000000       0x2c build/e16_encx24j600_spiflash/production/_ext/1164207549/tcp.o
 .text.TCPIP_TCP_SocketNetSet
                0x00000000       0x4c build/e16_encx24j600_spiflash/production/_ext/1164207549/tcp.o
 .text.TCPIP_TCP_SourceIPAddressSet
                0x00000000       0x54 build/e16_encx24j600_spiflash/production/_ext/1164207549/tcp.o
 .text          0x00000000        0x0 build/e16_encx24j600_spiflash/production/_ext/1164207549/udp.o
 .data          0x00000000        0x0 build/e16_encx24j600_spiflash/production/_ext/1164207549/udp.o
 .bss           0x00000000        0x0 build/e16_encx24j600_spiflash/production/_ext/1164207549/udp.o
 .reginfo       0x00000000       0x18 build/e16_encx24j600_spiflash/production/_ext/1164207549/udp.o
 .text.TCPIP_UDP_StringPut
                0x00000000       0x64 build/e16_encx24j600_spiflash/production/_ext/1164207549/udp.o
 .text.TCPIP_UDP_TxCountGet
                0x00000000       0x58 build/e16_encx24j600_spiflash/production/_ext/1164207549/udp.o
 .text.TCPIP_UDP_RxOffsetSet
                0x00000000       0x84 build/e16_encx24j600_spiflash/production/_ext/1164207549/udp.o
 .text.TCPIP_UDP_DestinationPortSet
                0x00000000       0x4c build/e16_encx24j600_spiflash/production/_ext/1164207549/udp.o
 .text.TCPIP_UDP_SetSplitPayload
                0x00000000       0xc4 build/e16_encx24j600_spiflash/production/_ext/1164207549/udp.o
 .text          0x00000000        0x0 build/e16_encx24j600_spiflash/production/_ext/1164207549/arp.o
 .data          0x00000000        0x0 build/e16_encx24j600_spiflash/production/_ext/1164207549/arp.o
 .reginfo       0x00000000       0x18 build/e16_encx24j600_spiflash/production/_ext/1164207549/arp.o
 .text.TCPIP_ARP_Resolve
                0x00000000       0x78 build/e16_encx24j600_spiflash/production/_ext/1164207549/arp.o
 .text.TCPIP_ARP_EntrySet
                0x00000000      0x174 build/e16_encx24j600_spiflash/production/_ext/1164207549/arp.o
 .text.TCPIP_ARP_EntryRemoveAll
                0x00000000       0xe8 build/e16_encx24j600_spiflash/production/_ext/1164207549/arp.o
 .text.TCPIP_ARP_CacheThresholdSet
                0x00000000       0xa8 build/e16_encx24j600_spiflash/production/_ext/1164207549/arp.o
 .text          0x00000000        0x0 build/e16_encx24j600_spiflash/production/_ext/1164207549/dhcp.o
 .data          0x00000000        0x0 build/e16_encx24j600_spiflash/production/_ext/1164207549/dhcp.o
 .reginfo       0x00000000       0x18 build/e16_encx24j600_spiflash/production/_ext/1164207549/dhcp.o
 .text.TCPIP_DHCP_IsBound
                0x00000000       0x78 build/e16_encx24j600_spiflash/production/_ext/1164207549/dhcp.o
 .text.TCPIP_DHCP_RequestTimeoutSet
                0x00000000       0xa4 build/e16_encx24j600_spiflash/production/_ext/1164207549/dhcp.o
 .text.TCPIP_DHCP_HostNameCallbackRegister
                0x00000000       0xa0 build/e16_encx24j600_spiflash/production/_ext/1164207549/dhcp.o
 .text          0x00000000        0x0 build/e16_encx24j600_spiflash/production/_ext/1164207549/dns.o
 .data          0x00000000        0x0 build/e16_encx24j600_spiflash/production/_ext/1164207549/dns.o
 .reginfo       0x00000000       0x18 build/e16_encx24j600_spiflash/production/_ext/1164207549/dns.o
 .text.TCPIP_DNS_Send_Query
                0x00000000       0x1c build/e16_encx24j600_spiflash/production/_ext/1164207549/dns.o
 .text.TCPIP_DNS_IsEnabled
                0x00000000       0x24 build/e16_encx24j600_spiflash/production/_ext/1164207549/dns.o
 .text          0x00000000        0x0 build/e16_encx24j600_spiflash/production/_ext/1164207549/http.o
 .data          0x00000000        0x0 build/e16_encx24j600_spiflash/production/_ext/1164207549/http.o
 .bss           0x00000000        0x0 build/e16_encx24j600_spiflash/production/_ext/1164207549/http.o
 .reginfo       0x00000000       0x18 build/e16_encx24j600_spiflash/production/_ext/1164207549/http.o
 .text.TCPIP_HTTP_CurrentConnectionStatusGet
                0x00000000        0x8 build/e16_encx24j600_spiflash/production/_ext/1164207549/http.o
 .text.TCPIP_HTTP_CurrentConnectionHasArgsGet
                0x00000000        0x8 build/e16_encx24j600_spiflash/production/_ext/1164207549/http.o
 .text.TCPIP_HTTP_CurrentConnectionByteCountSet
                0x00000000        0x8 build/e16_encx24j600_spiflash/production/_ext/1164207549/http.o
 .text.TCPIP_HTTP_CurrentConnectionIsAuthorizedGet
                0x00000000        0x8 build/e16_encx24j600_spiflash/production/_ext/1164207549/http.o
 .text.TCPIP_HTTP_CurrentConnectionIsAuthorizedSet
                0x00000000        0x8 build/e16_encx24j600_spiflash/production/_ext/1164207549/http.o
 .text.TCPIP_HTTP_CurrentConnectionUserDataSet
                0x00000000        0x8 build/e16_encx24j600_spiflash/production/_ext/1164207549/http.o
 .text.TCPIP_HTTP_CurrentConnectionUserDataGet
                0x00000000        0x8 build/e16_encx24j600_spiflash/production/_ext/1164207549/http.o
 .text.TCPIP_HTTP_CurrentConnectionIndexGet
                0x00000000        0x8 build/e16_encx24j600_spiflash/production/_ext/1164207549/http.o
 .text.TCPIP_HTTP_CurrentConnectionHandleGet
                0x00000000       0x38 build/e16_encx24j600_spiflash/production/_ext/1164207549/http.o
 .text.TCPIP_HTTP_ActiveConnectionCountGet
                0x00000000       0x60 build/e16_encx24j600_spiflash/production/_ext/1164207549/http.o
 .text          0x00000000        0x0 build/e16_encx24j600_spiflash/production/_ext/1164207549/nbns.o
 .data          0x00000000        0x0 build/e16_encx24j600_spiflash/production/_ext/1164207549/nbns.o
 .bss           0x00000000        0x0 build/e16_encx24j600_spiflash/production/_ext/1164207549/nbns.o
 .reginfo       0x00000000       0x18 build/e16_encx24j600_spiflash/production/_ext/1164207549/nbns.o
 .text          0x00000000        0x0 build/e16_encx24j600_spiflash/production/_ext/1164207549/smtp.o
 .data          0x00000000        0x0 build/e16_encx24j600_spiflash/production/_ext/1164207549/smtp.o
 .reginfo       0x00000000       0x18 build/e16_encx24j600_spiflash/production/_ext/1164207549/smtp.o
 .text          0x00000000        0x0 build/e16_encx24j600_spiflash/production/_ext/1164207549/tcpip_announce.o
 .data          0x00000000        0x0 build/e16_encx24j600_spiflash/production/_ext/1164207549/tcpip_announce.o
 .bss           0x00000000        0x0 build/e16_encx24j600_spiflash/production/_ext/1164207549/tcpip_announce.o
 .reginfo       0x00000000       0x18 build/e16_encx24j600_spiflash/production/_ext/1164207549/tcpip_announce.o
 .text          0x00000000        0x0 build/e16_encx24j600_spiflash/production/_ext/1164207549/tcpip_commands.o
 .data          0x00000000        0x0 build/e16_encx24j600_spiflash/production/_ext/1164207549/tcpip_commands.o
 .reginfo       0x00000000       0x18 build/e16_encx24j600_spiflash/production/_ext/1164207549/tcpip_commands.o
 .text          0x00000000        0x0 build/e16_encx24j600_spiflash/production/_ext/1164207549/hash_fnv.o
 .data          0x00000000        0x0 build/e16_encx24j600_spiflash/production/_ext/1164207549/hash_fnv.o
 .bss           0x00000000        0x0 build/e16_encx24j600_spiflash/production/_ext/1164207549/hash_fnv.o
 .reginfo       0x00000000       0x18 build/e16_encx24j600_spiflash/production/_ext/1164207549/hash_fnv.o
 .text.fnv_32a_hash
                0x00000000       0x5c build/e16_encx24j600_spiflash/production/_ext/1164207549/hash_fnv.o
 .text          0x00000000        0x0 build/e16_encx24j600_spiflash/production/_ext/1164207549/oahash.o
 .data          0x00000000        0x0 build/e16_encx24j600_spiflash/production/_ext/1164207549/oahash.o
 .bss           0x00000000        0x0 build/e16_encx24j600_spiflash/production/_ext/1164207549/oahash.o
 .reginfo       0x00000000       0x18 build/e16_encx24j600_spiflash/production/_ext/1164207549/oahash.o
 .text          0x00000000        0x0 build/e16_encx24j600_spiflash/production/_ext/1164207549/tcpip_heap_alloc.o
 .data          0x00000000        0x0 build/e16_encx24j600_spiflash/production/_ext/1164207549/tcpip_heap_alloc.o
 .bss           0x00000000        0x0 build/e16_encx24j600_spiflash/production/_ext/1164207549/tcpip_heap_alloc.o
 .reginfo       0x00000000       0x18 build/e16_encx24j600_spiflash/production/_ext/1164207549/tcpip_heap_alloc.o
 .text._TCPIP_HEAP_PointerMapCached
                0x00000000        0x8 build/e16_encx24j600_spiflash/production/_ext/1164207549/tcpip_heap_alloc.o
 .text          0x00000000        0x0 build/e16_encx24j600_spiflash/production/_ext/1164207549/tcpip_helpers.o
 .bss           0x00000000        0x0 build/e16_encx24j600_spiflash/production/_ext/1164207549/tcpip_helpers.o
 .reginfo       0x00000000       0x18 build/e16_encx24j600_spiflash/production/_ext/1164207549/tcpip_helpers.o
 .text.TCPIP_Helper_IsPrivateAddress
                0x00000000       0x3c build/e16_encx24j600_spiflash/production/_ext/1164207549/tcpip_helpers.o
 .text.TCPIP_Helper_PowerModeToString
                0x00000000       0x28 build/e16_encx24j600_spiflash/production/_ext/1164207549/tcpip_helpers.o
 .text.TCPIP_Helper_FindCommonPrefix
                0x00000000       0xa4 build/e16_encx24j600_spiflash/production/_ext/1164207549/tcpip_helpers.o
 .text.TCPIP_Helper_SingleListHeadAdd
                0x00000000       0x28 build/e16_encx24j600_spiflash/production/_ext/1164207549/tcpip_helpers.o
 .text.TCPIP_Helper_SingleListMidAdd
                0x00000000       0x1c build/e16_encx24j600_spiflash/production/_ext/1164207549/tcpip_helpers.o
 .text.TCPIP_Helper_SingleListNextRemove
                0x00000000       0x58 build/e16_encx24j600_spiflash/production/_ext/1164207549/tcpip_helpers.o
 .text.TCPIP_Helper_SingleListFind
                0x00000000       0x48 build/e16_encx24j600_spiflash/production/_ext/1164207549/tcpip_helpers.o
 .text.TCPIP_Helper_ProtectedSingleListHeadAdd
                0x00000000       0x7c build/e16_encx24j600_spiflash/production/_ext/1164207549/tcpip_helpers.o
 .text.TCPIP_Helper_ProtectedSingleListMidAdd
                0x00000000       0x88 build/e16_encx24j600_spiflash/production/_ext/1164207549/tcpip_helpers.o
 .text.TCPIP_Helper_ProtectedSingleListNextRemove
                0x00000000       0x8c build/e16_encx24j600_spiflash/production/_ext/1164207549/tcpip_helpers.o
 .text.TCPIP_Helper_ProtectedSingleListAppend
                0x00000000       0x7c build/e16_encx24j600_spiflash/production/_ext/1164207549/tcpip_helpers.o
 .text.TCPIP_Helper_DoubleListInitialize
                0x00000000       0x10 build/e16_encx24j600_spiflash/production/_ext/1164207549/tcpip_helpers.o
 .text.TCPIP_Helper_DoubleListHeadAdd
                0x00000000       0x40 build/e16_encx24j600_spiflash/production/_ext/1164207549/tcpip_helpers.o
 .text.TCPIP_Helper_DoubleListTailAdd
                0x00000000       0x44 build/e16_encx24j600_spiflash/production/_ext/1164207549/tcpip_helpers.o
 .text.TCPIP_Helper_DoubleListMidAdd
                0x00000000       0x28 build/e16_encx24j600_spiflash/production/_ext/1164207549/tcpip_helpers.o
 .text.TCPIP_Helper_DoubleListHeadRemove
                0x00000000       0x40 build/e16_encx24j600_spiflash/production/_ext/1164207549/tcpip_helpers.o
 .text.TCPIP_Helper_DoubleListTailRemove
                0x00000000       0x40 build/e16_encx24j600_spiflash/production/_ext/1164207549/tcpip_helpers.o
 .text.TCPIP_Helper_DoubleListMidRemove
                0x00000000       0x28 build/e16_encx24j600_spiflash/production/_ext/1164207549/tcpip_helpers.o
 .text.TCPIP_Helper_DoubleListNodeRemove
                0x00000000       0x50 build/e16_encx24j600_spiflash/production/_ext/1164207549/tcpip_helpers.o
 .text.TCPIP_Helper_DoubleListFind
                0x00000000       0x48 build/e16_encx24j600_spiflash/production/_ext/1164207549/tcpip_helpers.o
 .text.TCPIP_Helper_ProtectedDoubleListInitialize
                0x00000000       0x44 build/e16_encx24j600_spiflash/production/_ext/1164207549/tcpip_helpers.o
 .text.TCPIP_Helper_ProtectedDoubleListDeinitialize
                0x00000000       0x78 build/e16_encx24j600_spiflash/production/_ext/1164207549/tcpip_helpers.o
 .text.TCPIP_Helper_ProtectedDoubleListHeadAdd
                0x00000000       0x7c build/e16_encx24j600_spiflash/production/_ext/1164207549/tcpip_helpers.o
 .text.TCPIP_Helper_ProtectedDoubleListTailAdd
                0x00000000       0x7c build/e16_encx24j600_spiflash/production/_ext/1164207549/tcpip_helpers.o
 .text.TCPIP_Helper_ProtectedDoubleListMidAdd
                0x00000000       0x7c build/e16_encx24j600_spiflash/production/_ext/1164207549/tcpip_helpers.o
 .text.TCPIP_Helper_ProtectedDoubleListHeadRemove
                0x00000000       0x8c build/e16_encx24j600_spiflash/production/_ext/1164207549/tcpip_helpers.o
 .text.TCPIP_Helper_ProtectedDoubleListTailRemove
                0x00000000       0x8c build/e16_encx24j600_spiflash/production/_ext/1164207549/tcpip_helpers.o
 .text.TCPIP_Helper_ProtectedDoubleListMidRemove
                0x00000000       0x7c build/e16_encx24j600_spiflash/production/_ext/1164207549/tcpip_helpers.o
 .text.TCPIP_Helper_ProtectedDoubleListNodeRemove
                0x00000000       0x7c build/e16_encx24j600_spiflash/production/_ext/1164207549/tcpip_helpers.o
 .text.TCPIP_Helper_ProtectedDoubleListRemoveAll
                0x00000000       0x90 build/e16_encx24j600_spiflash/production/_ext/1164207549/tcpip_helpers.o
 .text.TCPIP_Helper_ProtectedDoubleListLock
                0x00000000       0x54 build/e16_encx24j600_spiflash/production/_ext/1164207549/tcpip_helpers.o
 .text.TCPIP_Helper_ProtectedDoubleListUnlock
                0x00000000       0x40 build/e16_encx24j600_spiflash/production/_ext/1164207549/tcpip_helpers.o
 .text.TCPIP_Helper_SecurePortGetByIndex
                0x00000000       0x64 build/e16_encx24j600_spiflash/production/_ext/1164207549/tcpip_helpers.o
 .text.TCPIP_Helper_SecurePortSet
                0x00000000       0xc8 build/e16_encx24j600_spiflash/production/_ext/1164207549/tcpip_helpers.o
 .data          0x00000000        0x0 build/e16_encx24j600_spiflash/production/_ext/1164207549/tcpip_helper_c32.o
 .bss           0x00000000        0x0 build/e16_encx24j600_spiflash/production/_ext/1164207549/tcpip_helper_c32.o
 .reginfo       0x00000000       0x18 build/e16_encx24j600_spiflash/production/_ext/1164207549/tcpip_helper_c32.o
 .text          0x00000000        0x0 build/e16_encx24j600_spiflash/production/_ext/1164207549/tcpip_manager.o
 .data          0x00000000        0x0 build/e16_encx24j600_spiflash/production/_ext/1164207549/tcpip_manager.o
 .reginfo       0x00000000       0x18 build/e16_encx24j600_spiflash/production/_ext/1164207549/tcpip_manager.o
 .text._NetConfigStringToBuffer
                0x00000000       0xc8 build/e16_encx24j600_spiflash/production/_ext/1164207549/tcpip_manager.o
 .text.TCPIP_STACK_MacToNet
                0x00000000       0x4c build/e16_encx24j600_spiflash/production/_ext/1164207549/tcpip_manager.o
 .text.TCPIP_STACK_MacToNetIndex
                0x00000000       0x54 build/e16_encx24j600_spiflash/production/_ext/1164207549/tcpip_manager.o
 .text.TCPIP_STACK_NetAddressDnsSecondSet
                0x00000000       0x30 build/e16_encx24j600_spiflash/production/_ext/1164207549/tcpip_manager.o
 .text.TCPIP_STACK_SetLocalMasksType
                0x00000000       0x38 build/e16_encx24j600_spiflash/production/_ext/1164207549/tcpip_manager.o
 .text.TCPIP_STACK_SetLocalMasks
                0x00000000       0x30 build/e16_encx24j600_spiflash/production/_ext/1164207549/tcpip_manager.o
 .text.TCPIP_STACK_NetMACIdGet
                0x00000000       0x28 build/e16_encx24j600_spiflash/production/_ext/1164207549/tcpip_manager.o
 .text.TCPIP_STACK_ModuleConfigGet
                0x00000000       0x74 build/e16_encx24j600_spiflash/production/_ext/1164207549/tcpip_manager.o
 .text.TCPIP_STACK_NetConfigGet
                0x00000000      0x104 build/e16_encx24j600_spiflash/production/_ext/1164207549/tcpip_manager.o
 .text.TCPIP_STACK_NetConfigSet
                0x00000000      0x2dc build/e16_encx24j600_spiflash/production/_ext/1164207549/tcpip_manager.o
 .text.TCPIP_STACK_EventsPendingGet
                0x00000000       0x4c build/e16_encx24j600_spiflash/production/_ext/1164207549/tcpip_manager.o
 .text.TCPIP_STACK_NetStaticIPv6AddressGet
                0x00000000        0x8 build/e16_encx24j600_spiflash/production/_ext/1164207549/tcpip_manager.o
 .text.TCPIP_STACK_NetDefaultIPv6GatewayGet
                0x00000000        0x8 build/e16_encx24j600_spiflash/production/_ext/1164207549/tcpip_manager.o
 .text.TCPIP_STACK_AddressIsOfNetUp
                0x00000000       0x54 build/e16_encx24j600_spiflash/production/_ext/1164207549/tcpip_manager.o
 .text.TCPIP_STACK_NetMACId
                0x00000000       0x18 build/e16_encx24j600_spiflash/production/_ext/1164207549/tcpip_manager.o
 .text.TCPIP_STACK_NetToMAC
                0x00000000       0x18 build/e16_encx24j600_spiflash/production/_ext/1164207549/tcpip_manager.o
 .text.TCPIP_STACK_VersionGet
                0x00000000        0xc build/e16_encx24j600_spiflash/production/_ext/1164207549/tcpip_manager.o
 .text.TCPIP_STACK_VersionStrGet
                0x00000000        0xc build/e16_encx24j600_spiflash/production/_ext/1164207549/tcpip_manager.o
 .text.TCPIP_MODULE_SignalFunctionRegister
                0x00000000       0x50 build/e16_encx24j600_spiflash/production/_ext/1164207549/tcpip_manager.o
 .text.TCPIP_MODULE_SignalFunctionDeregister
                0x00000000       0x1c build/e16_encx24j600_spiflash/production/_ext/1164207549/tcpip_manager.o
 .text.TCPIP_MODULE_SignalGet
                0x00000000       0x50 build/e16_encx24j600_spiflash/production/_ext/1164207549/tcpip_manager.o
 .text.TCPIP_STACK_HEAP_Size
                0x00000000       0x34 build/e16_encx24j600_spiflash/production/_ext/1164207549/tcpip_manager.o
 .text.TCPIP_STACK_HEAP_MaxSize
                0x00000000       0x34 build/e16_encx24j600_spiflash/production/_ext/1164207549/tcpip_manager.o
 .text.TCPIP_STACK_HEAP_FreeSize
                0x00000000       0x34 build/e16_encx24j600_spiflash/production/_ext/1164207549/tcpip_manager.o
 .text.TCPIP_STACK_HEAP_LastError
                0x00000000       0x34 build/e16_encx24j600_spiflash/production/_ext/1164207549/tcpip_manager.o
 .text._TCPIPStackHeapConfig
                0x00000000        0xc build/e16_encx24j600_spiflash/production/_ext/1164207549/tcpip_manager.o
 .text          0x00000000        0x0 build/e16_encx24j600_spiflash/production/_ext/1164207549/tcpip_notify.o
 .data          0x00000000        0x0 build/e16_encx24j600_spiflash/production/_ext/1164207549/tcpip_notify.o
 .bss           0x00000000        0x0 build/e16_encx24j600_spiflash/production/_ext/1164207549/tcpip_notify.o
 .reginfo       0x00000000       0x18 build/e16_encx24j600_spiflash/production/_ext/1164207549/tcpip_notify.o
 .text          0x00000000        0x0 build/e16_encx24j600_spiflash/production/_ext/1164207549/tcpip_packet.o
 .data          0x00000000        0x0 build/e16_encx24j600_spiflash/production/_ext/1164207549/tcpip_packet.o
 .bss           0x00000000        0x0 build/e16_encx24j600_spiflash/production/_ext/1164207549/tcpip_packet.o
 .reginfo       0x00000000       0x18 build/e16_encx24j600_spiflash/production/_ext/1164207549/tcpip_packet.o
 .text.TCPIP_PKT_SegmentAlloc
                0x00000000       0xb4 build/e16_encx24j600_spiflash/production/_ext/1164207549/tcpip_packet.o
 .text.TCPIP_PKT_SegmentAppend
                0x00000000       0x30 build/e16_encx24j600_spiflash/production/_ext/1164207549/tcpip_packet.o
 .text.TCPIP_PKT_SegmentFree
                0x00000000       0x50 build/e16_encx24j600_spiflash/production/_ext/1164207549/tcpip_packet.o
 .text.TCPIP_PKT_PayloadLen
                0x00000000       0x38 build/e16_encx24j600_spiflash/production/_ext/1164207549/tcpip_packet.o
 .text          0x00000000        0x0 build/e16_encx24j600_spiflash/production/_ext/1164207549/ipv4.o
 .data          0x00000000        0x0 build/e16_encx24j600_spiflash/production/_ext/1164207549/ipv4.o
 .reginfo       0x00000000       0x18 build/e16_encx24j600_spiflash/production/_ext/1164207549/ipv4.o
 .text.TCPIP_IPV4_PacketFilterSet
                0x00000000       0x10 build/e16_encx24j600_spiflash/production/_ext/1164207549/ipv4.o
 .text.TCPIP_IPV4_PacketFilterClear
                0x00000000       0x14 build/e16_encx24j600_spiflash/production/_ext/1164207549/ipv4.o
 .text          0x00000000        0x0 build/e16_encx24j600_spiflash/production/_ext/1164207549/sntp.o
 .data          0x00000000        0x0 build/e16_encx24j600_spiflash/production/_ext/1164207549/sntp.o
 .reginfo       0x00000000       0x18 build/e16_encx24j600_spiflash/production/_ext/1164207549/sntp.o
 .text.TCPIP_SNTP_ConnectionParamSet
                0x00000000       0x78 build/e16_encx24j600_spiflash/production/_ext/1164207549/sntp.o
 .text.TCPIP_SNTP_ConnectionInitiate
                0x00000000       0x34 build/e16_encx24j600_spiflash/production/_ext/1164207549/sntp.o
 .text.TCPIP_SNTP_TimeStampGet
                0x00000000       0x94 build/e16_encx24j600_spiflash/production/_ext/1164207549/sntp.o
 .text.TCPIP_SNTP_LastErrorGet
                0x00000000        0xc build/e16_encx24j600_spiflash/production/_ext/1164207549/sntp.o
 .text          0x00000000        0x0 build/e16_encx24j600_spiflash/production/_ext/1164207549/tcpip_heap_internal.o
 .data          0x00000000        0x0 build/e16_encx24j600_spiflash/production/_ext/1164207549/tcpip_heap_internal.o
 .bss           0x00000000        0x0 build/e16_encx24j600_spiflash/production/_ext/1164207549/tcpip_heap_internal.o
 .reginfo       0x00000000       0x18 build/e16_encx24j600_spiflash/production/_ext/1164207549/tcpip_heap_internal.o
 .text          0x00000000        0x0 build/e16_encx24j600_spiflash/production/_ext/1164207549/icmp.o
 .data          0x00000000        0x0 build/e16_encx24j600_spiflash/production/_ext/1164207549/icmp.o
 .bss           0x00000000        0x0 build/e16_encx24j600_spiflash/production/_ext/1164207549/icmp.o
 .reginfo       0x00000000       0x18 build/e16_encx24j600_spiflash/production/_ext/1164207549/icmp.o
 .text          0x00000000        0x0 build/e16_encx24j600_spiflash/production/_ext/1164207549/dhcps.o
 .data          0x00000000        0x0 build/e16_encx24j600_spiflash/production/_ext/1164207549/dhcps.o
 .reginfo       0x00000000       0x18 build/e16_encx24j600_spiflash/production/_ext/1164207549/dhcps.o
 .text.TCPIP_DHCPS_HashIPKeyCompare
                0x00000000       0x18 build/e16_encx24j600_spiflash/production/_ext/1164207549/dhcps.o
 .text.TCPIP_DHCPS_HashIPKeyCopy
                0x00000000       0x10 build/e16_encx24j600_spiflash/production/_ext/1164207549/dhcps.o
 .text.TCPIP_DHCPS_GetPoolEntries
                0x00000000      0x154 build/e16_encx24j600_spiflash/production/_ext/1164207549/dhcps.o
 .text.TCPIP_DHCPS_LeaseEntryRemove
                0x00000000       0x94 build/e16_encx24j600_spiflash/production/_ext/1164207549/dhcps.o
 .text.TCPIP_DHCPS_RemovePoolEntries
                0x00000000      0x164 build/e16_encx24j600_spiflash/production/_ext/1164207549/dhcps.o
 .text.TCPIP_DHCPS_IPAddressHashKeyHash
                0x00000000       0x3c build/e16_encx24j600_spiflash/production/_ext/1164207549/dhcps.o
 .text          0x00000000        0x0 build/e16_encx24j600_spiflash/production/_ext/1164207549/ddns.o
 .data          0x00000000        0x0 build/e16_encx24j600_spiflash/production/_ext/1164207549/ddns.o
 .reginfo       0x00000000       0x18 build/e16_encx24j600_spiflash/production/_ext/1164207549/ddns.o
 .text.TCPIP_DDNS_LastIPGet
                0x00000000       0x10 build/e16_encx24j600_spiflash/production/_ext/1164207549/ddns.o
 .text          0x00000000        0x0 build/e16_encx24j600_spiflash/production/_ext/1699919941/asm.o
 .data          0x00000000        0x0 build/e16_encx24j600_spiflash/production/_ext/1699919941/asm.o
 .bss           0x00000000        0x0 build/e16_encx24j600_spiflash/production/_ext/1699919941/asm.o
 .reginfo       0x00000000       0x18 build/e16_encx24j600_spiflash/production/_ext/1699919941/asm.o
 .text          0x00000000        0x0 build/e16_encx24j600_spiflash/production/_ext/1699919941/blake2b.o
 .data          0x00000000        0x0 build/e16_encx24j600_spiflash/production/_ext/1699919941/blake2b.o
 .bss           0x00000000        0x0 build/e16_encx24j600_spiflash/production/_ext/1699919941/blake2b.o
 .reginfo       0x00000000       0x18 build/e16_encx24j600_spiflash/production/_ext/1699919941/blake2b.o
 .text          0x00000000        0x0 build/e16_encx24j600_spiflash/production/_ext/1699919941/camellia.o
 .data          0x00000000        0x0 build/e16_encx24j600_spiflash/production/_ext/1699919941/camellia.o
 .bss           0x00000000        0x0 build/e16_encx24j600_spiflash/production/_ext/1699919941/camellia.o
 .reginfo       0x00000000       0x18 build/e16_encx24j600_spiflash/production/_ext/1699919941/camellia.o
 .text          0x00000000        0x0 build/e16_encx24j600_spiflash/production/_ext/1699919941/chacha.o
 .data          0x00000000        0x0 build/e16_encx24j600_spiflash/production/_ext/1699919941/chacha.o
 .bss           0x00000000        0x0 build/e16_encx24j600_spiflash/production/_ext/1699919941/chacha.o
 .reginfo       0x00000000       0x18 build/e16_encx24j600_spiflash/production/_ext/1699919941/chacha.o
 .text          0x00000000        0x0 build/e16_encx24j600_spiflash/production/_ext/1699919941/chacha20_poly1305.o
 .data          0x00000000        0x0 build/e16_encx24j600_spiflash/production/_ext/1699919941/chacha20_poly1305.o
 .bss           0x00000000        0x0 build/e16_encx24j600_spiflash/production/_ext/1699919941/chacha20_poly1305.o
 .reginfo       0x00000000       0x18 build/e16_encx24j600_spiflash/production/_ext/1699919941/chacha20_poly1305.o
 .text          0x00000000        0x0 build/e16_encx24j600_spiflash/production/_ext/1699919941/curve25519.o
 .data          0x00000000        0x0 build/e16_encx24j600_spiflash/production/_ext/1699919941/curve25519.o
 .bss           0x00000000        0x0 build/e16_encx24j600_spiflash/production/_ext/1699919941/curve25519.o
 .reginfo       0x00000000       0x18 build/e16_encx24j600_spiflash/production/_ext/1699919941/curve25519.o
 .text          0x00000000        0x0 build/e16_encx24j600_spiflash/production/_ext/1699919941/dh.o
 .data          0x00000000        0x0 build/e16_encx24j600_spiflash/production/_ext/1699919941/dh.o
 .bss           0x00000000        0x0 build/e16_encx24j600_spiflash/production/_ext/1699919941/dh.o
 .reginfo       0x00000000       0x18 build/e16_encx24j600_spiflash/production/_ext/1699919941/dh.o
 .text          0x00000000        0x0 build/e16_encx24j600_spiflash/production/_ext/1699919941/dsa.o
 .data          0x00000000        0x0 build/e16_encx24j600_spiflash/production/_ext/1699919941/dsa.o
 .bss           0x00000000        0x0 build/e16_encx24j600_spiflash/production/_ext/1699919941/dsa.o
 .reginfo       0x00000000       0x18 build/e16_encx24j600_spiflash/production/_ext/1699919941/dsa.o
 .text.wc_InitDsaKey
                0x00000000        0xc build/e16_encx24j600_spiflash/production/_ext/1699919941/dsa.o
 .text.wc_FreeDsaKey
                0x00000000        0x8 build/e16_encx24j600_spiflash/production/_ext/1699919941/dsa.o
 .text.wc_MakeDsaKey
                0x00000000      0x1a4 build/e16_encx24j600_spiflash/production/_ext/1699919941/dsa.o
 .text.wc_MakeDsaParameters
                0x00000000      0x4b4 build/e16_encx24j600_spiflash/production/_ext/1699919941/dsa.o
 .text.wc_DsaSign
                0x00000000      0x24c build/e16_encx24j600_spiflash/production/_ext/1699919941/dsa.o
 .text.wc_DsaVerify
                0x00000000      0x26c build/e16_encx24j600_spiflash/production/_ext/1699919941/dsa.o
 .text          0x00000000        0x0 build/e16_encx24j600_spiflash/production/_ext/1699919941/ecc_fp.o
 .data          0x00000000        0x0 build/e16_encx24j600_spiflash/production/_ext/1699919941/ecc_fp.o
 .bss           0x00000000        0x0 build/e16_encx24j600_spiflash/production/_ext/1699919941/ecc_fp.o
 .reginfo       0x00000000       0x18 build/e16_encx24j600_spiflash/production/_ext/1699919941/ecc_fp.o
 .text          0x00000000        0x0 build/e16_encx24j600_spiflash/production/_ext/1699919941/ed25519.o
 .data          0x00000000        0x0 build/e16_encx24j600_spiflash/production/_ext/1699919941/ed25519.o
 .bss           0x00000000        0x0 build/e16_encx24j600_spiflash/production/_ext/1699919941/ed25519.o
 .reginfo       0x00000000       0x18 build/e16_encx24j600_spiflash/production/_ext/1699919941/ed25519.o
 .text          0x00000000        0x0 build/e16_encx24j600_spiflash/production/_ext/1699919941/fe_low_mem.o
 .data          0x00000000        0x0 build/e16_encx24j600_spiflash/production/_ext/1699919941/fe_low_mem.o
 .bss           0x00000000        0x0 build/e16_encx24j600_spiflash/production/_ext/1699919941/fe_low_mem.o
 .reginfo       0x00000000       0x18 build/e16_encx24j600_spiflash/production/_ext/1699919941/fe_low_mem.o
 .text          0x00000000        0x0 build/e16_encx24j600_spiflash/production/_ext/1699919941/fe_operations.o
 .data          0x00000000        0x0 build/e16_encx24j600_spiflash/production/_ext/1699919941/fe_operations.o
 .bss           0x00000000        0x0 build/e16_encx24j600_spiflash/production/_ext/1699919941/fe_operations.o
 .reginfo       0x00000000       0x18 build/e16_encx24j600_spiflash/production/_ext/1699919941/fe_operations.o
 .text          0x00000000        0x0 build/e16_encx24j600_spiflash/production/_ext/1699919941/ge_low_mem.o
 .data          0x00000000        0x0 build/e16_encx24j600_spiflash/production/_ext/1699919941/ge_low_mem.o
 .bss           0x00000000        0x0 build/e16_encx24j600_spiflash/production/_ext/1699919941/ge_low_mem.o
 .reginfo       0x00000000       0x18 build/e16_encx24j600_spiflash/production/_ext/1699919941/ge_low_mem.o
 .text          0x00000000        0x0 build/e16_encx24j600_spiflash/production/_ext/1699919941/ge_operations.o
 .data          0x00000000        0x0 build/e16_encx24j600_spiflash/production/_ext/1699919941/ge_operations.o
 .bss           0x00000000        0x0 build/e16_encx24j600_spiflash/production/_ext/1699919941/ge_operations.o
 .reginfo       0x00000000       0x18 build/e16_encx24j600_spiflash/production/_ext/1699919941/ge_operations.o
 .text          0x00000000        0x0 build/e16_encx24j600_spiflash/production/_ext/1699919941/hc128.o
 .data          0x00000000        0x0 build/e16_encx24j600_spiflash/production/_ext/1699919941/hc128.o
 .bss           0x00000000        0x0 build/e16_encx24j600_spiflash/production/_ext/1699919941/hc128.o
 .reginfo       0x00000000       0x18 build/e16_encx24j600_spiflash/production/_ext/1699919941/hc128.o
 .text          0x00000000        0x0 build/e16_encx24j600_spiflash/production/_ext/1699919941/md2.o
 .data          0x00000000        0x0 build/e16_encx24j600_spiflash/production/_ext/1699919941/md2.o
 .bss           0x00000000        0x0 build/e16_encx24j600_spiflash/production/_ext/1699919941/md2.o
 .reginfo       0x00000000       0x18 build/e16_encx24j600_spiflash/production/_ext/1699919941/md2.o
 .text          0x00000000        0x0 build/e16_encx24j600_spiflash/production/_ext/1699919941/md4.o
 .data          0x00000000        0x0 build/e16_encx24j600_spiflash/production/_ext/1699919941/md4.o
 .bss           0x00000000        0x0 build/e16_encx24j600_spiflash/production/_ext/1699919941/md4.o
 .reginfo       0x00000000       0x18 build/e16_encx24j600_spiflash/production/_ext/1699919941/md4.o
 .text.Transform
                0x00000000      0x5e8 build/e16_encx24j600_spiflash/production/_ext/1699919941/md4.o
 .text.wc_InitMd4
                0x00000000       0x40 build/e16_encx24j600_spiflash/production/_ext/1699919941/md4.o
 .text.wc_Md4Update
                0x00000000       0xd0 build/e16_encx24j600_spiflash/production/_ext/1699919941/md4.o
 .text.wc_Md4Final
                0x00000000      0x168 build/e16_encx24j600_spiflash/production/_ext/1699919941/md4.o
 .text          0x00000000        0x0 build/e16_encx24j600_spiflash/production/_ext/1699919941/pkcs7.o
 .data          0x00000000        0x0 build/e16_encx24j600_spiflash/production/_ext/1699919941/pkcs7.o
 .bss           0x00000000        0x0 build/e16_encx24j600_spiflash/production/_ext/1699919941/pkcs7.o
 .reginfo       0x00000000       0x18 build/e16_encx24j600_spiflash/production/_ext/1699919941/pkcs7.o
 .text          0x00000000        0x0 build/e16_encx24j600_spiflash/production/_ext/1699919941/poly1305.o
 .data          0x00000000        0x0 build/e16_encx24j600_spiflash/production/_ext/1699919941/poly1305.o
 .bss           0x00000000        0x0 build/e16_encx24j600_spiflash/production/_ext/1699919941/poly1305.o
 .reginfo       0x00000000       0x18 build/e16_encx24j600_spiflash/production/_ext/1699919941/poly1305.o
 .text          0x00000000        0x0 build/e16_encx24j600_spiflash/production/_ext/1699919941/rabbit.o
 .data          0x00000000        0x0 build/e16_encx24j600_spiflash/production/_ext/1699919941/rabbit.o
 .bss           0x00000000        0x0 build/e16_encx24j600_spiflash/production/_ext/1699919941/rabbit.o
 .reginfo       0x00000000       0x18 build/e16_encx24j600_spiflash/production/_ext/1699919941/rabbit.o
 .text          0x00000000        0x0 build/e16_encx24j600_spiflash/production/_ext/1699919941/ripemd.o
 .data          0x00000000        0x0 build/e16_encx24j600_spiflash/production/_ext/1699919941/ripemd.o
 .bss           0x00000000        0x0 build/e16_encx24j600_spiflash/production/_ext/1699919941/ripemd.o
 .reginfo       0x00000000       0x18 build/e16_encx24j600_spiflash/production/_ext/1699919941/ripemd.o
 .text          0x00000000        0x0 build/e16_encx24j600_spiflash/production/_ext/615233400/crl.o
 .data          0x00000000        0x0 build/e16_encx24j600_spiflash/production/_ext/615233400/crl.o
 .bss           0x00000000        0x0 build/e16_encx24j600_spiflash/production/_ext/615233400/crl.o
 .reginfo       0x00000000       0x18 build/e16_encx24j600_spiflash/production/_ext/615233400/crl.o
 .text          0x00000000        0x0 build/e16_encx24j600_spiflash/production/_ext/615233400/internal.o
 .data          0x00000000        0x0 build/e16_encx24j600_spiflash/production/_ext/615233400/internal.o
 .bss           0x00000000        0x0 build/e16_encx24j600_spiflash/production/_ext/615233400/internal.o
 .reginfo       0x00000000       0x18 build/e16_encx24j600_spiflash/production/_ext/615233400/internal.o
 .text.InitX509Name
                0x00000000       0x18 build/e16_encx24j600_spiflash/production/_ext/615233400/internal.o
 .text.FreeX509Name
                0x00000000       0x40 build/e16_encx24j600_spiflash/production/_ext/615233400/internal.o
 .text.InitX509
                0x00000000       0x50 build/e16_encx24j600_spiflash/production/_ext/615233400/internal.o
 .text.FreeX509
                0x00000000       0x78 build/e16_encx24j600_spiflash/production/_ext/615233400/internal.o
 .text.MakeDTLSv1_2
                0x00000000       0x18 build/e16_encx24j600_spiflash/production/_ext/615233400/internal.o
 .text.wolfSSL_ERR_reason_error_string
                0x00000000      0xd54 build/e16_encx24j600_spiflash/production/_ext/615233400/internal.o
 .text.SetErrorString
                0x00000000       0x34 build/e16_encx24j600_spiflash/production/_ext/615233400/internal.o
 .text.GetCipherNames
                0x00000000        0xc build/e16_encx24j600_spiflash/production/_ext/615233400/internal.o
 .text.GetCipherNamesSize
                0x00000000        0x8 build/e16_encx24j600_spiflash/production/_ext/615233400/internal.o
 .text.SetCipherList
                0x00000000      0x304 build/e16_encx24j600_spiflash/production/_ext/615233400/internal.o
 .text          0x00000000        0x0 build/e16_encx24j600_spiflash/production/_ext/615233400/io.o
 .data          0x00000000        0x0 build/e16_encx24j600_spiflash/production/_ext/615233400/io.o
 .bss           0x00000000        0x0 build/e16_encx24j600_spiflash/production/_ext/615233400/io.o
 .reginfo       0x00000000       0x18 build/e16_encx24j600_spiflash/production/_ext/615233400/io.o
 .text.wolfSSL_SetIOReadCtx
                0x00000000        0x8 build/e16_encx24j600_spiflash/production/_ext/615233400/io.o
 .text.wolfSSL_SetIOWriteCtx
                0x00000000        0x8 build/e16_encx24j600_spiflash/production/_ext/615233400/io.o
 .text.wolfSSL_GetIOReadCtx
                0x00000000       0x18 build/e16_encx24j600_spiflash/production/_ext/615233400/io.o
 .text.wolfSSL_GetIOWriteCtx
                0x00000000       0x18 build/e16_encx24j600_spiflash/production/_ext/615233400/io.o
 .text.wolfSSL_SetIOReadFlags
                0x00000000        0x8 build/e16_encx24j600_spiflash/production/_ext/615233400/io.o
 .text.wolfSSL_SetIOWriteFlags
                0x00000000        0x8 build/e16_encx24j600_spiflash/production/_ext/615233400/io.o
 .text.wolfSSL_CTX_SetGenCookie
                0x00000000        0x8 build/e16_encx24j600_spiflash/production/_ext/615233400/io.o
 .text.wolfSSL_SetCookieCtx
                0x00000000        0x8 build/e16_encx24j600_spiflash/production/_ext/615233400/io.o
 .text.wolfSSL_GetCookieCtx
                0x00000000       0x18 build/e16_encx24j600_spiflash/production/_ext/615233400/io.o
 .text          0x00000000        0x0 build/e16_encx24j600_spiflash/production/_ext/615233400/keys.o
 .data          0x00000000        0x0 build/e16_encx24j600_spiflash/production/_ext/615233400/keys.o
 .bss           0x00000000        0x0 build/e16_encx24j600_spiflash/production/_ext/615233400/keys.o
 .reginfo       0x00000000       0x18 build/e16_encx24j600_spiflash/production/_ext/615233400/keys.o
 .text          0x00000000        0x0 build/e16_encx24j600_spiflash/production/_ext/615233400/ocsp.o
 .data          0x00000000        0x0 build/e16_encx24j600_spiflash/production/_ext/615233400/ocsp.o
 .bss           0x00000000        0x0 build/e16_encx24j600_spiflash/production/_ext/615233400/ocsp.o
 .reginfo       0x00000000       0x18 build/e16_encx24j600_spiflash/production/_ext/615233400/ocsp.o
 .text          0x00000000        0x0 build/e16_encx24j600_spiflash/production/_ext/615233400/sniffer.o
 .data          0x00000000        0x0 build/e16_encx24j600_spiflash/production/_ext/615233400/sniffer.o
 .bss           0x00000000        0x0 build/e16_encx24j600_spiflash/production/_ext/615233400/sniffer.o
 .reginfo       0x00000000       0x18 build/e16_encx24j600_spiflash/production/_ext/615233400/sniffer.o
 .text          0x00000000        0x0 build/e16_encx24j600_spiflash/production/_ext/615233400/ssl.o
 .data          0x00000000        0x0 build/e16_encx24j600_spiflash/production/_ext/615233400/ssl.o
 .reginfo       0x00000000       0x18 build/e16_encx24j600_spiflash/production/_ext/615233400/ssl.o
 .text.wolfSSL_get_cipher_list
                0x00000000       0x58 build/e16_encx24j600_spiflash/production/_ext/615233400/ssl.o
 .text.wolfSSL_get_ciphers
                0x00000000      0x10c build/e16_encx24j600_spiflash/production/_ext/615233400/ssl.o
 .text.wolfSSL_get_fd
                0x00000000        0x8 build/e16_encx24j600_spiflash/production/_ext/615233400/ssl.o
 .text.wolfSSL_get_using_nonblock
                0x00000000        0xc build/e16_encx24j600_spiflash/production/_ext/615233400/ssl.o
 .text.wolfSSL_dtls
                0x00000000        0xc build/e16_encx24j600_spiflash/production/_ext/615233400/ssl.o
 .text.wolfSSL_set_using_nonblock
                0x00000000       0x14 build/e16_encx24j600_spiflash/production/_ext/615233400/ssl.o
 .text.wolfSSL_dtls_set_peer
                0x00000000       0x88 build/e16_encx24j600_spiflash/production/_ext/615233400/ssl.o
 .text.wolfSSL_dtls_get_peer
                0x00000000       0x68 build/e16_encx24j600_spiflash/production/_ext/615233400/ssl.o
 .text.wolfSSL_GetObjectSize
                0x00000000        0x8 build/e16_encx24j600_spiflash/production/_ext/615233400/ssl.o
 .text.wolfSSL_SetTmpDH
                0x00000000      0x1a0 build/e16_encx24j600_spiflash/production/_ext/615233400/ssl.o
 .text.wolfSSL_CTX_SetTmpDH
                0x00000000      0x128 build/e16_encx24j600_spiflash/production/_ext/615233400/ssl.o
 .text.wolfSSL_CTX_SetMinDhKey_Sz
                0x00000000       0x44 build/e16_encx24j600_spiflash/production/_ext/615233400/ssl.o
 .text.wolfSSL_SetMinDhKey_Sz
                0x00000000       0x44 build/e16_encx24j600_spiflash/production/_ext/615233400/ssl.o
 .text.wolfSSL_GetDhKey_Sz
                0x00000000       0x1c build/e16_encx24j600_spiflash/production/_ext/615233400/ssl.o
 .text.wolfSSL_send
                0x00000000       0x58 build/e16_encx24j600_spiflash/production/_ext/615233400/ssl.o
 .text.wolfSSL_recv
                0x00000000       0x58 build/e16_encx24j600_spiflash/production/_ext/615233400/ssl.o
 .text.wolfSSL_shutdown
                0x00000000       0xd4 build/e16_encx24j600_spiflash/production/_ext/615233400/ssl.o
 .text.wolfSSL_get_alert_history
                0x00000000       0x38 build/e16_encx24j600_spiflash/production/_ext/615233400/ssl.o
 .text.wolfSSL_want_read
                0x00000000       0x10 build/e16_encx24j600_spiflash/production/_ext/615233400/ssl.o
 .text.wolfSSL_want_write
                0x00000000       0x10 build/e16_encx24j600_spiflash/production/_ext/615233400/ssl.o
 .rodata        0x00000000      0x8e4 build/e16_encx24j600_spiflash/production/_ext/615233400/ssl.o
 .text.wolfSSL_ERR_error_string
                0x00000000       0x3c build/e16_encx24j600_spiflash/production/_ext/615233400/ssl.o
 .text.wolfSSL_ERR_error_string_n
                0x00000000       0x70 build/e16_encx24j600_spiflash/production/_ext/615233400/ssl.o
 .text.wolfSSL_KeepArrays
                0x00000000       0x1c build/e16_encx24j600_spiflash/production/_ext/615233400/ssl.o
 .text.wolfSSL_FreeArrays
                0x00000000       0x40 build/e16_encx24j600_spiflash/production/_ext/615233400/ssl.o
 .text.wolfSSL_CertManagerUnloadCAs
                0x00000000       0x68 build/e16_encx24j600_spiflash/production/_ext/615233400/ssl.o
 .text.wolfSSL_CTX_set_group_messages
                0x00000000       0x20 build/e16_encx24j600_spiflash/production/_ext/615233400/ssl.o
 .text.wolfSSL_set_group_messages
                0x00000000       0x24 build/e16_encx24j600_spiflash/production/_ext/615233400/ssl.o
 .text.wolfSSL_CTX_SetMinVersion
                0x00000000       0x5c build/e16_encx24j600_spiflash/production/_ext/615233400/ssl.o
 .text.wolfSSL_SetMinVersion
                0x00000000       0x5c build/e16_encx24j600_spiflash/production/_ext/615233400/ssl.o
 .text.wolfSSL_SetVersion
                0x00000000       0xec build/e16_encx24j600_spiflash/production/_ext/615233400/ssl.o
 .text.wolfSSL_CertPemToDer
                0x00000000       0xe4 build/e16_encx24j600_spiflash/production/_ext/615233400/ssl.o
 .text.wolfSSL_KeyPemToDer
                0x00000000       0xdc build/e16_encx24j600_spiflash/production/_ext/615233400/ssl.o
 .text.wolfSSL_SetTmpDH_buffer_wrapper
                0x00000000      0x178 build/e16_encx24j600_spiflash/production/_ext/615233400/ssl.o
 .text.wolfSSL_CertManagerEnableCRL
                0x00000000       0x10 build/e16_encx24j600_spiflash/production/_ext/615233400/ssl.o
 .text.wolfSSL_CertManagerDisableCRL
                0x00000000       0x1c build/e16_encx24j600_spiflash/production/_ext/615233400/ssl.o
 .text.wolfSSL_CertManagerVerifyBuffer
                0x00000000       0xf4 build/e16_encx24j600_spiflash/production/_ext/615233400/ssl.o
 .text.wolfSSL_CertManagerEnableOCSP
                0x00000000       0x10 build/e16_encx24j600_spiflash/production/_ext/615233400/ssl.o
 .text.wolfSSL_CertManagerDisableOCSP
                0x00000000       0x1c build/e16_encx24j600_spiflash/production/_ext/615233400/ssl.o
 .text.wolfSSL_CertManagerEnableOCSPStapling
                0x00000000       0x10 build/e16_encx24j600_spiflash/production/_ext/615233400/ssl.o
 .text.wolfSSL_set_verify
                0x00000000       0x70 build/e16_encx24j600_spiflash/production/_ext/615233400/ssl.o
 .text.wolfSSL_SetCertCbCtx
                0x00000000       0x10 build/e16_encx24j600_spiflash/production/_ext/615233400/ssl.o
 .text.wolfSSL_CTX_SetCACb
                0x00000000       0x1c build/e16_encx24j600_spiflash/production/_ext/615233400/ssl.o
 .text.wolfSSL_load_error_strings
                0x00000000        0x8 build/e16_encx24j600_spiflash/production/_ext/615233400/ssl.o
 .text.wolfSSL_library_init
                0x00000000       0x28 build/e16_encx24j600_spiflash/production/_ext/615233400/ssl.o
 .text.wolfSSL_CTX_set_session_cache_mode
                0x00000000       0x30 build/e16_encx24j600_spiflash/production/_ext/615233400/ssl.o
 .text.wolfSSL_CTX_set_cipher_list
                0x00000000       0x6c build/e16_encx24j600_spiflash/production/_ext/615233400/ssl.o
 .text.wolfSSL_set_cipher_list
                0x00000000       0x20 build/e16_encx24j600_spiflash/production/_ext/615233400/ssl.o
 .text.wolfSSL_dtls_get_current_timeout
                0x00000000        0x8 build/e16_encx24j600_spiflash/production/_ext/615233400/ssl.o
 .text.wolfSSL_dtls_set_timeout_init
                0x00000000       0x48 build/e16_encx24j600_spiflash/production/_ext/615233400/ssl.o
 .text.wolfSSL_dtls_set_timeout_max
                0x00000000       0x44 build/e16_encx24j600_spiflash/production/_ext/615233400/ssl.o
 .text.wolfSSL_dtls_got_timeout
                0x00000000       0x5c build/e16_encx24j600_spiflash/production/_ext/615233400/ssl.o
 .text.wolfDTLSv1_2_client_method
                0x00000000       0x44 build/e16_encx24j600_spiflash/production/_ext/615233400/ssl.o
 .text.wolfSSL_connect_cert
                0x00000000       0x4c build/e16_encx24j600_spiflash/production/_ext/615233400/ssl.o
 .text.wolfDTLSv1_2_server_method
                0x00000000       0x48 build/e16_encx24j600_spiflash/production/_ext/615233400/ssl.o
 .text.wolfSSL_SetHsDoneCb
                0x00000000       0x20 build/e16_encx24j600_spiflash/production/_ext/615233400/ssl.o
 .text.wolfSSL_flush_sessions
                0x00000000        0x8 build/e16_encx24j600_spiflash/production/_ext/615233400/ssl.o
 .text.wolfSSL_set_timeout
                0x00000000       0x1c build/e16_encx24j600_spiflash/production/_ext/615233400/ssl.o
 .text.wolfSSL_CTX_set_timeout
                0x00000000       0x1c build/e16_encx24j600_spiflash/production/_ext/615233400/ssl.o
 .text.GetSessionClient
                0x00000000      0x214 build/e16_encx24j600_spiflash/production/_ext/615233400/ssl.o
 .text.wolfSSL_get_session
                0x00000000       0x30 build/e16_encx24j600_spiflash/production/_ext/615233400/ssl.o
 .text.SetSession
                0x00000000       0xa4 build/e16_encx24j600_spiflash/production/_ext/615233400/ssl.o
 .text.wolfSSL_set_session
                0x00000000       0x30 build/e16_encx24j600_spiflash/production/_ext/615233400/ssl.o
 .text.wolfSSL_SetServerID
                0x00000000       0xb8 build/e16_encx24j600_spiflash/production/_ext/615233400/ssl.o
 .text.wolfSSL_check_domain_name
                0x00000000       0x7c build/e16_encx24j600_spiflash/production/_ext/615233400/ssl.o
 .text.wolfSSL_set_compression
                0x00000000        0x8 build/e16_encx24j600_spiflash/production/_ext/615233400/ssl.o
 .text.wolfSSL_CTX_set_psk_client_callback
                0x00000000       0x10 build/e16_encx24j600_spiflash/production/_ext/615233400/ssl.o
 .text.wolfSSL_set_psk_client_callback
                0x00000000       0x70 build/e16_encx24j600_spiflash/production/_ext/615233400/ssl.o
 .text.wolfSSL_CTX_set_psk_server_callback
                0x00000000       0x10 build/e16_encx24j600_spiflash/production/_ext/615233400/ssl.o
 .text.wolfSSL_set_psk_server_callback
                0x00000000       0x70 build/e16_encx24j600_spiflash/production/_ext/615233400/ssl.o
 .text.wolfSSL_get_psk_identity_hint
                0x00000000       0x24 build/e16_encx24j600_spiflash/production/_ext/615233400/ssl.o
 .text.wolfSSL_get_psk_identity
                0x00000000       0x24 build/e16_encx24j600_spiflash/production/_ext/615233400/ssl.o
 .text.wolfSSL_CTX_use_psk_identity_hint
                0x00000000       0x40 build/e16_encx24j600_spiflash/production/_ext/615233400/ssl.o
 .text.wolfSSL_use_psk_identity_hint
                0x00000000       0x60 build/e16_encx24j600_spiflash/production/_ext/615233400/ssl.o
 .text.wolfSSL_CertManagerLoadCABuffer
                0x00000000       0xa8 build/e16_encx24j600_spiflash/production/_ext/615233400/ssl.o
 .text.wolfSSL_CTX_use_certificate_chain_buffer
                0x00000000       0x30 build/e16_encx24j600_spiflash/production/_ext/615233400/ssl.o
 .text.wolfSSL_SetTmpDH_buffer
                0x00000000       0x48 build/e16_encx24j600_spiflash/production/_ext/615233400/ssl.o
 .text.wolfSSL_CTX_SetTmpDH_buffer
                0x00000000       0x30 build/e16_encx24j600_spiflash/production/_ext/615233400/ssl.o
 .text.wolfSSL_use_certificate_buffer
                0x00000000       0x30 build/e16_encx24j600_spiflash/production/_ext/615233400/ssl.o
 .text.wolfSSL_use_PrivateKey_buffer
                0x00000000       0x34 build/e16_encx24j600_spiflash/production/_ext/615233400/ssl.o
 .text.wolfSSL_use_certificate_chain_buffer
                0x00000000       0x38 build/e16_encx24j600_spiflash/production/_ext/615233400/ssl.o
 .text.wolfSSL_CTX_UnloadCAs
                0x00000000       0x30 build/e16_encx24j600_spiflash/production/_ext/615233400/ssl.o
 .text.wolfSSL_is_init_finished
                0x00000000       0x20 build/e16_encx24j600_spiflash/production/_ext/615233400/ssl.o
 .text.wolfSSL_get_shutdown
                0x00000000       0x28 build/e16_encx24j600_spiflash/production/_ext/615233400/ssl.o
 .text.wolfSSL_session_reused
                0x00000000        0xc build/e16_encx24j600_spiflash/production/_ext/615233400/ssl.o
 .text.wolfSSL_get_version
                0x00000000       0xb8 build/e16_encx24j600_spiflash/production/_ext/615233400/ssl.o
 .text.wolfSSL_lib_version
                0x00000000        0xc build/e16_encx24j600_spiflash/production/_ext/615233400/ssl.o
 .text.wolfSSL_lib_version_hex
                0x00000000        0xc build/e16_encx24j600_spiflash/production/_ext/615233400/ssl.o
 .text.wolfSSL_get_current_cipher_suite
                0x00000000       0x24 build/e16_encx24j600_spiflash/production/_ext/615233400/ssl.o
 .text.wolfSSL_get_current_cipher
                0x00000000        0xc build/e16_encx24j600_spiflash/production/_ext/615233400/ssl.o
 .text.wolfSSL_CIPHER_get_name
                0x00000000      0x878 build/e16_encx24j600_spiflash/production/_ext/615233400/ssl.o
 .text.wolfSSL_get_cipher
                0x00000000       0x24 build/e16_encx24j600_spiflash/production/_ext/615233400/ssl.o
 .text          0x00000000        0x0 build/e16_encx24j600_spiflash/production/_ext/615233400/tls.o
 .data          0x00000000        0x0 build/e16_encx24j600_spiflash/production/_ext/615233400/tls.o
 .bss           0x00000000        0x0 build/e16_encx24j600_spiflash/production/_ext/615233400/tls.o
 .reginfo       0x00000000       0x18 build/e16_encx24j600_spiflash/production/_ext/615233400/tls.o
 .text.MakeTLSv1
                0x00000000       0x18 build/e16_encx24j600_spiflash/production/_ext/615233400/tls.o
 .text.MakeTLSv1_1
                0x00000000       0x18 build/e16_encx24j600_spiflash/production/_ext/615233400/tls.o
 .text.MakeTLSv1_2
                0x00000000       0x14 build/e16_encx24j600_spiflash/production/_ext/615233400/tls.o
 .text.wolfSSL_make_eap_keys
                0x00000000      0x16c build/e16_encx24j600_spiflash/production/_ext/615233400/tls.o
 .text.wolfTLSv1_client_method
                0x00000000       0x4c build/e16_encx24j600_spiflash/production/_ext/615233400/tls.o
 .text.wolfTLSv1_1_client_method
                0x00000000       0x4c build/e16_encx24j600_spiflash/production/_ext/615233400/tls.o
 .text.wolfTLSv1_2_client_method
                0x00000000       0x48 build/e16_encx24j600_spiflash/production/_ext/615233400/tls.o
 .text.wolfTLSv1_server_method
                0x00000000       0x50 build/e16_encx24j600_spiflash/production/_ext/615233400/tls.o
 .text.wolfTLSv1_1_server_method
                0x00000000       0x50 build/e16_encx24j600_spiflash/production/_ext/615233400/tls.o
 .text.wolfTLSv1_2_server_method
                0x00000000       0x4c build/e16_encx24j600_spiflash/production/_ext/615233400/tls.o
 .text          0x00000000        0x0 build/e16_encx24j600_spiflash/production/_ext/29024758/asm.o
 .data          0x00000000        0x0 build/e16_encx24j600_spiflash/production/_ext/29024758/asm.o
 .bss           0x00000000        0x0 build/e16_encx24j600_spiflash/production/_ext/29024758/asm.o
 .reginfo       0x00000000       0x18 build/e16_encx24j600_spiflash/production/_ext/29024758/asm.o
 .text          0x00000000        0x0 c:/program files (x86)/microchip/xc32/v1.42/bin/bin/../../lib/gcc/pic32mx/4.8.3/../../../../pic32mx/lib/./proc/32MX795F512L\default_isr_vectors.o
 .data          0x00000000        0x0 c:/program files (x86)/microchip/xc32/v1.42/bin/bin/../../lib/gcc/pic32mx/4.8.3/../../../../pic32mx/lib/./proc/32MX795F512L\default_isr_vectors.o
 .bss           0x00000000        0x0 c:/program files (x86)/microchip/xc32/v1.42/bin/bin/../../lib/gcc/pic32mx/4.8.3/../../../../pic32mx/lib/./proc/32MX795F512L\default_isr_vectors.o
 .reginfo       0x00000000       0x18 c:/program files (x86)/microchip/xc32/v1.42/bin/bin/../../lib/gcc/pic32mx/4.8.3/../../../../pic32mx/lib/./proc/32MX795F512L\default_isr_vectors.o
 .discard       0x00000000       0xd0 c:/program files (x86)/microchip/xc32/v1.42/bin/bin/../../lib/gcc/pic32mx/4.8.3/../../../../pic32mx/lib/./proc/32MX795F512L\default_isr_vectors.o
 .data          0x00000000        0x0 c:/program files (x86)/microchip/xc32/v1.42/bin/bin/../../lib/gcc/pic32mx/4.8.3/../../../../pic32mx/lib\pic32_software_reset.o
 .bss           0x00000000        0x0 c:/program files (x86)/microchip/xc32/v1.42/bin/bin/../../lib/gcc/pic32mx/4.8.3/../../../../pic32mx/lib\pic32_software_reset.o
 .reginfo       0x00000000       0x18 c:/program files (x86)/microchip/xc32/v1.42/bin/bin/../../lib/gcc/pic32mx/4.8.3/../../../../pic32mx/lib\pic32_software_reset.o
 .text          0x00000000        0x0 c:/program files (x86)/microchip/xc32/v1.42/bin/bin/../../lib/gcc/pic32mx/4.8.3/../../../../pic32mx/lib/./proc/32MX795F512L\processor.o
 .data          0x00000000        0x0 c:/program files (x86)/microchip/xc32/v1.42/bin/bin/../../lib/gcc/pic32mx/4.8.3/../../../../pic32mx/lib/./proc/32MX795F512L\processor.o
 .bss           0x00000000        0x0 c:/program files (x86)/microchip/xc32/v1.42/bin/bin/../../lib/gcc/pic32mx/4.8.3/../../../../pic32mx/lib/./proc/32MX795F512L\processor.o
 .reginfo       0x00000000       0x18 c:/program files (x86)/microchip/xc32/v1.42/bin/bin/../../lib/gcc/pic32mx/4.8.3/../../../../pic32mx/lib/./proc/32MX795F512L\processor.o
 .data          0x00000000        0x0 c:/program files (x86)/microchip/xc32/v1.42/bin/bin/../../lib/gcc/pic32mx/4.8.3\libgcc.a(_udivdi3.o)
 .bss           0x00000000        0x0 c:/program files (x86)/microchip/xc32/v1.42/bin/bin/../../lib/gcc/pic32mx/4.8.3\libgcc.a(_udivdi3.o)
 .reginfo       0x00000000       0x18 c:/program files (x86)/microchip/xc32/v1.42/bin/bin/../../lib/gcc/pic32mx/4.8.3\libgcc.a(_udivdi3.o)
 .data          0x00000000        0x0 c:/program files (x86)/microchip/xc32/v1.42/bin/bin/../../lib/gcc/pic32mx/4.8.3\libgcc.a(floatunsisf.o)
 .bss           0x00000000        0x0 c:/program files (x86)/microchip/xc32/v1.42/bin/bin/../../lib/gcc/pic32mx/4.8.3\libgcc.a(floatunsisf.o)
 .reginfo       0x00000000       0x18 c:/program files (x86)/microchip/xc32/v1.42/bin/bin/../../lib/gcc/pic32mx/4.8.3\libgcc.a(floatunsisf.o)
 .data          0x00000000        0x0 c:/program files (x86)/microchip/xc32/v1.42/bin/bin/../../lib/gcc/pic32mx/4.8.3/../../../../pic32mx/lib\libpic32.a(memcmp.o)
 .bss           0x00000000        0x0 c:/program files (x86)/microchip/xc32/v1.42/bin/bin/../../lib/gcc/pic32mx/4.8.3/../../../../pic32mx/lib\libpic32.a(memcmp.o)
 .reginfo       0x00000000       0x18 c:/program files (x86)/microchip/xc32/v1.42/bin/bin/../../lib/gcc/pic32mx/4.8.3/../../../../pic32mx/lib\libpic32.a(memcmp.o)
 .data          0x00000000        0x0 c:/program files (x86)/microchip/xc32/v1.42/bin/bin/../../lib/gcc/pic32mx/4.8.3/../../../../pic32mx/lib\libpic32.a(memcpy.o)
 .bss           0x00000000        0x0 c:/program files (x86)/microchip/xc32/v1.42/bin/bin/../../lib/gcc/pic32mx/4.8.3/../../../../pic32mx/lib\libpic32.a(memcpy.o)
 .reginfo       0x00000000       0x18 c:/program files (x86)/microchip/xc32/v1.42/bin/bin/../../lib/gcc/pic32mx/4.8.3/../../../../pic32mx/lib\libpic32.a(memcpy.o)
 .data          0x00000000        0x0 c:/program files (x86)/microchip/xc32/v1.42/bin/bin/../../lib/gcc/pic32mx/4.8.3/../../../../pic32mx/lib\libpic32.a(memset.o)
 .bss           0x00000000        0x0 c:/program files (x86)/microchip/xc32/v1.42/bin/bin/../../lib/gcc/pic32mx/4.8.3/../../../../pic32mx/lib\libpic32.a(memset.o)
 .reginfo       0x00000000       0x18 c:/program files (x86)/microchip/xc32/v1.42/bin/bin/../../lib/gcc/pic32mx/4.8.3/../../../../pic32mx/lib\libpic32.a(memset.o)
 .data          0x00000000        0x0 c:/program files (x86)/microchip/xc32/v1.42/bin/bin/../../lib/gcc/pic32mx/4.8.3/../../../../pic32mx/lib\libpic32.a(strcmp.o)
 .bss           0x00000000        0x0 c:/program files (x86)/microchip/xc32/v1.42/bin/bin/../../lib/gcc/pic32mx/4.8.3/../../../../pic32mx/lib\libpic32.a(strcmp.o)
 .reginfo       0x00000000       0x18 c:/program files (x86)/microchip/xc32/v1.42/bin/bin/../../lib/gcc/pic32mx/4.8.3/../../../../pic32mx/lib\libpic32.a(strcmp.o)
 .data          0x00000000        0x0 c:/program files (x86)/microchip/xc32/v1.42/bin/bin/../../lib/gcc/pic32mx/4.8.3/../../../../pic32mx/lib\libpic32.a(strcpy.o)
 .bss           0x00000000        0x0 c:/program files (x86)/microchip/xc32/v1.42/bin/bin/../../lib/gcc/pic32mx/4.8.3/../../../../pic32mx/lib\libpic32.a(strcpy.o)
 .reginfo       0x00000000       0x18 c:/program files (x86)/microchip/xc32/v1.42/bin/bin/../../lib/gcc/pic32mx/4.8.3/../../../../pic32mx/lib\libpic32.a(strcpy.o)
 .data          0x00000000        0x0 c:/program files (x86)/microchip/xc32/v1.42/bin/bin/../../lib/gcc/pic32mx/4.8.3/../../../../pic32mx/lib\libpic32.a(strlen.o)
 .bss           0x00000000        0x0 c:/program files (x86)/microchip/xc32/v1.42/bin/bin/../../lib/gcc/pic32mx/4.8.3/../../../../pic32mx/lib\libpic32.a(strlen.o)
 .reginfo       0x00000000       0x18 c:/program files (x86)/microchip/xc32/v1.42/bin/bin/../../lib/gcc/pic32mx/4.8.3/../../../../pic32mx/lib\libpic32.a(strlen.o)
 .text          0x00000000        0x0 c:/program files (x86)/microchip/xc32/v1.42/bin/bin/../../lib/gcc/pic32mx/4.8.3/../../../../pic32mx/lib\libpic32.a(default-bootstrap-exception-handler.o)
 .data          0x00000000        0x0 c:/program files (x86)/microchip/xc32/v1.42/bin/bin/../../lib/gcc/pic32mx/4.8.3/../../../../pic32mx/lib\libpic32.a(default-bootstrap-exception-handler.o)
 .bss           0x00000000        0x0 c:/program files (x86)/microchip/xc32/v1.42/bin/bin/../../lib/gcc/pic32mx/4.8.3/../../../../pic32mx/lib\libpic32.a(default-bootstrap-exception-handler.o)
 .reginfo       0x00000000       0x18 c:/program files (x86)/microchip/xc32/v1.42/bin/bin/../../lib/gcc/pic32mx/4.8.3/../../../../pic32mx/lib\libpic32.a(default-bootstrap-exception-handler.o)
 .text          0x00000000        0x0 c:/program files (x86)/microchip/xc32/v1.42/bin/bin/../../lib/gcc/pic32mx/4.8.3/../../../../pic32mx/lib\libpic32.a(default-on-reset.o)
 .data          0x00000000        0x0 c:/program files (x86)/microchip/xc32/v1.42/bin/bin/../../lib/gcc/pic32mx/4.8.3/../../../../pic32mx/lib\libpic32.a(default-on-reset.o)
 .bss           0x00000000        0x0 c:/program files (x86)/microchip/xc32/v1.42/bin/bin/../../lib/gcc/pic32mx/4.8.3/../../../../pic32mx/lib\libpic32.a(default-on-reset.o)
 .reginfo       0x00000000       0x18 c:/program files (x86)/microchip/xc32/v1.42/bin/bin/../../lib/gcc/pic32mx/4.8.3/../../../../pic32mx/lib\libpic32.a(default-on-reset.o)
 .text          0x00000000        0x0 c:/program files (x86)/microchip/xc32/v1.42/bin/bin/../../lib/gcc/pic32mx/4.8.3/../../../../pic32mx/lib\libpic32.a(default-on-bootstrap.o)
 .data          0x00000000        0x0 c:/program files (x86)/microchip/xc32/v1.42/bin/bin/../../lib/gcc/pic32mx/4.8.3/../../../../pic32mx/lib\libpic32.a(default-on-bootstrap.o)
 .bss           0x00000000        0x0 c:/program files (x86)/microchip/xc32/v1.42/bin/bin/../../lib/gcc/pic32mx/4.8.3/../../../../pic32mx/lib\libpic32.a(default-on-bootstrap.o)
 .reginfo       0x00000000       0x18 c:/program files (x86)/microchip/xc32/v1.42/bin/bin/../../lib/gcc/pic32mx/4.8.3/../../../../pic32mx/lib\libpic32.a(default-on-bootstrap.o)
 .data          0x00000000        0x0 c:/program files (x86)/microchip/xc32/v1.42/bin/bin/../../lib/gcc/pic32mx/4.8.3/../../../../pic32mx/lib\libpic32.a(default-nmi-handler.o)
 .bss           0x00000000        0x0 c:/program files (x86)/microchip/xc32/v1.42/bin/bin/../../lib/gcc/pic32mx/4.8.3/../../../../pic32mx/lib\libpic32.a(default-nmi-handler.o)
 .reginfo       0x00000000       0x18 c:/program files (x86)/microchip/xc32/v1.42/bin/bin/../../lib/gcc/pic32mx/4.8.3/../../../../pic32mx/lib\libpic32.a(default-nmi-handler.o)
 .text          0x00000000        0x0 c:/program files (x86)/microchip/xc32/v1.42/bin/bin/../../lib/gcc/pic32mx/4.8.3/../../../../pic32mx/lib\libpic32.a(general-exception.o)
 .data          0x00000000        0x0 c:/program files (x86)/microchip/xc32/v1.42/bin/bin/../../lib/gcc/pic32mx/4.8.3/../../../../pic32mx/lib\libpic32.a(general-exception.o)
 .bss           0x00000000        0x0 c:/program files (x86)/microchip/xc32/v1.42/bin/bin/../../lib/gcc/pic32mx/4.8.3/../../../../pic32mx/lib\libpic32.a(general-exception.o)
 .reginfo       0x00000000       0x18 c:/program files (x86)/microchip/xc32/v1.42/bin/bin/../../lib/gcc/pic32mx/4.8.3/../../../../pic32mx/lib\libpic32.a(general-exception.o)
 .text          0x00000000        0x0 c:/program files (x86)/microchip/xc32/v1.42/bin/bin/../../lib/gcc/pic32mx/4.8.3/../../../../pic32mx/lib\libpic32.a(vector0.o)
 .data          0x00000000        0x0 c:/program files (x86)/microchip/xc32/v1.42/bin/bin/../../lib/gcc/pic32mx/4.8.3/../../../../pic32mx/lib\libpic32.a(vector0.o)
 .bss           0x00000000        0x0 c:/program files (x86)/microchip/xc32/v1.42/bin/bin/../../lib/gcc/pic32mx/4.8.3/../../../../pic32mx/lib\libpic32.a(vector0.o)
 .reginfo       0x00000000       0x18 c:/program files (x86)/microchip/xc32/v1.42/bin/bin/../../lib/gcc/pic32mx/4.8.3/../../../../pic32mx/lib\libpic32.a(vector0.o)
 .text          0x00000000        0x0 c:/program files (x86)/microchip/xc32/v1.42/bin/bin/../../lib/gcc/pic32mx/4.8.3/../../../../pic32mx/lib\libpic32.a(vector1.o)
 .data          0x00000000        0x0 c:/program files (x86)/microchip/xc32/v1.42/bin/bin/../../lib/gcc/pic32mx/4.8.3/../../../../pic32mx/lib\libpic32.a(vector1.o)
 .bss           0x00000000        0x0 c:/program files (x86)/microchip/xc32/v1.42/bin/bin/../../lib/gcc/pic32mx/4.8.3/../../../../pic32mx/lib\libpic32.a(vector1.o)
 .reginfo       0x00000000       0x18 c:/program files (x86)/microchip/xc32/v1.42/bin/bin/../../lib/gcc/pic32mx/4.8.3/../../../../pic32mx/lib\libpic32.a(vector1.o)
 .text          0x00000000        0x0 c:/program files (x86)/microchip/xc32/v1.42/bin/bin/../../lib/gcc/pic32mx/4.8.3/../../../../pic32mx/lib\libpic32.a(vector2.o)
 .data          0x00000000        0x0 c:/program files (x86)/microchip/xc32/v1.42/bin/bin/../../lib/gcc/pic32mx/4.8.3/../../../../pic32mx/lib\libpic32.a(vector2.o)
 .bss           0x00000000        0x0 c:/program files (x86)/microchip/xc32/v1.42/bin/bin/../../lib/gcc/pic32mx/4.8.3/../../../../pic32mx/lib\libpic32.a(vector2.o)
 .reginfo       0x00000000       0x18 c:/program files (x86)/microchip/xc32/v1.42/bin/bin/../../lib/gcc/pic32mx/4.8.3/../../../../pic32mx/lib\libpic32.a(vector2.o)
 .text          0x00000000        0x0 c:/program files (x86)/microchip/xc32/v1.42/bin/bin/../../lib/gcc/pic32mx/4.8.3/../../../../pic32mx/lib\libpic32.a(vector3.o)
 .data          0x00000000        0x0 c:/program files (x86)/microchip/xc32/v1.42/bin/bin/../../lib/gcc/pic32mx/4.8.3/../../../../pic32mx/lib\libpic32.a(vector3.o)
 .bss           0x00000000        0x0 c:/program files (x86)/microchip/xc32/v1.42/bin/bin/../../lib/gcc/pic32mx/4.8.3/../../../../pic32mx/lib\libpic32.a(vector3.o)
 .reginfo       0x00000000       0x18 c:/program files (x86)/microchip/xc32/v1.42/bin/bin/../../lib/gcc/pic32mx/4.8.3/../../../../pic32mx/lib\libpic32.a(vector3.o)
 .text          0x00000000        0x0 c:/program files (x86)/microchip/xc32/v1.42/bin/bin/../../lib/gcc/pic32mx/4.8.3/../../../../pic32mx/lib\libpic32.a(vector4.o)
 .data          0x00000000        0x0 c:/program files (x86)/microchip/xc32/v1.42/bin/bin/../../lib/gcc/pic32mx/4.8.3/../../../../pic32mx/lib\libpic32.a(vector4.o)
 .bss           0x00000000        0x0 c:/program files (x86)/microchip/xc32/v1.42/bin/bin/../../lib/gcc/pic32mx/4.8.3/../../../../pic32mx/lib\libpic32.a(vector4.o)
 .reginfo       0x00000000       0x18 c:/program files (x86)/microchip/xc32/v1.42/bin/bin/../../lib/gcc/pic32mx/4.8.3/../../../../pic32mx/lib\libpic32.a(vector4.o)
 .text          0x00000000        0x0 c:/program files (x86)/microchip/xc32/v1.42/bin/bin/../../lib/gcc/pic32mx/4.8.3/../../../../pic32mx/lib\libpic32.a(vector5.o)
 .data          0x00000000        0x0 c:/program files (x86)/microchip/xc32/v1.42/bin/bin/../../lib/gcc/pic32mx/4.8.3/../../../../pic32mx/lib\libpic32.a(vector5.o)
 .bss           0x00000000        0x0 c:/program files (x86)/microchip/xc32/v1.42/bin/bin/../../lib/gcc/pic32mx/4.8.3/../../../../pic32mx/lib\libpic32.a(vector5.o)
 .reginfo       0x00000000       0x18 c:/program files (x86)/microchip/xc32/v1.42/bin/bin/../../lib/gcc/pic32mx/4.8.3/../../../../pic32mx/lib\libpic32.a(vector5.o)
 .text          0x00000000        0x0 c:/program files (x86)/microchip/xc32/v1.42/bin/bin/../../lib/gcc/pic32mx/4.8.3/../../../../pic32mx/lib\libpic32.a(vector6.o)
 .data          0x00000000        0x0 c:/program files (x86)/microchip/xc32/v1.42/bin/bin/../../lib/gcc/pic32mx/4.8.3/../../../../pic32mx/lib\libpic32.a(vector6.o)
 .bss           0x00000000        0x0 c:/program files (x86)/microchip/xc32/v1.42/bin/bin/../../lib/gcc/pic32mx/4.8.3/../../../../pic32mx/lib\libpic32.a(vector6.o)
 .reginfo       0x00000000       0x18 c:/program files (x86)/microchip/xc32/v1.42/bin/bin/../../lib/gcc/pic32mx/4.8.3/../../../../pic32mx/lib\libpic32.a(vector6.o)
 .text          0x00000000        0x0 c:/program files (x86)/microchip/xc32/v1.42/bin/bin/../../lib/gcc/pic32mx/4.8.3/../../../../pic32mx/lib\libpic32.a(vector7.o)
 .data          0x00000000        0x0 c:/program files (x86)/microchip/xc32/v1.42/bin/bin/../../lib/gcc/pic32mx/4.8.3/../../../../pic32mx/lib\libpic32.a(vector7.o)
 .bss           0x00000000        0x0 c:/program files (x86)/microchip/xc32/v1.42/bin/bin/../../lib/gcc/pic32mx/4.8.3/../../../../pic32mx/lib\libpic32.a(vector7.o)
 .reginfo       0x00000000       0x18 c:/program files (x86)/microchip/xc32/v1.42/bin/bin/../../lib/gcc/pic32mx/4.8.3/../../../../pic32mx/lib\libpic32.a(vector7.o)
 .text          0x00000000        0x0 c:/program files (x86)/microchip/xc32/v1.42/bin/bin/../../lib/gcc/pic32mx/4.8.3/../../../../pic32mx/lib\libpic32.a(vector9.o)
 .data          0x00000000        0x0 c:/program files (x86)/microchip/xc32/v1.42/bin/bin/../../lib/gcc/pic32mx/4.8.3/../../../../pic32mx/lib\libpic32.a(vector9.o)
 .bss           0x00000000        0x0 c:/program files (x86)/microchip/xc32/v1.42/bin/bin/../../lib/gcc/pic32mx/4.8.3/../../../../pic32mx/lib\libpic32.a(vector9.o)
 .reginfo       0x00000000       0x18 c:/program files (x86)/microchip/xc32/v1.42/bin/bin/../../lib/gcc/pic32mx/4.8.3/../../../../pic32mx/lib\libpic32.a(vector9.o)
 .text          0x00000000        0x0 c:/program files (x86)/microchip/xc32/v1.42/bin/bin/../../lib/gcc/pic32mx/4.8.3/../../../../pic32mx/lib\libpic32.a(vector10.o)
 .data          0x00000000        0x0 c:/program files (x86)/microchip/xc32/v1.42/bin/bin/../../lib/gcc/pic32mx/4.8.3/../../../../pic32mx/lib\libpic32.a(vector10.o)
 .bss           0x00000000        0x0 c:/program files (x86)/microchip/xc32/v1.42/bin/bin/../../lib/gcc/pic32mx/4.8.3/../../../../pic32mx/lib\libpic32.a(vector10.o)
 .reginfo       0x00000000       0x18 c:/program files (x86)/microchip/xc32/v1.42/bin/bin/../../lib/gcc/pic32mx/4.8.3/../../../../pic32mx/lib\libpic32.a(vector10.o)
 .text          0x00000000        0x0 c:/program files (x86)/microchip/xc32/v1.42/bin/bin/../../lib/gcc/pic32mx/4.8.3/../../../../pic32mx/lib\libpic32.a(vector11.o)
 .data          0x00000000        0x0 c:/program files (x86)/microchip/xc32/v1.42/bin/bin/../../lib/gcc/pic32mx/4.8.3/../../../../pic32mx/lib\libpic32.a(vector11.o)
 .bss           0x00000000        0x0 c:/program files (x86)/microchip/xc32/v1.42/bin/bin/../../lib/gcc/pic32mx/4.8.3/../../../../pic32mx/lib\libpic32.a(vector11.o)
 .reginfo       0x00000000       0x18 c:/program files (x86)/microchip/xc32/v1.42/bin/bin/../../lib/gcc/pic32mx/4.8.3/../../../../pic32mx/lib\libpic32.a(vector11.o)
 .text          0x00000000        0x0 c:/program files (x86)/microchip/xc32/v1.42/bin/bin/../../lib/gcc/pic32mx/4.8.3/../../../../pic32mx/lib\libpic32.a(vector12.o)
 .data          0x00000000        0x0 c:/program files (x86)/microchip/xc32/v1.42/bin/bin/../../lib/gcc/pic32mx/4.8.3/../../../../pic32mx/lib\libpic32.a(vector12.o)
 .bss           0x00000000        0x0 c:/program files (x86)/microchip/xc32/v1.42/bin/bin/../../lib/gcc/pic32mx/4.8.3/../../../../pic32mx/lib\libpic32.a(vector12.o)
 .reginfo       0x00000000       0x18 c:/program files (x86)/microchip/xc32/v1.42/bin/bin/../../lib/gcc/pic32mx/4.8.3/../../../../pic32mx/lib\libpic32.a(vector12.o)
 .text          0x00000000        0x0 c:/program files (x86)/microchip/xc32/v1.42/bin/bin/../../lib/gcc/pic32mx/4.8.3/../../../../pic32mx/lib\libpic32.a(vector13.o)
 .data          0x00000000        0x0 c:/program files (x86)/microchip/xc32/v1.42/bin/bin/../../lib/gcc/pic32mx/4.8.3/../../../../pic32mx/lib\libpic32.a(vector13.o)
 .bss           0x00000000        0x0 c:/program files (x86)/microchip/xc32/v1.42/bin/bin/../../lib/gcc/pic32mx/4.8.3/../../../../pic32mx/lib\libpic32.a(vector13.o)
 .reginfo       0x00000000       0x18 c:/program files (x86)/microchip/xc32/v1.42/bin/bin/../../lib/gcc/pic32mx/4.8.3/../../../../pic32mx/lib\libpic32.a(vector13.o)
 .text          0x00000000        0x0 c:/program files (x86)/microchip/xc32/v1.42/bin/bin/../../lib/gcc/pic32mx/4.8.3/../../../../pic32mx/lib\libpic32.a(vector14.o)
 .data          0x00000000        0x0 c:/program files (x86)/microchip/xc32/v1.42/bin/bin/../../lib/gcc/pic32mx/4.8.3/../../../../pic32mx/lib\libpic32.a(vector14.o)
 .bss           0x00000000        0x0 c:/program files (x86)/microchip/xc32/v1.42/bin/bin/../../lib/gcc/pic32mx/4.8.3/../../../../pic32mx/lib\libpic32.a(vector14.o)
 .reginfo       0x00000000       0x18 c:/program files (x86)/microchip/xc32/v1.42/bin/bin/../../lib/gcc/pic32mx/4.8.3/../../../../pic32mx/lib\libpic32.a(vector14.o)
 .text          0x00000000        0x0 c:/program files (x86)/microchip/xc32/v1.42/bin/bin/../../lib/gcc/pic32mx/4.8.3/../../../../pic32mx/lib\libpic32.a(vector15.o)
 .data          0x00000000        0x0 c:/program files (x86)/microchip/xc32/v1.42/bin/bin/../../lib/gcc/pic32mx/4.8.3/../../../../pic32mx/lib\libpic32.a(vector15.o)
 .bss           0x00000000        0x0 c:/program files (x86)/microchip/xc32/v1.42/bin/bin/../../lib/gcc/pic32mx/4.8.3/../../../../pic32mx/lib\libpic32.a(vector15.o)
 .reginfo       0x00000000       0x18 c:/program files (x86)/microchip/xc32/v1.42/bin/bin/../../lib/gcc/pic32mx/4.8.3/../../../../pic32mx/lib\libpic32.a(vector15.o)
 .text          0x00000000        0x0 c:/program files (x86)/microchip/xc32/v1.42/bin/bin/../../lib/gcc/pic32mx/4.8.3/../../../../pic32mx/lib\libpic32.a(vector16.o)
 .data          0x00000000        0x0 c:/program files (x86)/microchip/xc32/v1.42/bin/bin/../../lib/gcc/pic32mx/4.8.3/../../../../pic32mx/lib\libpic32.a(vector16.o)
 .bss           0x00000000        0x0 c:/program files (x86)/microchip/xc32/v1.42/bin/bin/../../lib/gcc/pic32mx/4.8.3/../../../../pic32mx/lib\libpic32.a(vector16.o)
 .reginfo       0x00000000       0x18 c:/program files (x86)/microchip/xc32/v1.42/bin/bin/../../lib/gcc/pic32mx/4.8.3/../../../../pic32mx/lib\libpic32.a(vector16.o)
 .text          0x00000000        0x0 c:/program files (x86)/microchip/xc32/v1.42/bin/bin/../../lib/gcc/pic32mx/4.8.3/../../../../pic32mx/lib\libpic32.a(vector17.o)
 .data          0x00000000        0x0 c:/program files (x86)/microchip/xc32/v1.42/bin/bin/../../lib/gcc/pic32mx/4.8.3/../../../../pic32mx/lib\libpic32.a(vector17.o)
 .bss           0x00000000        0x0 c:/program files (x86)/microchip/xc32/v1.42/bin/bin/../../lib/gcc/pic32mx/4.8.3/../../../../pic32mx/lib\libpic32.a(vector17.o)
 .reginfo       0x00000000       0x18 c:/program files (x86)/microchip/xc32/v1.42/bin/bin/../../lib/gcc/pic32mx/4.8.3/../../../../pic32mx/lib\libpic32.a(vector17.o)
 .text          0x00000000        0x0 c:/program files (x86)/microchip/xc32/v1.42/bin/bin/../../lib/gcc/pic32mx/4.8.3/../../../../pic32mx/lib\libpic32.a(vector18.o)
 .data          0x00000000        0x0 c:/program files (x86)/microchip/xc32/v1.42/bin/bin/../../lib/gcc/pic32mx/4.8.3/../../../../pic32mx/lib\libpic32.a(vector18.o)
 .bss           0x00000000        0x0 c:/program files (x86)/microchip/xc32/v1.42/bin/bin/../../lib/gcc/pic32mx/4.8.3/../../../../pic32mx/lib\libpic32.a(vector18.o)
 .reginfo       0x00000000       0x18 c:/program files (x86)/microchip/xc32/v1.42/bin/bin/../../lib/gcc/pic32mx/4.8.3/../../../../pic32mx/lib\libpic32.a(vector18.o)
 .text          0x00000000        0x0 c:/program files (x86)/microchip/xc32/v1.42/bin/bin/../../lib/gcc/pic32mx/4.8.3/../../../../pic32mx/lib\libpic32.a(vector19.o)
 .data          0x00000000        0x0 c:/program files (x86)/microchip/xc32/v1.42/bin/bin/../../lib/gcc/pic32mx/4.8.3/../../../../pic32mx/lib\libpic32.a(vector19.o)
 .bss           0x00000000        0x0 c:/program files (x86)/microchip/xc32/v1.42/bin/bin/../../lib/gcc/pic32mx/4.8.3/../../../../pic32mx/lib\libpic32.a(vector19.o)
 .reginfo       0x00000000       0x18 c:/program files (x86)/microchip/xc32/v1.42/bin/bin/../../lib/gcc/pic32mx/4.8.3/../../../../pic32mx/lib\libpic32.a(vector19.o)
 .text          0x00000000        0x0 c:/program files (x86)/microchip/xc32/v1.42/bin/bin/../../lib/gcc/pic32mx/4.8.3/../../../../pic32mx/lib\libpic32.a(vector20.o)
 .data          0x00000000        0x0 c:/program files (x86)/microchip/xc32/v1.42/bin/bin/../../lib/gcc/pic32mx/4.8.3/../../../../pic32mx/lib\libpic32.a(vector20.o)
 .bss           0x00000000        0x0 c:/program files (x86)/microchip/xc32/v1.42/bin/bin/../../lib/gcc/pic32mx/4.8.3/../../../../pic32mx/lib\libpic32.a(vector20.o)
 .reginfo       0x00000000       0x18 c:/program files (x86)/microchip/xc32/v1.42/bin/bin/../../lib/gcc/pic32mx/4.8.3/../../../../pic32mx/lib\libpic32.a(vector20.o)
 .text          0x00000000        0x0 c:/program files (x86)/microchip/xc32/v1.42/bin/bin/../../lib/gcc/pic32mx/4.8.3/../../../../pic32mx/lib\libpic32.a(vector21.o)
 .data          0x00000000        0x0 c:/program files (x86)/microchip/xc32/v1.42/bin/bin/../../lib/gcc/pic32mx/4.8.3/../../../../pic32mx/lib\libpic32.a(vector21.o)
 .bss           0x00000000        0x0 c:/program files (x86)/microchip/xc32/v1.42/bin/bin/../../lib/gcc/pic32mx/4.8.3/../../../../pic32mx/lib\libpic32.a(vector21.o)
 .reginfo       0x00000000       0x18 c:/program files (x86)/microchip/xc32/v1.42/bin/bin/../../lib/gcc/pic32mx/4.8.3/../../../../pic32mx/lib\libpic32.a(vector21.o)
 .text          0x00000000        0x0 c:/program files (x86)/microchip/xc32/v1.42/bin/bin/../../lib/gcc/pic32mx/4.8.3/../../../../pic32mx/lib\libpic32.a(vector22.o)
 .data          0x00000000        0x0 c:/program files (x86)/microchip/xc32/v1.42/bin/bin/../../lib/gcc/pic32mx/4.8.3/../../../../pic32mx/lib\libpic32.a(vector22.o)
 .bss           0x00000000        0x0 c:/program files (x86)/microchip/xc32/v1.42/bin/bin/../../lib/gcc/pic32mx/4.8.3/../../../../pic32mx/lib\libpic32.a(vector22.o)
 .reginfo       0x00000000       0x18 c:/program files (x86)/microchip/xc32/v1.42/bin/bin/../../lib/gcc/pic32mx/4.8.3/../../../../pic32mx/lib\libpic32.a(vector22.o)
 .text          0x00000000        0x0 c:/program files (x86)/microchip/xc32/v1.42/bin/bin/../../lib/gcc/pic32mx/4.8.3/../../../../pic32mx/lib\libpic32.a(vector24.o)
 .data          0x00000000        0x0 c:/program files (x86)/microchip/xc32/v1.42/bin/bin/../../lib/gcc/pic32mx/4.8.3/../../../../pic32mx/lib\libpic32.a(vector24.o)
 .bss           0x00000000        0x0 c:/program files (x86)/microchip/xc32/v1.42/bin/bin/../../lib/gcc/pic32mx/4.8.3/../../../../pic32mx/lib\libpic32.a(vector24.o)
 .reginfo       0x00000000       0x18 c:/program files (x86)/microchip/xc32/v1.42/bin/bin/../../lib/gcc/pic32mx/4.8.3/../../../../pic32mx/lib\libpic32.a(vector24.o)
 .text          0x00000000        0x0 c:/program files (x86)/microchip/xc32/v1.42/bin/bin/../../lib/gcc/pic32mx/4.8.3/../../../../pic32mx/lib\libpic32.a(vector25.o)
 .data          0x00000000        0x0 c:/program files (x86)/microchip/xc32/v1.42/bin/bin/../../lib/gcc/pic32mx/4.8.3/../../../../pic32mx/lib\libpic32.a(vector25.o)
 .bss           0x00000000        0x0 c:/program files (x86)/microchip/xc32/v1.42/bin/bin/../../lib/gcc/pic32mx/4.8.3/../../../../pic32mx/lib\libpic32.a(vector25.o)
 .reginfo       0x00000000       0x18 c:/program files (x86)/microchip/xc32/v1.42/bin/bin/../../lib/gcc/pic32mx/4.8.3/../../../../pic32mx/lib\libpic32.a(vector25.o)
 .text          0x00000000        0x0 c:/program files (x86)/microchip/xc32/v1.42/bin/bin/../../lib/gcc/pic32mx/4.8.3/../../../../pic32mx/lib\libpic32.a(vector26.o)
 .data          0x00000000        0x0 c:/program files (x86)/microchip/xc32/v1.42/bin/bin/../../lib/gcc/pic32mx/4.8.3/../../../../pic32mx/lib\libpic32.a(vector26.o)
 .bss           0x00000000        0x0 c:/program files (x86)/microchip/xc32/v1.42/bin/bin/../../lib/gcc/pic32mx/4.8.3/../../../../pic32mx/lib\libpic32.a(vector26.o)
 .reginfo       0x00000000       0x18 c:/program files (x86)/microchip/xc32/v1.42/bin/bin/../../lib/gcc/pic32mx/4.8.3/../../../../pic32mx/lib\libpic32.a(vector26.o)
 .text          0x00000000        0x0 c:/program files (x86)/microchip/xc32/v1.42/bin/bin/../../lib/gcc/pic32mx/4.8.3/../../../../pic32mx/lib\libpic32.a(vector27.o)
 .data          0x00000000        0x0 c:/program files (x86)/microchip/xc32/v1.42/bin/bin/../../lib/gcc/pic32mx/4.8.3/../../../../pic32mx/lib\libpic32.a(vector27.o)
 .bss           0x00000000        0x0 c:/program files (x86)/microchip/xc32/v1.42/bin/bin/../../lib/gcc/pic32mx/4.8.3/../../../../pic32mx/lib\libpic32.a(vector27.o)
 .reginfo       0x00000000       0x18 c:/program files (x86)/microchip/xc32/v1.42/bin/bin/../../lib/gcc/pic32mx/4.8.3/../../../../pic32mx/lib\libpic32.a(vector27.o)
 .text          0x00000000        0x0 c:/program files (x86)/microchip/xc32/v1.42/bin/bin/../../lib/gcc/pic32mx/4.8.3/../../../../pic32mx/lib\libpic32.a(vector28.o)
 .data          0x00000000        0x0 c:/program files (x86)/microchip/xc32/v1.42/bin/bin/../../lib/gcc/pic32mx/4.8.3/../../../../pic32mx/lib\libpic32.a(vector28.o)
 .bss           0x00000000        0x0 c:/program files (x86)/microchip/xc32/v1.42/bin/bin/../../lib/gcc/pic32mx/4.8.3/../../../../pic32mx/lib\libpic32.a(vector28.o)
 .reginfo       0x00000000       0x18 c:/program files (x86)/microchip/xc32/v1.42/bin/bin/../../lib/gcc/pic32mx/4.8.3/../../../../pic32mx/lib\libpic32.a(vector28.o)
 .text          0x00000000        0x0 c:/program files (x86)/microchip/xc32/v1.42/bin/bin/../../lib/gcc/pic32mx/4.8.3/../../../../pic32mx/lib\libpic32.a(vector29.o)
 .data          0x00000000        0x0 c:/program files (x86)/microchip/xc32/v1.42/bin/bin/../../lib/gcc/pic32mx/4.8.3/../../../../pic32mx/lib\libpic32.a(vector29.o)
 .bss           0x00000000        0x0 c:/program files (x86)/microchip/xc32/v1.42/bin/bin/../../lib/gcc/pic32mx/4.8.3/../../../../pic32mx/lib\libpic32.a(vector29.o)
 .reginfo       0x00000000       0x18 c:/program files (x86)/microchip/xc32/v1.42/bin/bin/../../lib/gcc/pic32mx/4.8.3/../../../../pic32mx/lib\libpic32.a(vector29.o)
 .text          0x00000000        0x0 c:/program files (x86)/microchip/xc32/v1.42/bin/bin/../../lib/gcc/pic32mx/4.8.3/../../../../pic32mx/lib\libpic32.a(vector30.o)
 .data          0x00000000        0x0 c:/program files (x86)/microchip/xc32/v1.42/bin/bin/../../lib/gcc/pic32mx/4.8.3/../../../../pic32mx/lib\libpic32.a(vector30.o)
 .bss           0x00000000        0x0 c:/program files (x86)/microchip/xc32/v1.42/bin/bin/../../lib/gcc/pic32mx/4.8.3/../../../../pic32mx/lib\libpic32.a(vector30.o)
 .reginfo       0x00000000       0x18 c:/program files (x86)/microchip/xc32/v1.42/bin/bin/../../lib/gcc/pic32mx/4.8.3/../../../../pic32mx/lib\libpic32.a(vector30.o)
 .text          0x00000000        0x0 c:/program files (x86)/microchip/xc32/v1.42/bin/bin/../../lib/gcc/pic32mx/4.8.3/../../../../pic32mx/lib\libpic32.a(vector33.o)
 .data          0x00000000        0x0 c:/program files (x86)/microchip/xc32/v1.42/bin/bin/../../lib/gcc/pic32mx/4.8.3/../../../../pic32mx/lib\libpic32.a(vector33.o)
 .bss           0x00000000        0x0 c:/program files (x86)/microchip/xc32/v1.42/bin/bin/../../lib/gcc/pic32mx/4.8.3/../../../../pic32mx/lib\libpic32.a(vector33.o)
 .reginfo       0x00000000       0x18 c:/program files (x86)/microchip/xc32/v1.42/bin/bin/../../lib/gcc/pic32mx/4.8.3/../../../../pic32mx/lib\libpic32.a(vector33.o)
 .text          0x00000000        0x0 c:/program files (x86)/microchip/xc32/v1.42/bin/bin/../../lib/gcc/pic32mx/4.8.3/../../../../pic32mx/lib\libpic32.a(vector34.o)
 .data          0x00000000        0x0 c:/program files (x86)/microchip/xc32/v1.42/bin/bin/../../lib/gcc/pic32mx/4.8.3/../../../../pic32mx/lib\libpic32.a(vector34.o)
 .bss           0x00000000        0x0 c:/program files (x86)/microchip/xc32/v1.42/bin/bin/../../lib/gcc/pic32mx/4.8.3/../../../../pic32mx/lib\libpic32.a(vector34.o)
 .reginfo       0x00000000       0x18 c:/program files (x86)/microchip/xc32/v1.42/bin/bin/../../lib/gcc/pic32mx/4.8.3/../../../../pic32mx/lib\libpic32.a(vector34.o)
 .text          0x00000000        0x0 c:/program files (x86)/microchip/xc32/v1.42/bin/bin/../../lib/gcc/pic32mx/4.8.3/../../../../pic32mx/lib\libpic32.a(vector35.o)
 .data          0x00000000        0x0 c:/program files (x86)/microchip/xc32/v1.42/bin/bin/../../lib/gcc/pic32mx/4.8.3/../../../../pic32mx/lib\libpic32.a(vector35.o)
 .bss           0x00000000        0x0 c:/program files (x86)/microchip/xc32/v1.42/bin/bin/../../lib/gcc/pic32mx/4.8.3/../../../../pic32mx/lib\libpic32.a(vector35.o)
 .reginfo       0x00000000       0x18 c:/program files (x86)/microchip/xc32/v1.42/bin/bin/../../lib/gcc/pic32mx/4.8.3/../../../../pic32mx/lib\libpic32.a(vector35.o)
 .text          0x00000000        0x0 c:/program files (x86)/microchip/xc32/v1.42/bin/bin/../../lib/gcc/pic32mx/4.8.3/../../../../pic32mx/lib\libpic32.a(vector36.o)
 .data          0x00000000        0x0 c:/program files (x86)/microchip/xc32/v1.42/bin/bin/../../lib/gcc/pic32mx/4.8.3/../../../../pic32mx/lib\libpic32.a(vector36.o)
 .bss           0x00000000        0x0 c:/program files (x86)/microchip/xc32/v1.42/bin/bin/../../lib/gcc/pic32mx/4.8.3/../../../../pic32mx/lib\libpic32.a(vector36.o)
 .reginfo       0x00000000       0x18 c:/program files (x86)/microchip/xc32/v1.42/bin/bin/../../lib/gcc/pic32mx/4.8.3/../../../../pic32mx/lib\libpic32.a(vector36.o)
 .text          0x00000000        0x0 c:/program files (x86)/microchip/xc32/v1.42/bin/bin/../../lib/gcc/pic32mx/4.8.3/../../../../pic32mx/lib\libpic32.a(vector37.o)
 .data          0x00000000        0x0 c:/program files (x86)/microchip/xc32/v1.42/bin/bin/../../lib/gcc/pic32mx/4.8.3/../../../../pic32mx/lib\libpic32.a(vector37.o)
 .bss           0x00000000        0x0 c:/program files (x86)/microchip/xc32/v1.42/bin/bin/../../lib/gcc/pic32mx/4.8.3/../../../../pic32mx/lib\libpic32.a(vector37.o)
 .reginfo       0x00000000       0x18 c:/program files (x86)/microchip/xc32/v1.42/bin/bin/../../lib/gcc/pic32mx/4.8.3/../../../../pic32mx/lib\libpic32.a(vector37.o)
 .text          0x00000000        0x0 c:/program files (x86)/microchip/xc32/v1.42/bin/bin/../../lib/gcc/pic32mx/4.8.3/../../../../pic32mx/lib\libpic32.a(vector38.o)
 .data          0x00000000        0x0 c:/program files (x86)/microchip/xc32/v1.42/bin/bin/../../lib/gcc/pic32mx/4.8.3/../../../../pic32mx/lib\libpic32.a(vector38.o)
 .bss           0x00000000        0x0 c:/program files (x86)/microchip/xc32/v1.42/bin/bin/../../lib/gcc/pic32mx/4.8.3/../../../../pic32mx/lib\libpic32.a(vector38.o)
 .reginfo       0x00000000       0x18 c:/program files (x86)/microchip/xc32/v1.42/bin/bin/../../lib/gcc/pic32mx/4.8.3/../../../../pic32mx/lib\libpic32.a(vector38.o)
 .text          0x00000000        0x0 c:/program files (x86)/microchip/xc32/v1.42/bin/bin/../../lib/gcc/pic32mx/4.8.3/../../../../pic32mx/lib\libpic32.a(vector39.o)
 .data          0x00000000        0x0 c:/program files (x86)/microchip/xc32/v1.42/bin/bin/../../lib/gcc/pic32mx/4.8.3/../../../../pic32mx/lib\libpic32.a(vector39.o)
 .bss           0x00000000        0x0 c:/program files (x86)/microchip/xc32/v1.42/bin/bin/../../lib/gcc/pic32mx/4.8.3/../../../../pic32mx/lib\libpic32.a(vector39.o)
 .reginfo       0x00000000       0x18 c:/program files (x86)/microchip/xc32/v1.42/bin/bin/../../lib/gcc/pic32mx/4.8.3/../../../../pic32mx/lib\libpic32.a(vector39.o)
 .text          0x00000000        0x0 c:/program files (x86)/microchip/xc32/v1.42/bin/bin/../../lib/gcc/pic32mx/4.8.3/../../../../pic32mx/lib\libpic32.a(vector40.o)
 .data          0x00000000        0x0 c:/program files (x86)/microchip/xc32/v1.42/bin/bin/../../lib/gcc/pic32mx/4.8.3/../../../../pic32mx/lib\libpic32.a(vector40.o)
 .bss           0x00000000        0x0 c:/program files (x86)/microchip/xc32/v1.42/bin/bin/../../lib/gcc/pic32mx/4.8.3/../../../../pic32mx/lib\libpic32.a(vector40.o)
 .reginfo       0x00000000       0x18 c:/program files (x86)/microchip/xc32/v1.42/bin/bin/../../lib/gcc/pic32mx/4.8.3/../../../../pic32mx/lib\libpic32.a(vector40.o)
 .text          0x00000000        0x0 c:/program files (x86)/microchip/xc32/v1.42/bin/bin/../../lib/gcc/pic32mx/4.8.3/../../../../pic32mx/lib\libpic32.a(vector41.o)
 .data          0x00000000        0x0 c:/program files (x86)/microchip/xc32/v1.42/bin/bin/../../lib/gcc/pic32mx/4.8.3/../../../../pic32mx/lib\libpic32.a(vector41.o)
 .bss           0x00000000        0x0 c:/program files (x86)/microchip/xc32/v1.42/bin/bin/../../lib/gcc/pic32mx/4.8.3/../../../../pic32mx/lib\libpic32.a(vector41.o)
 .reginfo       0x00000000       0x18 c:/program files (x86)/microchip/xc32/v1.42/bin/bin/../../lib/gcc/pic32mx/4.8.3/../../../../pic32mx/lib\libpic32.a(vector41.o)
 .text          0x00000000        0x0 c:/program files (x86)/microchip/xc32/v1.42/bin/bin/../../lib/gcc/pic32mx/4.8.3/../../../../pic32mx/lib\libpic32.a(vector42.o)
 .data          0x00000000        0x0 c:/program files (x86)/microchip/xc32/v1.42/bin/bin/../../lib/gcc/pic32mx/4.8.3/../../../../pic32mx/lib\libpic32.a(vector42.o)
 .bss           0x00000000        0x0 c:/program files (x86)/microchip/xc32/v1.42/bin/bin/../../lib/gcc/pic32mx/4.8.3/../../../../pic32mx/lib\libpic32.a(vector42.o)
 .reginfo       0x00000000       0x18 c:/program files (x86)/microchip/xc32/v1.42/bin/bin/../../lib/gcc/pic32mx/4.8.3/../../../../pic32mx/lib\libpic32.a(vector42.o)
 .text          0x00000000        0x0 c:/program files (x86)/microchip/xc32/v1.42/bin/bin/../../lib/gcc/pic32mx/4.8.3/../../../../pic32mx/lib\libpic32.a(vector43.o)
 .data          0x00000000        0x0 c:/program files (x86)/microchip/xc32/v1.42/bin/bin/../../lib/gcc/pic32mx/4.8.3/../../../../pic32mx/lib\libpic32.a(vector43.o)
 .bss           0x00000000        0x0 c:/program files (x86)/microchip/xc32/v1.42/bin/bin/../../lib/gcc/pic32mx/4.8.3/../../../../pic32mx/lib\libpic32.a(vector43.o)
 .reginfo       0x00000000       0x18 c:/program files (x86)/microchip/xc32/v1.42/bin/bin/../../lib/gcc/pic32mx/4.8.3/../../../../pic32mx/lib\libpic32.a(vector43.o)
 .text          0x00000000        0x0 c:/program files (x86)/microchip/xc32/v1.42/bin/bin/../../lib/gcc/pic32mx/4.8.3/../../../../pic32mx/lib\libpic32.a(vector44.o)
 .data          0x00000000        0x0 c:/program files (x86)/microchip/xc32/v1.42/bin/bin/../../lib/gcc/pic32mx/4.8.3/../../../../pic32mx/lib\libpic32.a(vector44.o)
 .bss           0x00000000        0x0 c:/program files (x86)/microchip/xc32/v1.42/bin/bin/../../lib/gcc/pic32mx/4.8.3/../../../../pic32mx/lib\libpic32.a(vector44.o)
 .reginfo       0x00000000       0x18 c:/program files (x86)/microchip/xc32/v1.42/bin/bin/../../lib/gcc/pic32mx/4.8.3/../../../../pic32mx/lib\libpic32.a(vector44.o)
 .text          0x00000000        0x0 c:/program files (x86)/microchip/xc32/v1.42/bin/bin/../../lib/gcc/pic32mx/4.8.3/../../../../pic32mx/lib\libpic32.a(vector45.o)
 .data          0x00000000        0x0 c:/program files (x86)/microchip/xc32/v1.42/bin/bin/../../lib/gcc/pic32mx/4.8.3/../../../../pic32mx/lib\libpic32.a(vector45.o)
 .bss           0x00000000        0x0 c:/program files (x86)/microchip/xc32/v1.42/bin/bin/../../lib/gcc/pic32mx/4.8.3/../../../../pic32mx/lib\libpic32.a(vector45.o)
 .reginfo       0x00000000       0x18 c:/program files (x86)/microchip/xc32/v1.42/bin/bin/../../lib/gcc/pic32mx/4.8.3/../../../../pic32mx/lib\libpic32.a(vector45.o)
 .text          0x00000000        0x0 c:/program files (x86)/microchip/xc32/v1.42/bin/bin/../../lib/gcc/pic32mx/4.8.3/../../../../pic32mx/lib\libpic32.a(vector46.o)
 .data          0x00000000        0x0 c:/program files (x86)/microchip/xc32/v1.42/bin/bin/../../lib/gcc/pic32mx/4.8.3/../../../../pic32mx/lib\libpic32.a(vector46.o)
 .bss           0x00000000        0x0 c:/program files (x86)/microchip/xc32/v1.42/bin/bin/../../lib/gcc/pic32mx/4.8.3/../../../../pic32mx/lib\libpic32.a(vector46.o)
 .reginfo       0x00000000       0x18 c:/program files (x86)/microchip/xc32/v1.42/bin/bin/../../lib/gcc/pic32mx/4.8.3/../../../../pic32mx/lib\libpic32.a(vector46.o)
 .text          0x00000000        0x0 c:/program files (x86)/microchip/xc32/v1.42/bin/bin/../../lib/gcc/pic32mx/4.8.3/../../../../pic32mx/lib\libpic32.a(vector47.o)
 .data          0x00000000        0x0 c:/program files (x86)/microchip/xc32/v1.42/bin/bin/../../lib/gcc/pic32mx/4.8.3/../../../../pic32mx/lib\libpic32.a(vector47.o)
 .bss           0x00000000        0x0 c:/program files (x86)/microchip/xc32/v1.42/bin/bin/../../lib/gcc/pic32mx/4.8.3/../../../../pic32mx/lib\libpic32.a(vector47.o)
 .reginfo       0x00000000       0x18 c:/program files (x86)/microchip/xc32/v1.42/bin/bin/../../lib/gcc/pic32mx/4.8.3/../../../../pic32mx/lib\libpic32.a(vector47.o)
 .text          0x00000000        0x0 c:/program files (x86)/microchip/xc32/v1.42/bin/bin/../../lib/gcc/pic32mx/4.8.3/../../../../pic32mx/lib\libpic32.a(vector48.o)
 .data          0x00000000        0x0 c:/program files (x86)/microchip/xc32/v1.42/bin/bin/../../lib/gcc/pic32mx/4.8.3/../../../../pic32mx/lib\libpic32.a(vector48.o)
 .bss           0x00000000        0x0 c:/program files (x86)/microchip/xc32/v1.42/bin/bin/../../lib/gcc/pic32mx/4.8.3/../../../../pic32mx/lib\libpic32.a(vector48.o)
 .reginfo       0x00000000       0x18 c:/program files (x86)/microchip/xc32/v1.42/bin/bin/../../lib/gcc/pic32mx/4.8.3/../../../../pic32mx/lib\libpic32.a(vector48.o)
 .text          0x00000000        0x0 c:/program files (x86)/microchip/xc32/v1.42/bin/bin/../../lib/gcc/pic32mx/4.8.3/../../../../pic32mx/lib\libpic32.a(vector49.o)
 .data          0x00000000        0x0 c:/program files (x86)/microchip/xc32/v1.42/bin/bin/../../lib/gcc/pic32mx/4.8.3/../../../../pic32mx/lib\libpic32.a(vector49.o)
 .bss           0x00000000        0x0 c:/program files (x86)/microchip/xc32/v1.42/bin/bin/../../lib/gcc/pic32mx/4.8.3/../../../../pic32mx/lib\libpic32.a(vector49.o)
 .reginfo       0x00000000       0x18 c:/program files (x86)/microchip/xc32/v1.42/bin/bin/../../lib/gcc/pic32mx/4.8.3/../../../../pic32mx/lib\libpic32.a(vector49.o)
 .text          0x00000000        0x0 c:/program files (x86)/microchip/xc32/v1.42/bin/bin/../../lib/gcc/pic32mx/4.8.3/../../../../pic32mx/lib\libpic32.a(vector50.o)
 .data          0x00000000        0x0 c:/program files (x86)/microchip/xc32/v1.42/bin/bin/../../lib/gcc/pic32mx/4.8.3/../../../../pic32mx/lib\libpic32.a(vector50.o)
 .bss           0x00000000        0x0 c:/program files (x86)/microchip/xc32/v1.42/bin/bin/../../lib/gcc/pic32mx/4.8.3/../../../../pic32mx/lib\libpic32.a(vector50.o)
 .reginfo       0x00000000       0x18 c:/program files (x86)/microchip/xc32/v1.42/bin/bin/../../lib/gcc/pic32mx/4.8.3/../../../../pic32mx/lib\libpic32.a(vector50.o)
 .text          0x00000000        0x0 c:/program files (x86)/microchip/xc32/v1.42/bin/bin/../../lib/gcc/pic32mx/4.8.3/../../../../pic32mx/lib\libpic32.a(vector51.o)
 .data          0x00000000        0x0 c:/program files (x86)/microchip/xc32/v1.42/bin/bin/../../lib/gcc/pic32mx/4.8.3/../../../../pic32mx/lib\libpic32.a(vector51.o)
 .bss           0x00000000        0x0 c:/program files (x86)/microchip/xc32/v1.42/bin/bin/../../lib/gcc/pic32mx/4.8.3/../../../../pic32mx/lib\libpic32.a(vector51.o)
 .reginfo       0x00000000       0x18 c:/program files (x86)/microchip/xc32/v1.42/bin/bin/../../lib/gcc/pic32mx/4.8.3/../../../../pic32mx/lib\libpic32.a(vector51.o)
 .text          0x00000000        0x0 c:/program files (x86)/microchip/xc32/v1.42/bin/bin/../../lib/gcc/pic32mx/4.8.3/../../../../pic32mx/lib\libpic32.a(defaultinterrupt.o)
 .data          0x00000000        0x0 c:/program files (x86)/microchip/xc32/v1.42/bin/bin/../../lib/gcc/pic32mx/4.8.3/../../../../pic32mx/lib\libpic32.a(defaultinterrupt.o)
 .bss           0x00000000        0x0 c:/program files (x86)/microchip/xc32/v1.42/bin/bin/../../lib/gcc/pic32mx/4.8.3/../../../../pic32mx/lib\libpic32.a(defaultinterrupt.o)
 .reginfo       0x00000000       0x18 c:/program files (x86)/microchip/xc32/v1.42/bin/bin/../../lib/gcc/pic32mx/4.8.3/../../../../pic32mx/lib\libpic32.a(defaultinterrupt.o)
 .text          0x00000000        0x0 c:/program files (x86)/microchip/xc32/v1.42/bin/bin/../../lib/gcc/pic32mx/4.8.3/../../../../pic32mx/lib\libm.a(fp32mul.o)
 .data          0x00000000        0x0 c:/program files (x86)/microchip/xc32/v1.42/bin/bin/../../lib/gcc/pic32mx/4.8.3/../../../../pic32mx/lib\libm.a(fp32mul.o)
 .bss           0x00000000        0x0 c:/program files (x86)/microchip/xc32/v1.42/bin/bin/../../lib/gcc/pic32mx/4.8.3/../../../../pic32mx/lib\libm.a(fp32mul.o)
 .reginfo       0x00000000       0x18 c:/program files (x86)/microchip/xc32/v1.42/bin/bin/../../lib/gcc/pic32mx/4.8.3/../../../../pic32mx/lib\libm.a(fp32mul.o)
 .text          0x00000000        0x0 c:/program files (x86)/microchip/xc32/v1.42/bin/bin/../../lib/gcc/pic32mx/4.8.3/../../../../pic32mx/lib\libm.a(fp32subadd.o)
 .data          0x00000000        0x0 c:/program files (x86)/microchip/xc32/v1.42/bin/bin/../../lib/gcc/pic32mx/4.8.3/../../../../pic32mx/lib\libm.a(fp32subadd.o)
 .bss           0x00000000        0x0 c:/program files (x86)/microchip/xc32/v1.42/bin/bin/../../lib/gcc/pic32mx/4.8.3/../../../../pic32mx/lib\libm.a(fp32subadd.o)
 .reginfo       0x00000000       0x18 c:/program files (x86)/microchip/xc32/v1.42/bin/bin/../../lib/gcc/pic32mx/4.8.3/../../../../pic32mx/lib\libm.a(fp32subadd.o)
 .text          0x00000000        0x0 c:/program files (x86)/microchip/xc32/v1.42/bin/bin/../../lib/gcc/pic32mx/4.8.3/../../../../pic32mx/lib\libm.a(fptoul.o)
 .data          0x00000000        0x0 c:/program files (x86)/microchip/xc32/v1.42/bin/bin/../../lib/gcc/pic32mx/4.8.3/../../../../pic32mx/lib\libm.a(fptoul.o)
 .bss           0x00000000        0x0 c:/program files (x86)/microchip/xc32/v1.42/bin/bin/../../lib/gcc/pic32mx/4.8.3/../../../../pic32mx/lib\libm.a(fptoul.o)
 .reginfo       0x00000000       0x18 c:/program files (x86)/microchip/xc32/v1.42/bin/bin/../../lib/gcc/pic32mx/4.8.3/../../../../pic32mx/lib\libm.a(fptoul.o)
 .text          0x00000000        0x0 c:/program files (x86)/microchip/xc32/v1.42/bin/bin/../../lib/gcc/pic32mx/4.8.3/../../../../pic32mx/lib\libm.a(sitofp.o)
 .data          0x00000000        0x0 c:/program files (x86)/microchip/xc32/v1.42/bin/bin/../../lib/gcc/pic32mx/4.8.3/../../../../pic32mx/lib\libm.a(sitofp.o)
 .bss           0x00000000        0x0 c:/program files (x86)/microchip/xc32/v1.42/bin/bin/../../lib/gcc/pic32mx/4.8.3/../../../../pic32mx/lib\libm.a(sitofp.o)
 .reginfo       0x00000000       0x18 c:/program files (x86)/microchip/xc32/v1.42/bin/bin/../../lib/gcc/pic32mx/4.8.3/../../../../pic32mx/lib\libm.a(sitofp.o)
 .text          0x00000000        0x0 c:/program files (x86)/microchip/xc32/v1.42/bin/bin/../../lib/gcc/pic32mx/4.8.3/../../../../pic32mx/lib\libm.a(w_logf.o)
 .data          0x00000000        0x0 c:/program files (x86)/microchip/xc32/v1.42/bin/bin/../../lib/gcc/pic32mx/4.8.3/../../../../pic32mx/lib\libm.a(w_logf.o)
 .bss           0x00000000        0x0 c:/program files (x86)/microchip/xc32/v1.42/bin/bin/../../lib/gcc/pic32mx/4.8.3/../../../../pic32mx/lib\libm.a(w_logf.o)
 .reginfo       0x00000000       0x18 c:/program files (x86)/microchip/xc32/v1.42/bin/bin/../../lib/gcc/pic32mx/4.8.3/../../../../pic32mx/lib\libm.a(w_logf.o)
 .text          0x00000000        0x0 c:/program files (x86)/microchip/xc32/v1.42/bin/bin/../../lib/gcc/pic32mx/4.8.3/../../../../pic32mx/lib\libm.a(w_powf.o)
 .data          0x00000000        0x0 c:/program files (x86)/microchip/xc32/v1.42/bin/bin/../../lib/gcc/pic32mx/4.8.3/../../../../pic32mx/lib\libm.a(w_powf.o)
 .bss           0x00000000        0x0 c:/program files (x86)/microchip/xc32/v1.42/bin/bin/../../lib/gcc/pic32mx/4.8.3/../../../../pic32mx/lib\libm.a(w_powf.o)
 .reginfo       0x00000000       0x18 c:/program files (x86)/microchip/xc32/v1.42/bin/bin/../../lib/gcc/pic32mx/4.8.3/../../../../pic32mx/lib\libm.a(w_powf.o)
 .text          0x00000000        0x0 c:/program files (x86)/microchip/xc32/v1.42/bin/bin/../../lib/gcc/pic32mx/4.8.3/../../../../pic32mx/lib\libm.a(dptofp.o)
 .data          0x00000000        0x0 c:/program files (x86)/microchip/xc32/v1.42/bin/bin/../../lib/gcc/pic32mx/4.8.3/../../../../pic32mx/lib\libm.a(dptofp.o)
 .bss           0x00000000        0x0 c:/program files (x86)/microchip/xc32/v1.42/bin/bin/../../lib/gcc/pic32mx/4.8.3/../../../../pic32mx/lib\libm.a(dptofp.o)
 .reginfo       0x00000000       0x18 c:/program files (x86)/microchip/xc32/v1.42/bin/bin/../../lib/gcc/pic32mx/4.8.3/../../../../pic32mx/lib\libm.a(dptofp.o)
 .text          0x00000000        0x0 c:/program files (x86)/microchip/xc32/v1.42/bin/bin/../../lib/gcc/pic32mx/4.8.3/../../../../pic32mx/lib\libm.a(fpcmp.o)
 .data          0x00000000        0x0 c:/program files (x86)/microchip/xc32/v1.42/bin/bin/../../lib/gcc/pic32mx/4.8.3/../../../../pic32mx/lib\libm.a(fpcmp.o)
 .bss           0x00000000        0x0 c:/program files (x86)/microchip/xc32/v1.42/bin/bin/../../lib/gcc/pic32mx/4.8.3/../../../../pic32mx/lib\libm.a(fpcmp.o)
 .reginfo       0x00000000       0x18 c:/program files (x86)/microchip/xc32/v1.42/bin/bin/../../lib/gcc/pic32mx/4.8.3/../../../../pic32mx/lib\libm.a(fpcmp.o)
 .text          0x00000000        0x0 c:/program files (x86)/microchip/xc32/v1.42/bin/bin/../../lib/gcc/pic32mx/4.8.3/../../../../pic32mx/lib\libm.a(fplog.o)
 .data          0x00000000        0x0 c:/program files (x86)/microchip/xc32/v1.42/bin/bin/../../lib/gcc/pic32mx/4.8.3/../../../../pic32mx/lib\libm.a(fplog.o)
 .bss           0x00000000        0x0 c:/program files (x86)/microchip/xc32/v1.42/bin/bin/../../lib/gcc/pic32mx/4.8.3/../../../../pic32mx/lib\libm.a(fplog.o)
 .reginfo       0x00000000       0x18 c:/program files (x86)/microchip/xc32/v1.42/bin/bin/../../lib/gcc/pic32mx/4.8.3/../../../../pic32mx/lib\libm.a(fplog.o)
 .text          0x00000000        0x0 c:/program files (x86)/microchip/xc32/v1.42/bin/bin/../../lib/gcc/pic32mx/4.8.3/../../../../pic32mx/lib\libm.a(fpmodf.o)
 .data          0x00000000        0x0 c:/program files (x86)/microchip/xc32/v1.42/bin/bin/../../lib/gcc/pic32mx/4.8.3/../../../../pic32mx/lib\libm.a(fpmodf.o)
 .bss           0x00000000        0x0 c:/program files (x86)/microchip/xc32/v1.42/bin/bin/../../lib/gcc/pic32mx/4.8.3/../../../../pic32mx/lib\libm.a(fpmodf.o)
 .reginfo       0x00000000       0x18 c:/program files (x86)/microchip/xc32/v1.42/bin/bin/../../lib/gcc/pic32mx/4.8.3/../../../../pic32mx/lib\libm.a(fpmodf.o)
 .text          0x00000000        0x0 c:/program files (x86)/microchip/xc32/v1.42/bin/bin/../../lib/gcc/pic32mx/4.8.3/../../../../pic32mx/lib\libm.a(fppow32.o)
 .data          0x00000000        0x0 c:/program files (x86)/microchip/xc32/v1.42/bin/bin/../../lib/gcc/pic32mx/4.8.3/../../../../pic32mx/lib\libm.a(fppow32.o)
 .bss           0x00000000        0x0 c:/program files (x86)/microchip/xc32/v1.42/bin/bin/../../lib/gcc/pic32mx/4.8.3/../../../../pic32mx/lib\libm.a(fppow32.o)
 .reginfo       0x00000000       0x18 c:/program files (x86)/microchip/xc32/v1.42/bin/bin/../../lib/gcc/pic32mx/4.8.3/../../../../pic32mx/lib\libm.a(fppow32.o)
 .text          0x00000000        0x0 c:/program files (x86)/microchip/xc32/v1.42/bin/bin/../../lib/gcc/pic32mx/4.8.3/../../../../pic32mx/lib\libm.a(fptodp.o)
 .data          0x00000000        0x0 c:/program files (x86)/microchip/xc32/v1.42/bin/bin/../../lib/gcc/pic32mx/4.8.3/../../../../pic32mx/lib\libm.a(fptodp.o)
 .bss           0x00000000        0x0 c:/program files (x86)/microchip/xc32/v1.42/bin/bin/../../lib/gcc/pic32mx/4.8.3/../../../../pic32mx/lib\libm.a(fptodp.o)
 .reginfo       0x00000000       0x18 c:/program files (x86)/microchip/xc32/v1.42/bin/bin/../../lib/gcc/pic32mx/4.8.3/../../../../pic32mx/lib\libm.a(fptodp.o)
 .text          0x00000000        0x0 c:/program files (x86)/microchip/xc32/v1.42/bin/bin/../../lib/gcc/pic32mx/4.8.3/../../../../pic32mx/lib\libm.a(s_lib_ver.o)
 .data          0x00000000        0x0 c:/program files (x86)/microchip/xc32/v1.42/bin/bin/../../lib/gcc/pic32mx/4.8.3/../../../../pic32mx/lib\libm.a(s_lib_ver.o)
 .bss           0x00000000        0x0 c:/program files (x86)/microchip/xc32/v1.42/bin/bin/../../lib/gcc/pic32mx/4.8.3/../../../../pic32mx/lib\libm.a(s_lib_ver.o)
 .reginfo       0x00000000       0x18 c:/program files (x86)/microchip/xc32/v1.42/bin/bin/../../lib/gcc/pic32mx/4.8.3/../../../../pic32mx/lib\libm.a(s_lib_ver.o)
 .text          0x00000000        0x0 c:/program files (x86)/microchip/xc32/v1.42/bin/bin/../../lib/gcc/pic32mx/4.8.3/../../../../pic32mx/lib\libm.a(fpexlog.o)
 .bss           0x00000000        0x0 c:/program files (x86)/microchip/xc32/v1.42/bin/bin/../../lib/gcc/pic32mx/4.8.3/../../../../pic32mx/lib\libm.a(fpexlog.o)
 .reginfo       0x00000000       0x18 c:/program files (x86)/microchip/xc32/v1.42/bin/bin/../../lib/gcc/pic32mx/4.8.3/../../../../pic32mx/lib\libm.a(fpexlog.o)
 .bss           0x00000000        0x0 c:/program files (x86)/microchip/xc32/v1.42/bin/bin/../../lib/gcc/pic32mx/4.8.3/../../../../pic32mx/lib\libm.a(fpexp32.o)
 .reginfo       0x00000000       0x18 c:/program files (x86)/microchip/xc32/v1.42/bin/bin/../../lib/gcc/pic32mx/4.8.3/../../../../pic32mx/lib\libm.a(fpexp32.o)
 .text.libm     0x00000000        0x0 c:/program files (x86)/microchip/xc32/v1.42/bin/bin/../../lib/gcc/pic32mx/4.8.3/../../../../pic32mx/lib\libm.a(fpexp32.o)
 .text          0x00000000        0x0 c:/program files (x86)/microchip/xc32/v1.42/bin/bin/../../lib/gcc/pic32mx/4.8.3/../../../../pic32mx/lib\libc.a(atoi.o)
 .data          0x00000000        0x0 c:/program files (x86)/microchip/xc32/v1.42/bin/bin/../../lib/gcc/pic32mx/4.8.3/../../../../pic32mx/lib\libc.a(atoi.o)
 .bss           0x00000000        0x0 c:/program files (x86)/microchip/xc32/v1.42/bin/bin/../../lib/gcc/pic32mx/4.8.3/../../../../pic32mx/lib\libc.a(atoi.o)
 .reginfo       0x00000000       0x18 c:/program files (x86)/microchip/xc32/v1.42/bin/bin/../../lib/gcc/pic32mx/4.8.3/../../../../pic32mx/lib\libc.a(atoi.o)
 .text          0x00000000        0x0 c:/program files (x86)/microchip/xc32/v1.42/bin/bin/../../lib/gcc/pic32mx/4.8.3/../../../../pic32mx/lib\libc.a(atol.o)
 .data          0x00000000        0x0 c:/program files (x86)/microchip/xc32/v1.42/bin/bin/../../lib/gcc/pic32mx/4.8.3/../../../../pic32mx/lib\libc.a(atol.o)
 .bss           0x00000000        0x0 c:/program files (x86)/microchip/xc32/v1.42/bin/bin/../../lib/gcc/pic32mx/4.8.3/../../../../pic32mx/lib\libc.a(atol.o)
 .reginfo       0x00000000       0x18 c:/program files (x86)/microchip/xc32/v1.42/bin/bin/../../lib/gcc/pic32mx/4.8.3/../../../../pic32mx/lib\libc.a(atol.o)
 .text          0x00000000        0x0 c:/program files (x86)/microchip/xc32/v1.42/bin/bin/../../lib/gcc/pic32mx/4.8.3/../../../../pic32mx/lib\libc.a(calloc.o)
 .data          0x00000000        0x0 c:/program files (x86)/microchip/xc32/v1.42/bin/bin/../../lib/gcc/pic32mx/4.8.3/../../../../pic32mx/lib\libc.a(calloc.o)
 .bss           0x00000000        0x0 c:/program files (x86)/microchip/xc32/v1.42/bin/bin/../../lib/gcc/pic32mx/4.8.3/../../../../pic32mx/lib\libc.a(calloc.o)
 .reginfo       0x00000000       0x18 c:/program files (x86)/microchip/xc32/v1.42/bin/bin/../../lib/gcc/pic32mx/4.8.3/../../../../pic32mx/lib\libc.a(calloc.o)
 .text          0x00000000        0x0 c:/program files (x86)/microchip/xc32/v1.42/bin/bin/../../lib/gcc/pic32mx/4.8.3/../../../../pic32mx/lib\libc.a(ctime.o)
 .data          0x00000000        0x0 c:/program files (x86)/microchip/xc32/v1.42/bin/bin/../../lib/gcc/pic32mx/4.8.3/../../../../pic32mx/lib\libc.a(ctime.o)
 .reginfo       0x00000000       0x18 c:/program files (x86)/microchip/xc32/v1.42/bin/bin/../../lib/gcc/pic32mx/4.8.3/../../../../pic32mx/lib\libc.a(ctime.o)
 .text.localtime
                0x00000000       0x3c c:/program files (x86)/microchip/xc32/v1.42/bin/bin/../../lib/gcc/pic32mx/4.8.3/../../../../pic32mx/lib\libc.a(ctime.o)
 .text.asctime  0x00000000      0x2e4 c:/program files (x86)/microchip/xc32/v1.42/bin/bin/../../lib/gcc/pic32mx/4.8.3/../../../../pic32mx/lib\libc.a(ctime.o)
 .text.ctime    0x00000000       0x44 c:/program files (x86)/microchip/xc32/v1.42/bin/bin/../../lib/gcc/pic32mx/4.8.3/../../../../pic32mx/lib\libc.a(ctime.o)
 .text          0x00000000        0x0 c:/program files (x86)/microchip/xc32/v1.42/bin/bin/../../lib/gcc/pic32mx/4.8.3/../../../../pic32mx/lib\libc.a(ctype.o)
 .data          0x00000000        0x0 c:/program files (x86)/microchip/xc32/v1.42/bin/bin/../../lib/gcc/pic32mx/4.8.3/../../../../pic32mx/lib\libc.a(ctype.o)
 .bss           0x00000000        0x0 c:/program files (x86)/microchip/xc32/v1.42/bin/bin/../../lib/gcc/pic32mx/4.8.3/../../../../pic32mx/lib\libc.a(ctype.o)
 .reginfo       0x00000000       0x18 c:/program files (x86)/microchip/xc32/v1.42/bin/bin/../../lib/gcc/pic32mx/4.8.3/../../../../pic32mx/lib\libc.a(ctype.o)
 .text          0x00000000        0x0 c:/program files (x86)/microchip/xc32/v1.42/bin/bin/../../lib/gcc/pic32mx/4.8.3/../../../../pic32mx/lib\libc.a(ctypef.o)
 .data          0x00000000        0x0 c:/program files (x86)/microchip/xc32/v1.42/bin/bin/../../lib/gcc/pic32mx/4.8.3/../../../../pic32mx/lib\libc.a(ctypef.o)
 .bss           0x00000000        0x0 c:/program files (x86)/microchip/xc32/v1.42/bin/bin/../../lib/gcc/pic32mx/4.8.3/../../../../pic32mx/lib\libc.a(ctypef.o)
 .reginfo       0x00000000       0x18 c:/program files (x86)/microchip/xc32/v1.42/bin/bin/../../lib/gcc/pic32mx/4.8.3/../../../../pic32mx/lib\libc.a(ctypef.o)
 .text.isalnum  0x00000000       0x18 c:/program files (x86)/microchip/xc32/v1.42/bin/bin/../../lib/gcc/pic32mx/4.8.3/../../../../pic32mx/lib\libc.a(ctypef.o)
 .text.isalpha  0x00000000       0x18 c:/program files (x86)/microchip/xc32/v1.42/bin/bin/../../lib/gcc/pic32mx/4.8.3/../../../../pic32mx/lib\libc.a(ctypef.o)
 .text.isascii  0x00000000        0x8 c:/program files (x86)/microchip/xc32/v1.42/bin/bin/../../lib/gcc/pic32mx/4.8.3/../../../../pic32mx/lib\libc.a(ctypef.o)
 .text.iscntrl  0x00000000       0x18 c:/program files (x86)/microchip/xc32/v1.42/bin/bin/../../lib/gcc/pic32mx/4.8.3/../../../../pic32mx/lib\libc.a(ctypef.o)
 .text.isdigit  0x00000000       0x18 c:/program files (x86)/microchip/xc32/v1.42/bin/bin/../../lib/gcc/pic32mx/4.8.3/../../../../pic32mx/lib\libc.a(ctypef.o)
 .text.isgraph  0x00000000       0x18 c:/program files (x86)/microchip/xc32/v1.42/bin/bin/../../lib/gcc/pic32mx/4.8.3/../../../../pic32mx/lib\libc.a(ctypef.o)
 .text.islower  0x00000000       0x18 c:/program files (x86)/microchip/xc32/v1.42/bin/bin/../../lib/gcc/pic32mx/4.8.3/../../../../pic32mx/lib\libc.a(ctypef.o)
 .text.isprint  0x00000000       0x18 c:/program files (x86)/microchip/xc32/v1.42/bin/bin/../../lib/gcc/pic32mx/4.8.3/../../../../pic32mx/lib\libc.a(ctypef.o)
 .text.ispunct  0x00000000       0x18 c:/program files (x86)/microchip/xc32/v1.42/bin/bin/../../lib/gcc/pic32mx/4.8.3/../../../../pic32mx/lib\libc.a(ctypef.o)
 .text.isspace  0x00000000       0x18 c:/program files (x86)/microchip/xc32/v1.42/bin/bin/../../lib/gcc/pic32mx/4.8.3/../../../../pic32mx/lib\libc.a(ctypef.o)
 .text.isupper  0x00000000       0x18 c:/program files (x86)/microchip/xc32/v1.42/bin/bin/../../lib/gcc/pic32mx/4.8.3/../../../../pic32mx/lib\libc.a(ctypef.o)
 .text.isxdigit
                0x00000000       0x18 c:/program files (x86)/microchip/xc32/v1.42/bin/bin/../../lib/gcc/pic32mx/4.8.3/../../../../pic32mx/lib\libc.a(ctypef.o)
 .text.toascii  0x00000000        0x8 c:/program files (x86)/microchip/xc32/v1.42/bin/bin/../../lib/gcc/pic32mx/4.8.3/../../../../pic32mx/lib\libc.a(ctypef.o)
 .text._tolower
                0x00000000        0x8 c:/program files (x86)/microchip/xc32/v1.42/bin/bin/../../lib/gcc/pic32mx/4.8.3/../../../../pic32mx/lib\libc.a(ctypef.o)
 .text._toupper
                0x00000000        0x8 c:/program files (x86)/microchip/xc32/v1.42/bin/bin/../../lib/gcc/pic32mx/4.8.3/../../../../pic32mx/lib\libc.a(ctypef.o)
 .text          0x00000000        0x0 c:/program files (x86)/microchip/xc32/v1.42/bin/bin/../../lib/gcc/pic32mx/4.8.3/../../../../pic32mx/lib\libc.a(errno.o)
 .data          0x00000000        0x0 c:/program files (x86)/microchip/xc32/v1.42/bin/bin/../../lib/gcc/pic32mx/4.8.3/../../../../pic32mx/lib\libc.a(errno.o)
 .bss           0x00000000        0x0 c:/program files (x86)/microchip/xc32/v1.42/bin/bin/../../lib/gcc/pic32mx/4.8.3/../../../../pic32mx/lib\libc.a(errno.o)
 .reginfo       0x00000000       0x18 c:/program files (x86)/microchip/xc32/v1.42/bin/bin/../../lib/gcc/pic32mx/4.8.3/../../../../pic32mx/lib\libc.a(errno.o)
 .text          0x00000000        0x0 c:/program files (x86)/microchip/xc32/v1.42/bin/bin/../../lib/gcc/pic32mx/4.8.3/../../../../pic32mx/lib\libc.a(malloc.o)
 .data          0x00000000        0x0 c:/program files (x86)/microchip/xc32/v1.42/bin/bin/../../lib/gcc/pic32mx/4.8.3/../../../../pic32mx/lib\libc.a(malloc.o)
 .reginfo       0x00000000       0x18 c:/program files (x86)/microchip/xc32/v1.42/bin/bin/../../lib/gcc/pic32mx/4.8.3/../../../../pic32mx/lib\libc.a(malloc.o)
 .text.realloc  0x00000000      0x14c c:/program files (x86)/microchip/xc32/v1.42/bin/bin/../../lib/gcc/pic32mx/4.8.3/../../../../pic32mx/lib\libc.a(malloc.o)
 .text          0x00000000        0x0 c:/program files (x86)/microchip/xc32/v1.42/bin/bin/../../lib/gcc/pic32mx/4.8.3/../../../../pic32mx/lib\libc.a(memmove.o)
 .data          0x00000000        0x0 c:/program files (x86)/microchip/xc32/v1.42/bin/bin/../../lib/gcc/pic32mx/4.8.3/../../../../pic32mx/lib\libc.a(memmove.o)
 .bss           0x00000000        0x0 c:/program files (x86)/microchip/xc32/v1.42/bin/bin/../../lib/gcc/pic32mx/4.8.3/../../../../pic32mx/lib\libc.a(memmove.o)
 .reginfo       0x00000000       0x18 c:/program files (x86)/microchip/xc32/v1.42/bin/bin/../../lib/gcc/pic32mx/4.8.3/../../../../pic32mx/lib\libc.a(memmove.o)
 .text          0x00000000        0x0 c:/program files (x86)/microchip/xc32/v1.42/bin/bin/../../lib/gcc/pic32mx/4.8.3/../../../../pic32mx/lib\libc.a(rand.o)
 .data          0x00000000        0x0 c:/program files (x86)/microchip/xc32/v1.42/bin/bin/../../lib/gcc/pic32mx/4.8.3/../../../../pic32mx/lib\libc.a(rand.o)
 .reginfo       0x00000000       0x18 c:/program files (x86)/microchip/xc32/v1.42/bin/bin/../../lib/gcc/pic32mx/4.8.3/../../../../pic32mx/lib\libc.a(rand.o)
 .text          0x00000000        0x0 c:/program files (x86)/microchip/xc32/v1.42/bin/bin/../../lib/gcc/pic32mx/4.8.3/../../../../pic32mx/lib\libc.a(strcat.o)
 .data          0x00000000        0x0 c:/program files (x86)/microchip/xc32/v1.42/bin/bin/../../lib/gcc/pic32mx/4.8.3/../../../../pic32mx/lib\libc.a(strcat.o)
 .bss           0x00000000        0x0 c:/program files (x86)/microchip/xc32/v1.42/bin/bin/../../lib/gcc/pic32mx/4.8.3/../../../../pic32mx/lib\libc.a(strcat.o)
 .reginfo       0x00000000       0x18 c:/program files (x86)/microchip/xc32/v1.42/bin/bin/../../lib/gcc/pic32mx/4.8.3/../../../../pic32mx/lib\libc.a(strcat.o)
 .text.strcat   0x00000000       0x44 c:/program files (x86)/microchip/xc32/v1.42/bin/bin/../../lib/gcc/pic32mx/4.8.3/../../../../pic32mx/lib\libc.a(strcat.o)
 .text          0x00000000        0x0 c:/program files (x86)/microchip/xc32/v1.42/bin/bin/../../lib/gcc/pic32mx/4.8.3/../../../../pic32mx/lib\libc.a(strchr.o)
 .data          0x00000000        0x0 c:/program files (x86)/microchip/xc32/v1.42/bin/bin/../../lib/gcc/pic32mx/4.8.3/../../../../pic32mx/lib\libc.a(strchr.o)
 .bss           0x00000000        0x0 c:/program files (x86)/microchip/xc32/v1.42/bin/bin/../../lib/gcc/pic32mx/4.8.3/../../../../pic32mx/lib\libc.a(strchr.o)
 .reginfo       0x00000000       0x18 c:/program files (x86)/microchip/xc32/v1.42/bin/bin/../../lib/gcc/pic32mx/4.8.3/../../../../pic32mx/lib\libc.a(strchr.o)
 .text          0x00000000        0x0 c:/program files (x86)/microchip/xc32/v1.42/bin/bin/../../lib/gcc/pic32mx/4.8.3/../../../../pic32mx/lib\libc.a(strncat.o)
 .data          0x00000000        0x0 c:/program files (x86)/microchip/xc32/v1.42/bin/bin/../../lib/gcc/pic32mx/4.8.3/../../../../pic32mx/lib\libc.a(strncat.o)
 .bss           0x00000000        0x0 c:/program files (x86)/microchip/xc32/v1.42/bin/bin/../../lib/gcc/pic32mx/4.8.3/../../../../pic32mx/lib\libc.a(strncat.o)
 .reginfo       0x00000000       0x18 c:/program files (x86)/microchip/xc32/v1.42/bin/bin/../../lib/gcc/pic32mx/4.8.3/../../../../pic32mx/lib\libc.a(strncat.o)
 .text          0x00000000        0x0 c:/program files (x86)/microchip/xc32/v1.42/bin/bin/../../lib/gcc/pic32mx/4.8.3/../../../../pic32mx/lib\libc.a(strncmp.o)
 .data          0x00000000        0x0 c:/program files (x86)/microchip/xc32/v1.42/bin/bin/../../lib/gcc/pic32mx/4.8.3/../../../../pic32mx/lib\libc.a(strncmp.o)
 .bss           0x00000000        0x0 c:/program files (x86)/microchip/xc32/v1.42/bin/bin/../../lib/gcc/pic32mx/4.8.3/../../../../pic32mx/lib\libc.a(strncmp.o)
 .reginfo       0x00000000       0x18 c:/program files (x86)/microchip/xc32/v1.42/bin/bin/../../lib/gcc/pic32mx/4.8.3/../../../../pic32mx/lib\libc.a(strncmp.o)
 .text          0x00000000        0x0 c:/program files (x86)/microchip/xc32/v1.42/bin/bin/../../lib/gcc/pic32mx/4.8.3/../../../../pic32mx/lib\libc.a(strncpy.o)
 .data          0x00000000        0x0 c:/program files (x86)/microchip/xc32/v1.42/bin/bin/../../lib/gcc/pic32mx/4.8.3/../../../../pic32mx/lib\libc.a(strncpy.o)
 .bss           0x00000000        0x0 c:/program files (x86)/microchip/xc32/v1.42/bin/bin/../../lib/gcc/pic32mx/4.8.3/../../../../pic32mx/lib\libc.a(strncpy.o)
 .reginfo       0x00000000       0x18 c:/program files (x86)/microchip/xc32/v1.42/bin/bin/../../lib/gcc/pic32mx/4.8.3/../../../../pic32mx/lib\libc.a(strncpy.o)
 .text          0x00000000        0x0 c:/program files (x86)/microchip/xc32/v1.42/bin/bin/../../lib/gcc/pic32mx/4.8.3/../../../../pic32mx/lib\libc.a(strstr.o)
 .data          0x00000000        0x0 c:/program files (x86)/microchip/xc32/v1.42/bin/bin/../../lib/gcc/pic32mx/4.8.3/../../../../pic32mx/lib\libc.a(strstr.o)
 .bss           0x00000000        0x0 c:/program files (x86)/microchip/xc32/v1.42/bin/bin/../../lib/gcc/pic32mx/4.8.3/../../../../pic32mx/lib\libc.a(strstr.o)
 .reginfo       0x00000000       0x18 c:/program files (x86)/microchip/xc32/v1.42/bin/bin/../../lib/gcc/pic32mx/4.8.3/../../../../pic32mx/lib\libc.a(strstr.o)
 .text          0x00000000        0x0 c:/program files (x86)/microchip/xc32/v1.42/bin/bin/../../lib/gcc/pic32mx/4.8.3/../../../../pic32mx/lib\libc.a(strtol.o)
 .data          0x00000000        0x0 c:/program files (x86)/microchip/xc32/v1.42/bin/bin/../../lib/gcc/pic32mx/4.8.3/../../../../pic32mx/lib\libc.a(strtol.o)
 .bss           0x00000000        0x0 c:/program files (x86)/microchip/xc32/v1.42/bin/bin/../../lib/gcc/pic32mx/4.8.3/../../../../pic32mx/lib\libc.a(strtol.o)
 .reginfo       0x00000000       0x18 c:/program files (x86)/microchip/xc32/v1.42/bin/bin/../../lib/gcc/pic32mx/4.8.3/../../../../pic32mx/lib\libc.a(strtol.o)
 .text          0x00000000        0x0 c:/program files (x86)/microchip/xc32/v1.42/bin/bin/../../lib/gcc/pic32mx/4.8.3/../../../../pic32mx/lib\libc.a(sprintf_cdnopuxX.eo)
 .data          0x00000000        0x0 c:/program files (x86)/microchip/xc32/v1.42/bin/bin/../../lib/gcc/pic32mx/4.8.3/../../../../pic32mx/lib\libc.a(sprintf_cdnopuxX.eo)
 .bss           0x00000000        0x0 c:/program files (x86)/microchip/xc32/v1.42/bin/bin/../../lib/gcc/pic32mx/4.8.3/../../../../pic32mx/lib\libc.a(sprintf_cdnopuxX.eo)
 .reginfo       0x00000000       0x18 c:/program files (x86)/microchip/xc32/v1.42/bin/bin/../../lib/gcc/pic32mx/4.8.3/../../../../pic32mx/lib\libc.a(sprintf_cdnopuxX.eo)
 .text          0x00000000        0x0 c:/program files (x86)/microchip/xc32/v1.42/bin/bin/../../lib/gcc/pic32mx/4.8.3/../../../../pic32mx/lib\libc.a(vsnprintf.o)
 .data          0x00000000        0x0 c:/program files (x86)/microchip/xc32/v1.42/bin/bin/../../lib/gcc/pic32mx/4.8.3/../../../../pic32mx/lib\libc.a(vsnprintf.o)
 .bss           0x00000000        0x0 c:/program files (x86)/microchip/xc32/v1.42/bin/bin/../../lib/gcc/pic32mx/4.8.3/../../../../pic32mx/lib\libc.a(vsnprintf.o)
 .reginfo       0x00000000       0x18 c:/program files (x86)/microchip/xc32/v1.42/bin/bin/../../lib/gcc/pic32mx/4.8.3/../../../../pic32mx/lib\libc.a(vsnprintf.o)
 .text          0x00000000        0x0 c:/program files (x86)/microchip/xc32/v1.42/bin/bin/../../lib/gcc/pic32mx/4.8.3/../../../../pic32mx/lib\libc.a(doprnt_cdnopuxX.eo)
 .data          0x00000000        0x0 c:/program files (x86)/microchip/xc32/v1.42/bin/bin/../../lib/gcc/pic32mx/4.8.3/../../../../pic32mx/lib\libc.a(doprnt_cdnopuxX.eo)
 .bss           0x00000000        0x0 c:/program files (x86)/microchip/xc32/v1.42/bin/bin/../../lib/gcc/pic32mx/4.8.3/../../../../pic32mx/lib\libc.a(doprnt_cdnopuxX.eo)
 .reginfo       0x00000000       0x18 c:/program files (x86)/microchip/xc32/v1.42/bin/bin/../../lib/gcc/pic32mx/4.8.3/../../../../pic32mx/lib\libc.a(doprnt_cdnopuxX.eo)
 .text          0x00000000        0x0 c:/program files (x86)/microchip/xc32/v1.42/bin/bin/../../lib/gcc/pic32mx/4.8.3/../../../../pic32mx/lib\libc.a(doprnt.o)
 .data          0x00000000        0x0 c:/program files (x86)/microchip/xc32/v1.42/bin/bin/../../lib/gcc/pic32mx/4.8.3/../../../../pic32mx/lib\libc.a(doprnt.o)
 .bss           0x00000000        0x0 c:/program files (x86)/microchip/xc32/v1.42/bin/bin/../../lib/gcc/pic32mx/4.8.3/../../../../pic32mx/lib\libc.a(doprnt.o)
 .reginfo       0x00000000       0x18 c:/program files (x86)/microchip/xc32/v1.42/bin/bin/../../lib/gcc/pic32mx/4.8.3/../../../../pic32mx/lib\libc.a(doprnt.o)
 .text          0x00000000        0x0 c:/program files (x86)/microchip/xc32/v1.42/bin/bin/../../lib/gcc/pic32mx/4.8.3/../../../../pic32mx/lib\libc.a(_fputc_simple.o)
 .data          0x00000000        0x0 c:/program files (x86)/microchip/xc32/v1.42/bin/bin/../../lib/gcc/pic32mx/4.8.3/../../../../pic32mx/lib\libc.a(_fputc_simple.o)
 .bss           0x00000000        0x0 c:/program files (x86)/microchip/xc32/v1.42/bin/bin/../../lib/gcc/pic32mx/4.8.3/../../../../pic32mx/lib\libc.a(_fputc_simple.o)
 .reginfo       0x00000000       0x18 c:/program files (x86)/microchip/xc32/v1.42/bin/bin/../../lib/gcc/pic32mx/4.8.3/../../../../pic32mx/lib\libc.a(_fputc_simple.o)
 .text          0x00000000        0x0 c:/program files (x86)/microchip/xc32/v1.42/bin/bin/../../lib/gcc/pic32mx/4.8.3/../../../../pic32mx/lib\libc.a(powersf.o)
 .data          0x00000000        0x0 c:/program files (x86)/microchip/xc32/v1.42/bin/bin/../../lib/gcc/pic32mx/4.8.3/../../../../pic32mx/lib\libc.a(powersf.o)
 .bss           0x00000000        0x0 c:/program files (x86)/microchip/xc32/v1.42/bin/bin/../../lib/gcc/pic32mx/4.8.3/../../../../pic32mx/lib\libc.a(powersf.o)
 .reginfo       0x00000000       0x18 c:/program files (x86)/microchip/xc32/v1.42/bin/bin/../../lib/gcc/pic32mx/4.8.3/../../../../pic32mx/lib\libc.a(powersf.o)
 .text          0x00000000        0x0 c:/program files (x86)/microchip/xc32/v1.42/bin/bin/../../lib/gcc/pic32mx/4.8.3/../../../../pic32mx/lib\libc.a(_iob.o)
 .data          0x00000000       0xa4 c:/program files (x86)/microchip/xc32/v1.42/bin/bin/../../lib/gcc/pic32mx/4.8.3/../../../../pic32mx/lib\libc.a(_iob.o)
 .reginfo       0x00000000       0x18 c:/program files (x86)/microchip/xc32/v1.42/bin/bin/../../lib/gcc/pic32mx/4.8.3/../../../../pic32mx/lib\libc.a(_iob.o)
 .text          0x00000000        0x0 c:/program files (x86)/microchip/xc32/v1.42/bin/bin/../../lib/gcc/pic32mx/4.8.3/../../../../pic32mx/lib\libc.a(_flsbuf_simple.o)
 .data          0x00000000        0x0 c:/program files (x86)/microchip/xc32/v1.42/bin/bin/../../lib/gcc/pic32mx/4.8.3/../../../../pic32mx/lib\libc.a(_flsbuf_simple.o)
 .bss           0x00000000        0x0 c:/program files (x86)/microchip/xc32/v1.42/bin/bin/../../lib/gcc/pic32mx/4.8.3/../../../../pic32mx/lib\libc.a(_flsbuf_simple.o)
 .reginfo       0x00000000       0x18 c:/program files (x86)/microchip/xc32/v1.42/bin/bin/../../lib/gcc/pic32mx/4.8.3/../../../../pic32mx/lib\libc.a(_flsbuf_simple.o)
 .text          0x00000000        0x0 c:/program files (x86)/microchip/xc32/v1.42/bin/bin/../../lib/gcc/pic32mx/4.8.3/../../../../pic32mx/lib\libpic32.a(sbrk.o)
 .data          0x00000000        0x0 c:/program files (x86)/microchip/xc32/v1.42/bin/bin/../../lib/gcc/pic32mx/4.8.3/../../../../pic32mx/lib\libpic32.a(sbrk.o)
 .reginfo       0x00000000       0x18 c:/program files (x86)/microchip/xc32/v1.42/bin/bin/../../lib/gcc/pic32mx/4.8.3/../../../../pic32mx/lib\libpic32.a(sbrk.o)
 .text.getpagesize
                0x00000000        0x8 c:/program files (x86)/microchip/xc32/v1.42/bin/bin/../../lib/gcc/pic32mx/4.8.3/../../../../pic32mx/lib\libpic32.a(sbrk.o)
 .text          0x00000000        0x0 c:/program files (x86)/microchip/xc32/v1.42/bin/bin/../../lib/gcc/pic32mx/4.8.3/../../../../pic32mx/lib\libpic32.a(write.o)
 .data          0x00000000        0x0 c:/program files (x86)/microchip/xc32/v1.42/bin/bin/../../lib/gcc/pic32mx/4.8.3/../../../../pic32mx/lib\libpic32.a(write.o)
 .bss           0x00000000        0x0 c:/program files (x86)/microchip/xc32/v1.42/bin/bin/../../lib/gcc/pic32mx/4.8.3/../../../../pic32mx/lib\libpic32.a(write.o)
 .reginfo       0x00000000       0x18 c:/program files (x86)/microchip/xc32/v1.42/bin/bin/../../lib/gcc/pic32mx/4.8.3/../../../../pic32mx/lib\libpic32.a(write.o)
 .text          0x00000000        0x0 c:/program files (x86)/microchip/xc32/v1.42/bin/bin/../../lib/gcc/pic32mx/4.8.3/../../../../pic32mx/lib\libpic32.a(isinf.o)
 .data          0x00000000        0x0 c:/program files (x86)/microchip/xc32/v1.42/bin/bin/../../lib/gcc/pic32mx/4.8.3/../../../../pic32mx/lib\libpic32.a(isinf.o)
 .bss           0x00000000        0x0 c:/program files (x86)/microchip/xc32/v1.42/bin/bin/../../lib/gcc/pic32mx/4.8.3/../../../../pic32mx/lib\libpic32.a(isinf.o)
 .reginfo       0x00000000       0x18 c:/program files (x86)/microchip/xc32/v1.42/bin/bin/../../lib/gcc/pic32mx/4.8.3/../../../../pic32mx/lib\libpic32.a(isinf.o)
 .text.isnanl   0x00000000       0x28 c:/program files (x86)/microchip/xc32/v1.42/bin/bin/../../lib/gcc/pic32mx/4.8.3/../../../../pic32mx/lib\libpic32.a(isinf.o)
 .text.isnan    0x00000000       0x34 c:/program files (x86)/microchip/xc32/v1.42/bin/bin/../../lib/gcc/pic32mx/4.8.3/../../../../pic32mx/lib\libpic32.a(isinf.o)
 .text.isnanf   0x00000000       0x34 c:/program files (x86)/microchip/xc32/v1.42/bin/bin/../../lib/gcc/pic32mx/4.8.3/../../../../pic32mx/lib\libpic32.a(isinf.o)
 .text.isinf    0x00000000       0x8c c:/program files (x86)/microchip/xc32/v1.42/bin/bin/../../lib/gcc/pic32mx/4.8.3/../../../../pic32mx/lib\libpic32.a(isinf.o)
 .text.isinff   0x00000000       0x8c c:/program files (x86)/microchip/xc32/v1.42/bin/bin/../../lib/gcc/pic32mx/4.8.3/../../../../pic32mx/lib\libpic32.a(isinf.o)
 .rodata        0x00000000        0x8 c:/program files (x86)/microchip/xc32/v1.42/bin/bin/../../lib/gcc/pic32mx/4.8.3/../../../../pic32mx/lib\libpic32.a(isinf.o)
 .text          0x00000000        0x0 c:/program files (x86)/microchip/xc32/v1.42/bin/bin/../../lib/gcc/pic32mx/4.8.3/../../../../pic32mx/lib\libpic32.a(_mon_putc.o)
 .data          0x00000000        0x0 c:/program files (x86)/microchip/xc32/v1.42/bin/bin/../../lib/gcc/pic32mx/4.8.3/../../../../pic32mx/lib\libpic32.a(_mon_putc.o)
 .bss           0x00000000        0x0 c:/program files (x86)/microchip/xc32/v1.42/bin/bin/../../lib/gcc/pic32mx/4.8.3/../../../../pic32mx/lib\libpic32.a(_mon_putc.o)
 .reginfo       0x00000000       0x18 c:/program files (x86)/microchip/xc32/v1.42/bin/bin/../../lib/gcc/pic32mx/4.8.3/../../../../pic32mx/lib\libpic32.a(_mon_putc.o)
 .text          0x00000000        0x0 c:/program files (x86)/microchip/xc32/v1.42/bin/bin/../../lib/gcc/pic32mx/4.8.3/../../../../pic32mx/lib\libpic32.a(xc32_uart.o)
 .data          0x00000000        0x0 c:/program files (x86)/microchip/xc32/v1.42/bin/bin/../../lib/gcc/pic32mx/4.8.3/../../../../pic32mx/lib\libpic32.a(xc32_uart.o)
 .bss           0x00000000        0x0 c:/program files (x86)/microchip/xc32/v1.42/bin/bin/../../lib/gcc/pic32mx/4.8.3/../../../../pic32mx/lib\libpic32.a(xc32_uart.o)
 .reginfo       0x00000000       0x18 c:/program files (x86)/microchip/xc32/v1.42/bin/bin/../../lib/gcc/pic32mx/4.8.3/../../../../pic32mx/lib\libpic32.a(xc32_uart.o)
 .text          0x00000000        0x0 c:/program files (x86)/microchip/xc32/v1.42/bin/bin/../../lib/gcc/pic32mx/4.8.3/../../../../pic32mx/lib\libm.a(dpcmp.o)
 .data          0x00000000        0x0 c:/program files (x86)/microchip/xc32/v1.42/bin/bin/../../lib/gcc/pic32mx/4.8.3/../../../../pic32mx/lib\libm.a(dpcmp.o)
 .bss           0x00000000        0x0 c:/program files (x86)/microchip/xc32/v1.42/bin/bin/../../lib/gcc/pic32mx/4.8.3/../../../../pic32mx/lib\libm.a(dpcmp.o)
 .reginfo       0x00000000       0x18 c:/program files (x86)/microchip/xc32/v1.42/bin/bin/../../lib/gcc/pic32mx/4.8.3/../../../../pic32mx/lib\libm.a(dpcmp.o)
 .text.dpcmp    0x00000000      0x12c c:/program files (x86)/microchip/xc32/v1.42/bin/bin/../../lib/gcc/pic32mx/4.8.3/../../../../pic32mx/lib\libm.a(dpcmp.o)
 .text          0x00000000        0x0 c:/program files (x86)/microchip/xc32/v1.42/bin/bin/../../lib/gcc/pic32mx/4.8.3/../../../../pic32mx/lib\libm.a(fp32div.o)
 .data          0x00000000        0x0 c:/program files (x86)/microchip/xc32/v1.42/bin/bin/../../lib/gcc/pic32mx/4.8.3/../../../../pic32mx/lib\libm.a(fp32div.o)
 .bss           0x00000000        0x0 c:/program files (x86)/microchip/xc32/v1.42/bin/bin/../../lib/gcc/pic32mx/4.8.3/../../../../pic32mx/lib\libm.a(fp32div.o)
 .reginfo       0x00000000       0x18 c:/program files (x86)/microchip/xc32/v1.42/bin/bin/../../lib/gcc/pic32mx/4.8.3/../../../../pic32mx/lib\libm.a(fp32div.o)
 .text          0x00000000        0x0 c:/program files (x86)/microchip/xc32/v1.42/bin/bin/../../lib/gcc/pic32mx/4.8.3/../../../../pic32mx/lib\libm.a(fpfrexp.o)
 .data          0x00000000        0x0 c:/program files (x86)/microchip/xc32/v1.42/bin/bin/../../lib/gcc/pic32mx/4.8.3/../../../../pic32mx/lib\libm.a(fpfrexp.o)
 .bss           0x00000000        0x0 c:/program files (x86)/microchip/xc32/v1.42/bin/bin/../../lib/gcc/pic32mx/4.8.3/../../../../pic32mx/lib\libm.a(fpfrexp.o)
 .reginfo       0x00000000       0x18 c:/program files (x86)/microchip/xc32/v1.42/bin/bin/../../lib/gcc/pic32mx/4.8.3/../../../../pic32mx/lib\libm.a(fpfrexp.o)
 .text          0x00000000        0x0 c:/program files (x86)/microchip/xc32/v1.42/bin/bin/../../lib/gcc/pic32mx/4.8.3/../../../../pic32mx/lib\libe.a(_floatdisf.o)
 .data          0x00000000        0x0 c:/program files (x86)/microchip/xc32/v1.42/bin/bin/../../lib/gcc/pic32mx/4.8.3/../../../../pic32mx/lib\libe.a(_floatdisf.o)
 .bss           0x00000000        0x0 c:/program files (x86)/microchip/xc32/v1.42/bin/bin/../../lib/gcc/pic32mx/4.8.3/../../../../pic32mx/lib\libe.a(_floatdisf.o)
 .reginfo       0x00000000       0x18 c:/program files (x86)/microchip/xc32/v1.42/bin/bin/../../lib/gcc/pic32mx/4.8.3/../../../../pic32mx/lib\libe.a(_floatdisf.o)
 .text          0x00000000        0x0 c:/program files (x86)/microchip/xc32/v1.42/bin/bin/../../lib/gcc/pic32mx/4.8.3/../../../../pic32mx/lib\libe.a(_unorddf2.o)
 .data          0x00000000        0x0 c:/program files (x86)/microchip/xc32/v1.42/bin/bin/../../lib/gcc/pic32mx/4.8.3/../../../../pic32mx/lib\libe.a(_unorddf2.o)
 .bss           0x00000000        0x0 c:/program files (x86)/microchip/xc32/v1.42/bin/bin/../../lib/gcc/pic32mx/4.8.3/../../../../pic32mx/lib\libe.a(_unorddf2.o)
 .reginfo       0x00000000       0x18 c:/program files (x86)/microchip/xc32/v1.42/bin/bin/../../lib/gcc/pic32mx/4.8.3/../../../../pic32mx/lib\libe.a(_unorddf2.o)
 .text.__unorddf2
                0x00000000       0x64 c:/program files (x86)/microchip/xc32/v1.42/bin/bin/../../lib/gcc/pic32mx/4.8.3/../../../../pic32mx/lib\libe.a(_unorddf2.o)
 .data          0x00000000        0x0 c:/program files (x86)/microchip/xc32/v1.42/bin/bin/../../lib/gcc/pic32mx/4.8.3\libgcc.a(_umoddi3.o)
 .bss           0x00000000        0x0 c:/program files (x86)/microchip/xc32/v1.42/bin/bin/../../lib/gcc/pic32mx/4.8.3\libgcc.a(_umoddi3.o)
 .reginfo       0x00000000       0x18 c:/program files (x86)/microchip/xc32/v1.42/bin/bin/../../lib/gcc/pic32mx/4.8.3\libgcc.a(_umoddi3.o)

Memory Configuration

Name             Origin             Length             Attributes
kseg0_program_mem 0x9d000000         0x00080000         xr
kseg0_boot_mem   0x9fc00490         0x00000970
exception_mem    0x9fc01000         0x00001000
kseg1_boot_mem   0xbfc00000         0x00000490
debug_exec_mem   0xbfc02000         0x00000ff0
config3          0xbfc02ff0         0x00000004
config2          0xbfc02ff4         0x00000004
config1          0xbfc02ff8         0x00000004
config0          0xbfc02ffc         0x00000004
kseg1_data_mem   0xa0000000         0x00020000         w !x
sfrs             0xbf800000         0x00100000
configsfrs       0xbfc02ff0         0x00000010
*default*        0x00000000         0xffffffff

Linker script and memory map

LOAD c:/program files (x86)/microchip/xc32/v1.42/bin/bin/../../lib/gcc/pic32mx/4.8.3/../../../../pic32mx/lib/./proc/32MX795F512L/crt0_mips32r2.o
LOAD c:/program files (x86)/microchip/xc32/v1.42/bin/bin/../../lib/gcc/pic32mx/4.8.3/../../../../pic32mx/lib\debug-exception-return.o
LOAD build/e16_encx24j600_spiflash/production/_ext/1495834797/drv_flash_static.o
LOAD build/e16_encx24j600_spiflash/production/_ext/1676865386/drv_spi_tasks.o
LOAD build/e16_encx24j600_spiflash/production/_ext/1676865386/drv_spi_api.o
LOAD build/e16_encx24j600_spiflash/production/_ext/1676865386/drv_spi_master_ebm_tasks.o
LOAD build/e16_encx24j600_spiflash/production/_ext/1676865386/drv_spi_master_rm_tasks.o
LOAD build/e16_encx24j600_spiflash/production/_ext/971131287/net_pres_enc_glue.o
LOAD build/e16_encx24j600_spiflash/production/_ext/971131287/net_pres_cert_store.o
LOAD build/e16_encx24j600_spiflash/production/_ext/360868340/sys_clk_static.o
LOAD build/e16_encx24j600_spiflash/production/_ext/394705988/sys_ports_static.o
LOAD build/e16_encx24j600_spiflash/production/_ext/689678155/system_init.o
LOAD build/e16_encx24j600_spiflash/production/_ext/689678155/system_interrupt.o
LOAD build/e16_encx24j600_spiflash/production/_ext/689678155/system_exceptions.o
LOAD build/e16_encx24j600_spiflash/production/_ext/689678155/system_tasks.o
LOAD build/e16_encx24j600_spiflash/production/_ext/1360937237/app.o
LOAD build/e16_encx24j600_spiflash/production/_ext/1360937237/main.o
LOAD build/e16_encx24j600_spiflash/production/_ext/1360937237/http_print.o
LOAD build/e16_encx24j600_spiflash/production/_ext/1360937237/custom_http_app.o
LOAD build/e16_encx24j600_spiflash/production/_ext/1360937237/mpfs_img2.o
LOAD build/e16_encx24j600_spiflash/production/_ext/728775826/bsp_sys_init.o
LOAD build/e16_encx24j600_spiflash/production/_ext/29024758/random.o
LOAD build/e16_encx24j600_spiflash/production/_ext/29024758/arc4.o
LOAD build/e16_encx24j600_spiflash/production/_ext/29024758/crypto.o
LOAD build/e16_encx24j600_spiflash/production/_ext/29024758/md5.o
LOAD build/e16_encx24j600_spiflash/production/_ext/29024758/sha.o
LOAD build/e16_encx24j600_spiflash/production/_ext/29024758/coding.o
LOAD build/e16_encx24j600_spiflash/production/_ext/29024758/error.o
LOAD build/e16_encx24j600_spiflash/production/_ext/29024758/integer.o
LOAD build/e16_encx24j600_spiflash/production/_ext/29024758/logging.o
LOAD build/e16_encx24j600_spiflash/production/_ext/29024758/memory.o
LOAD build/e16_encx24j600_spiflash/production/_ext/29024758/misc.o
LOAD build/e16_encx24j600_spiflash/production/_ext/29024758/port.o
LOAD build/e16_encx24j600_spiflash/production/_ext/29024758/ecc.o
LOAD build/e16_encx24j600_spiflash/production/_ext/29024758/pwdbased.o
LOAD build/e16_encx24j600_spiflash/production/_ext/29024758/tfm.o
LOAD build/e16_encx24j600_spiflash/production/_ext/29024758/asn.o
LOAD build/e16_encx24j600_spiflash/production/_ext/29024758/des3.o
LOAD build/e16_encx24j600_spiflash/production/_ext/29024758/rsa.o
LOAD build/e16_encx24j600_spiflash/production/_ext/29024758/aes.o
LOAD build/e16_encx24j600_spiflash/production/_ext/29024758/sha256.o
LOAD build/e16_encx24j600_spiflash/production/_ext/29024758/sha512.o
LOAD build/e16_encx24j600_spiflash/production/_ext/29024758/hmac.o
LOAD build/e16_encx24j600_spiflash/production/_ext/29024758/hash.o
LOAD build/e16_encx24j600_spiflash/production/_ext/29024758/compress.o
LOAD build/e16_encx24j600_spiflash/production/_ext/2115314394/drv_encx24j600_spi_bus.o
LOAD build/e16_encx24j600_spiflash/production/_ext/1455582699/drv_encx24j600_closed_state.o
LOAD build/e16_encx24j600_spiflash/production/_ext/1730942135/drv_encx24j600_initialization_state.o
LOAD build/e16_encx24j600_spiflash/production/_ext/1730942135/drv_encx24j600_configure_state.o
LOAD build/e16_encx24j600_spiflash/production/_ext/1730942135/drv_encx24j600_detect_state.o
LOAD build/e16_encx24j600_spiflash/production/_ext/1730942135/drv_encx24j600_reset_state.o
LOAD build/e16_encx24j600_spiflash/production/_ext/1210338337/drv_encx24j600_tx_packet.o
LOAD build/e16_encx24j600_spiflash/production/_ext/1210338337/drv_encx24j600_rx_packet.o
LOAD build/e16_encx24j600_spiflash/production/_ext/1207282394/drv_encx24j600_running_state.o
LOAD build/e16_encx24j600_spiflash/production/_ext/1207282394/drv_encx24j600_change_duplex_state.o
LOAD build/e16_encx24j600_spiflash/production/_ext/1207282394/drv_encx24j600_check_int_state.o
LOAD build/e16_encx24j600_spiflash/production/_ext/1207282394/drv_encx24j600_check_status_state.o
LOAD build/e16_encx24j600_spiflash/production/_ext/1207282394/drv_encx24j600_check_tx_status_state.o
LOAD build/e16_encx24j600_spiflash/production/_ext/1207282394/drv_encx24j600_reset_rx_state.o
LOAD build/e16_encx24j600_spiflash/production/_ext/772120936/drv_encx24j600_api.o
LOAD build/e16_encx24j600_spiflash/production/_ext/772120936/drv_encx24j600_main_state.o
LOAD build/e16_encx24j600_spiflash/production/_ext/772120936/drv_encx24j600_utils.o
LOAD build/e16_encx24j600_spiflash/production/_ext/1324760662/drv_spi.o
LOAD build/e16_encx24j600_spiflash/production/_ext/1385053818/drv_spi_sys_queue_fifo.o
LOAD build/e16_encx24j600_spiflash/production/_ext/1112873152/drv_sst25vf016b.o
LOAD build/e16_encx24j600_spiflash/production/_ext/1335609251/SPIFlash.o
LOAD build/e16_encx24j600_spiflash/production/_ext/941160041/drv_tmr.o
LOAD build/e16_encx24j600_spiflash/production/_ext/821589181/drv_usart.o
LOAD build/e16_encx24j600_spiflash/production/_ext/821589181/drv_usart_buffer_queue.o
LOAD build/e16_encx24j600_spiflash/production/_ext/821589181/drv_usart_read_write.o
LOAD build/e16_encx24j600_spiflash/production/_ext/1595536294/UART.o
LOAD build/e16_encx24j600_spiflash/production/_ext/871719959/net_pres.o
LOAD build/e16_encx24j600_spiflash/production/_ext/1891376032/sys_command.o
LOAD build/e16_encx24j600_spiflash/production/_ext/598853952/sys_buffer.o
LOAD build/e16_encx24j600_spiflash/production/_ext/598853952/sys_queue.o
LOAD build/e16_encx24j600_spiflash/production/_ext/1434663852/sys_console.o
LOAD build/e16_encx24j600_spiflash/production/_ext/1434663852/sys_console_uart.o
LOAD build/e16_encx24j600_spiflash/production/_ext/2137108136/sys_debug.o
LOAD build/e16_encx24j600_spiflash/production/_ext/482662494/sys_devcon.o
LOAD build/e16_encx24j600_spiflash/production/_ext/482662494/sys_devcon_pic32mx.o
LOAD build/e16_encx24j600_spiflash/production/_ext/1750042194/sys_fs.o
LOAD build/e16_encx24j600_spiflash/production/_ext/1750042194/sys_fs_media_manager.o
LOAD build/e16_encx24j600_spiflash/production/_ext/614935175/mpfs.o
LOAD build/e16_encx24j600_spiflash/production/_ext/1042686532/sys_int_pic32.o
LOAD build/e16_encx24j600_spiflash/production/_ext/470001640/sys_random.o
LOAD build/e16_encx24j600_spiflash/production/_ext/64182180/sys_reset.o
LOAD build/e16_encx24j600_spiflash/production/_ext/2110151058/sys_tmr.o
LOAD build/e16_encx24j600_spiflash/production/_ext/1886247299/sys_fs_wrapper.o
LOAD build/e16_encx24j600_spiflash/production/_ext/1886247299/helpers.o
LOAD build/e16_encx24j600_spiflash/production/_ext/1164207549/tcp.o
LOAD build/e16_encx24j600_spiflash/production/_ext/1164207549/udp.o
LOAD build/e16_encx24j600_spiflash/production/_ext/1164207549/arp.o
LOAD build/e16_encx24j600_spiflash/production/_ext/1164207549/dhcp.o
LOAD build/e16_encx24j600_spiflash/production/_ext/1164207549/dns.o
LOAD build/e16_encx24j600_spiflash/production/_ext/1164207549/http.o
LOAD build/e16_encx24j600_spiflash/production/_ext/1164207549/nbns.o
LOAD build/e16_encx24j600_spiflash/production/_ext/1164207549/smtp.o
LOAD build/e16_encx24j600_spiflash/production/_ext/1164207549/tcpip_announce.o
LOAD build/e16_encx24j600_spiflash/production/_ext/1164207549/tcpip_commands.o
LOAD build/e16_encx24j600_spiflash/production/_ext/1164207549/hash_fnv.o
LOAD build/e16_encx24j600_spiflash/production/_ext/1164207549/oahash.o
LOAD build/e16_encx24j600_spiflash/production/_ext/1164207549/tcpip_heap_alloc.o
LOAD build/e16_encx24j600_spiflash/production/_ext/1164207549/tcpip_helpers.o
LOAD build/e16_encx24j600_spiflash/production/_ext/1164207549/tcpip_helper_c32.o
LOAD build/e16_encx24j600_spiflash/production/_ext/1164207549/tcpip_manager.o
LOAD build/e16_encx24j600_spiflash/production/_ext/1164207549/tcpip_notify.o
LOAD build/e16_encx24j600_spiflash/production/_ext/1164207549/tcpip_packet.o
LOAD build/e16_encx24j600_spiflash/production/_ext/1164207549/ipv4.o
LOAD build/e16_encx24j600_spiflash/production/_ext/1164207549/sntp.o
LOAD build/e16_encx24j600_spiflash/production/_ext/1164207549/tcpip_heap_internal.o
LOAD build/e16_encx24j600_spiflash/production/_ext/1164207549/icmp.o
LOAD build/e16_encx24j600_spiflash/production/_ext/1164207549/dhcps.o
LOAD build/e16_encx24j600_spiflash/production/_ext/1164207549/ddns.o
LOAD build/e16_encx24j600_spiflash/production/_ext/1699919941/asm.o
LOAD build/e16_encx24j600_spiflash/production/_ext/1699919941/blake2b.o
LOAD build/e16_encx24j600_spiflash/production/_ext/1699919941/camellia.o
LOAD build/e16_encx24j600_spiflash/production/_ext/1699919941/chacha.o
LOAD build/e16_encx24j600_spiflash/production/_ext/1699919941/chacha20_poly1305.o
LOAD build/e16_encx24j600_spiflash/production/_ext/1699919941/curve25519.o
LOAD build/e16_encx24j600_spiflash/production/_ext/1699919941/dh.o
LOAD build/e16_encx24j600_spiflash/production/_ext/1699919941/dsa.o
LOAD build/e16_encx24j600_spiflash/production/_ext/1699919941/ecc_fp.o
LOAD build/e16_encx24j600_spiflash/production/_ext/1699919941/ed25519.o
LOAD build/e16_encx24j600_spiflash/production/_ext/1699919941/fe_low_mem.o
LOAD build/e16_encx24j600_spiflash/production/_ext/1699919941/fe_operations.o
LOAD build/e16_encx24j600_spiflash/production/_ext/1699919941/ge_low_mem.o
LOAD build/e16_encx24j600_spiflash/production/_ext/1699919941/ge_operations.o
LOAD build/e16_encx24j600_spiflash/production/_ext/1699919941/hc128.o
LOAD build/e16_encx24j600_spiflash/production/_ext/1699919941/md2.o
LOAD build/e16_encx24j600_spiflash/production/_ext/1699919941/md4.o
LOAD build/e16_encx24j600_spiflash/production/_ext/1699919941/pkcs7.o
LOAD build/e16_encx24j600_spiflash/production/_ext/1699919941/poly1305.o
LOAD build/e16_encx24j600_spiflash/production/_ext/1699919941/rabbit.o
LOAD build/e16_encx24j600_spiflash/production/_ext/1699919941/ripemd.o
LOAD build/e16_encx24j600_spiflash/production/_ext/615233400/crl.o
LOAD build/e16_encx24j600_spiflash/production/_ext/615233400/internal.o
LOAD build/e16_encx24j600_spiflash/production/_ext/615233400/io.o
LOAD build/e16_encx24j600_spiflash/production/_ext/615233400/keys.o
LOAD build/e16_encx24j600_spiflash/production/_ext/615233400/ocsp.o
LOAD build/e16_encx24j600_spiflash/production/_ext/615233400/sniffer.o
LOAD build/e16_encx24j600_spiflash/production/_ext/615233400/ssl.o
LOAD build/e16_encx24j600_spiflash/production/_ext/615233400/tls.o
LOAD build/e16_encx24j600_spiflash/production/_ext/29024758/asm.o
LOAD ..\..\..\..\..\bin\framework\peripheral\PIC32MX795F512L_peripherals.a
LOAD ..\..\..\..\..\framework\tcpip\src\crypto\aes_pic32mx.a
                0x00000001                __MPLAB_BUILD = 0x1
                0x000102c8                _min_heap_size = 0x102c8
LOAD c:/program files (x86)/microchip/xc32/v1.42/bin/bin/../../lib/gcc/pic32mx/4.8.3/../../../../pic32mx/lib/./proc/32MX795F512L\default_isr_vectors.o
LOAD c:/program files (x86)/microchip/xc32/v1.42/bin/bin/../../lib/gcc/pic32mx/4.8.3/../../../../pic32mx/lib\pic32_software_reset.o
                0x00000400                PROVIDE (_min_stack_size, 0x400)
LOAD c:/program files (x86)/microchip/xc32/v1.42/bin/bin/../../lib/gcc/pic32mx/4.8.3/../../../../pic32mx/lib/./proc/32MX795F512L\processor.o
START GROUP
LOAD libmchp_peripheral.a
END GROUP
START GROUP
LOAD libmchp_peripheral_32MX795F512L.a
END GROUP
                0x00000001                PROVIDE (_vector_spacing, 0x1)
                0x9fc01000                PROVIDE (_ebase_address, 0x9fc01000)
                0xbfc00000                _RESET_ADDR = 0xbfc00000
                0xbfc00380                _BEV_EXCPT_ADDR = 0xbfc00380
                0xbfc00480                _DBG_EXCPT_ADDR = 0xbfc00480
                0xbfc02000                _DBG_CODE_ADDR = 0xbfc02000
                0x00000ff0                _DBG_CODE_SIZE = 0xff0
                0x9fc01180                _GEN_EXCPT_ADDR = (_ebase_address + 0x180)

.config_BFC02FF0
                0xbfc02ff0        0x4
 *(.config_BFC02FF0)
 .config_BFC02FF0
                0xbfc02ff0        0x4 build/e16_encx24j600_spiflash/production/_ext/689678155/system_init.o

.config_BFC02FF4
                0xbfc02ff4        0x4
 *(.config_BFC02FF4)
 .config_BFC02FF4
                0xbfc02ff4        0x4 build/e16_encx24j600_spiflash/production/_ext/689678155/system_init.o

.config_BFC02FF8
                0xbfc02ff8        0x4
 *(.config_BFC02FF8)
 .config_BFC02FF8
                0xbfc02ff8        0x4 build/e16_encx24j600_spiflash/production/_ext/689678155/system_init.o

.config_BFC02FFC
                0xbfc02ffc        0x4
 *(.config_BFC02FFC)
 .config_BFC02FFC
                0xbfc02ffc        0x4 build/e16_encx24j600_spiflash/production/_ext/689678155/system_init.o
                0xbfc02000                PROVIDE (_DBG_CODE_ADDR, 0xbfc02000)
                0x00000ff0                PROVIDE (_DBG_CODE_SIZE, 0xff0)

.reset          0xbfc00000      0x208
 *(.reset)
 .reset         0xbfc00000        0x8 c:/program files (x86)/microchip/xc32/v1.42/bin/bin/../../lib/gcc/pic32mx/4.8.3/../../../../pic32mx/lib/./proc/32MX795F512L/crt0_mips32r2.o
                0xbfc00000                _reset
 *(.reset.startup)
 .reset.startup
                0xbfc00008      0x200 c:/program files (x86)/microchip/xc32/v1.42/bin/bin/../../lib/gcc/pic32mx/4.8.3/../../../../pic32mx/lib/./proc/32MX795F512L/crt0_mips32r2.o

.bev_excpt      0xbfc00380       0x10
 *(.bev_handler)
 .bev_handler   0xbfc00380       0x10 c:/program files (x86)/microchip/xc32/v1.42/bin/bin/../../lib/gcc/pic32mx/4.8.3/../../../../pic32mx/lib/./proc/32MX795F512L/crt0_mips32r2.o

.dbg_excpt      0xbfc00480        0x0
                0xbfc00480                . = (. + DEFINED (_DEBUGGER)?0x8:0x0)

.dbg_code       0xbfc02000        0x0
                0xbfc02000                . = (. + DEFINED (_DEBUGGER)?_DBG_CODE_SIZE:0x0)

.app_excpt      0x9fc01180       0x10
 *(.gen_handler)
 .gen_handler   0x9fc01180       0x10 c:/program files (x86)/microchip/xc32/v1.42/bin/bin/../../lib/gcc/pic32mx/4.8.3/../../../../pic32mx/lib/./proc/32MX795F512L/crt0_mips32r2.o

.vector_0       0x9fc01200        0x8
 *(.vector_0)
 .vector_0      0x9fc01200        0x8 c:/program files (x86)/microchip/xc32/v1.42/bin/bin/../../lib/gcc/pic32mx/4.8.3/../../../../pic32mx/lib\libpic32.a(vector0.o)
                0x9fc01200                __vector_dispatch_0
                0x00000001                ASSERT (((_vector_spacing == 0x0) || (SIZEOF (.vector_0) <= (_vector_spacing << 0x5))), function at exception vector 0 too large)

.vector_1       0x9fc01220        0x8
 *(.vector_1)
 .vector_1      0x9fc01220        0x8 c:/program files (x86)/microchip/xc32/v1.42/bin/bin/../../lib/gcc/pic32mx/4.8.3/../../../../pic32mx/lib\libpic32.a(vector1.o)
                0x9fc01220                __vector_dispatch_1
                0x00000001                ASSERT (((_vector_spacing == 0x0) || (SIZEOF (.vector_1) <= (_vector_spacing << 0x5))), function at exception vector 1 too large)

.vector_2       0x9fc01240        0x8
 *(.vector_2)
 .vector_2      0x9fc01240        0x8 c:/program files (x86)/microchip/xc32/v1.42/bin/bin/../../lib/gcc/pic32mx/4.8.3/../../../../pic32mx/lib\libpic32.a(vector2.o)
                0x9fc01240                __vector_dispatch_2
                0x00000001                ASSERT (((_vector_spacing == 0x0) || (SIZEOF (.vector_2) <= (_vector_spacing << 0x5))), function at exception vector 2 too large)

.vector_3       0x9fc01260        0x8
 *(.vector_3)
 .vector_3      0x9fc01260        0x8 c:/program files (x86)/microchip/xc32/v1.42/bin/bin/../../lib/gcc/pic32mx/4.8.3/../../../../pic32mx/lib\libpic32.a(vector3.o)
                0x9fc01260                __vector_dispatch_3
                0x00000001                ASSERT (((_vector_spacing == 0x0) || (SIZEOF (.vector_3) <= (_vector_spacing << 0x5))), function at exception vector 3 too large)

.vector_4       0x9fc01280        0x8
 *(.vector_4)
 .vector_4      0x9fc01280        0x8 c:/program files (x86)/microchip/xc32/v1.42/bin/bin/../../lib/gcc/pic32mx/4.8.3/../../../../pic32mx/lib\libpic32.a(vector4.o)
                0x9fc01280                __vector_dispatch_4
                0x00000001                ASSERT (((_vector_spacing == 0x0) || (SIZEOF (.vector_4) <= (_vector_spacing << 0x5))), function at exception vector 4 too large)

.vector_5       0x9fc012a0        0x8
 *(.vector_5)
 .vector_5      0x9fc012a0        0x8 c:/program files (x86)/microchip/xc32/v1.42/bin/bin/../../lib/gcc/pic32mx/4.8.3/../../../../pic32mx/lib\libpic32.a(vector5.o)
                0x9fc012a0                __vector_dispatch_5
                0x00000001                ASSERT (((_vector_spacing == 0x0) || (SIZEOF (.vector_5) <= (_vector_spacing << 0x5))), function at exception vector 5 too large)

.vector_6       0x9fc012c0        0x8
 *(.vector_6)
 .vector_6      0x9fc012c0        0x8 c:/program files (x86)/microchip/xc32/v1.42/bin/bin/../../lib/gcc/pic32mx/4.8.3/../../../../pic32mx/lib\libpic32.a(vector6.o)
                0x9fc012c0                __vector_dispatch_6
                0x00000001                ASSERT (((_vector_spacing == 0x0) || (SIZEOF (.vector_6) <= (_vector_spacing << 0x5))), function at exception vector 6 too large)

.vector_7       0x9fc012e0        0x8
 *(.vector_7)
 .vector_7      0x9fc012e0        0x8 c:/program files (x86)/microchip/xc32/v1.42/bin/bin/../../lib/gcc/pic32mx/4.8.3/../../../../pic32mx/lib\libpic32.a(vector7.o)
                0x9fc012e0                __vector_dispatch_7
                0x00000001                ASSERT (((_vector_spacing == 0x0) || (SIZEOF (.vector_7) <= (_vector_spacing << 0x5))), function at exception vector 7 too large)

.vector_8       0x9fc01300        0x8
 *(.vector_8)
 .vector_8      0x9fc01300        0x8 build/e16_encx24j600_spiflash/production/_ext/689678155/system_interrupt.o
                0x9fc01300                __vector_dispatch_8
                0x00000001                ASSERT (((_vector_spacing == 0x0) || (SIZEOF (.vector_8) <= (_vector_spacing << 0x5))), function at exception vector 8 too large)

.vector_9       0x9fc01320        0x8
 *(.vector_9)
 .vector_9      0x9fc01320        0x8 c:/program files (x86)/microchip/xc32/v1.42/bin/bin/../../lib/gcc/pic32mx/4.8.3/../../../../pic32mx/lib\libpic32.a(vector9.o)
                0x9fc01320                __vector_dispatch_9
                0x00000001                ASSERT (((_vector_spacing == 0x0) || (SIZEOF (.vector_9) <= (_vector_spacing << 0x5))), function at exception vector 9 too large)

.vector_10      0x9fc01340        0x8
 *(.vector_10)
 .vector_10     0x9fc01340        0x8 c:/program files (x86)/microchip/xc32/v1.42/bin/bin/../../lib/gcc/pic32mx/4.8.3/../../../../pic32mx/lib\libpic32.a(vector10.o)
                0x9fc01340                __vector_dispatch_10
                0x00000001                ASSERT (((_vector_spacing == 0x0) || (SIZEOF (.vector_10) <= (_vector_spacing << 0x5))), function at exception vector 10 too large)

.vector_11      0x9fc01360        0x8
 *(.vector_11)
 .vector_11     0x9fc01360        0x8 c:/program files (x86)/microchip/xc32/v1.42/bin/bin/../../lib/gcc/pic32mx/4.8.3/../../../../pic32mx/lib\libpic32.a(vector11.o)
                0x9fc01360                __vector_dispatch_11
                0x00000001                ASSERT (((_vector_spacing == 0x0) || (SIZEOF (.vector_11) <= (_vector_spacing << 0x5))), function at exception vector 11 too large)

.vector_12      0x9fc01380        0x8
 *(.vector_12)
 .vector_12     0x9fc01380        0x8 c:/program files (x86)/microchip/xc32/v1.42/bin/bin/../../lib/gcc/pic32mx/4.8.3/../../../../pic32mx/lib\libpic32.a(vector12.o)
                0x9fc01380                __vector_dispatch_12
                0x00000001                ASSERT (((_vector_spacing == 0x0) || (SIZEOF (.vector_12) <= (_vector_spacing << 0x5))), function at exception vector 12 too large)

.vector_13      0x9fc013a0        0x8
 *(.vector_13)
 .vector_13     0x9fc013a0        0x8 c:/program files (x86)/microchip/xc32/v1.42/bin/bin/../../lib/gcc/pic32mx/4.8.3/../../../../pic32mx/lib\libpic32.a(vector13.o)
                0x9fc013a0                __vector_dispatch_13
                0x00000001                ASSERT (((_vector_spacing == 0x0) || (SIZEOF (.vector_13) <= (_vector_spacing << 0x5))), function at exception vector 13 too large)

.vector_14      0x9fc013c0        0x8
 *(.vector_14)
 .vector_14     0x9fc013c0        0x8 c:/program files (x86)/microchip/xc32/v1.42/bin/bin/../../lib/gcc/pic32mx/4.8.3/../../../../pic32mx/lib\libpic32.a(vector14.o)
                0x9fc013c0                __vector_dispatch_14
                0x00000001                ASSERT (((_vector_spacing == 0x0) || (SIZEOF (.vector_14) <= (_vector_spacing << 0x5))), function at exception vector 14 too large)

.vector_15      0x9fc013e0        0x8
 *(.vector_15)
 .vector_15     0x9fc013e0        0x8 c:/program files (x86)/microchip/xc32/v1.42/bin/bin/../../lib/gcc/pic32mx/4.8.3/../../../../pic32mx/lib\libpic32.a(vector15.o)
                0x9fc013e0                __vector_dispatch_15
                0x00000001                ASSERT (((_vector_spacing == 0x0) || (SIZEOF (.vector_15) <= (_vector_spacing << 0x5))), function at exception vector 15 too large)

.vector_16      0x9fc01400        0x8
 *(.vector_16)
 .vector_16     0x9fc01400        0x8 c:/program files (x86)/microchip/xc32/v1.42/bin/bin/../../lib/gcc/pic32mx/4.8.3/../../../../pic32mx/lib\libpic32.a(vector16.o)
                0x9fc01400                __vector_dispatch_16
                0x00000001                ASSERT (((_vector_spacing == 0x0) || (SIZEOF (.vector_16) <= (_vector_spacing << 0x5))), function at exception vector 16 too large)

.vector_17      0x9fc01420        0x8
 *(.vector_17)
 .vector_17     0x9fc01420        0x8 c:/program files (x86)/microchip/xc32/v1.42/bin/bin/../../lib/gcc/pic32mx/4.8.3/../../../../pic32mx/lib\libpic32.a(vector17.o)
                0x9fc01420                __vector_dispatch_17
                0x00000001                ASSERT (((_vector_spacing == 0x0) || (SIZEOF (.vector_17) <= (_vector_spacing << 0x5))), function at exception vector 17 too large)

.vector_18      0x9fc01440        0x8
 *(.vector_18)
 .vector_18     0x9fc01440        0x8 c:/program files (x86)/microchip/xc32/v1.42/bin/bin/../../lib/gcc/pic32mx/4.8.3/../../../../pic32mx/lib\libpic32.a(vector18.o)
                0x9fc01440                __vector_dispatch_18
                0x00000001                ASSERT (((_vector_spacing == 0x0) || (SIZEOF (.vector_18) <= (_vector_spacing << 0x5))), function at exception vector 18 too large)

.vector_19      0x9fc01460        0x8
 *(.vector_19)
 .vector_19     0x9fc01460        0x8 c:/program files (x86)/microchip/xc32/v1.42/bin/bin/../../lib/gcc/pic32mx/4.8.3/../../../../pic32mx/lib\libpic32.a(vector19.o)
                0x9fc01460                __vector_dispatch_19
                0x00000001                ASSERT (((_vector_spacing == 0x0) || (SIZEOF (.vector_19) <= (_vector_spacing << 0x5))), function at exception vector 19 too large)

.vector_20      0x9fc01480        0x8
 *(.vector_20)
 .vector_20     0x9fc01480        0x8 c:/program files (x86)/microchip/xc32/v1.42/bin/bin/../../lib/gcc/pic32mx/4.8.3/../../../../pic32mx/lib\libpic32.a(vector20.o)
                0x9fc01480                __vector_dispatch_20
                0x00000001                ASSERT (((_vector_spacing == 0x0) || (SIZEOF (.vector_20) <= (_vector_spacing << 0x5))), function at exception vector 20 too large)

.vector_21      0x9fc014a0        0x8
 *(.vector_21)
 .vector_21     0x9fc014a0        0x8 c:/program files (x86)/microchip/xc32/v1.42/bin/bin/../../lib/gcc/pic32mx/4.8.3/../../../../pic32mx/lib\libpic32.a(vector21.o)
                0x9fc014a0                __vector_dispatch_21
                0x00000001                ASSERT (((_vector_spacing == 0x0) || (SIZEOF (.vector_21) <= (_vector_spacing << 0x5))), function at exception vector 21 too large)

.vector_22      0x9fc014c0        0x8
 *(.vector_22)
 .vector_22     0x9fc014c0        0x8 c:/program files (x86)/microchip/xc32/v1.42/bin/bin/../../lib/gcc/pic32mx/4.8.3/../../../../pic32mx/lib\libpic32.a(vector22.o)
                0x9fc014c0                __vector_dispatch_22
                0x00000001                ASSERT (((_vector_spacing == 0x0) || (SIZEOF (.vector_22) <= (_vector_spacing << 0x5))), function at exception vector 22 too large)

.vector_23      0x9fc014e0        0x8
 *(.vector_23)
 .vector_23     0x9fc014e0        0x8 build/e16_encx24j600_spiflash/production/_ext/689678155/system_interrupt.o
                0x9fc014e0                __vector_dispatch_23
                0x00000001                ASSERT (((_vector_spacing == 0x0) || (SIZEOF (.vector_23) <= (_vector_spacing << 0x5))), function at exception vector 23 too large)

.vector_24      0x9fc01500        0x8
 *(.vector_24)
 .vector_24     0x9fc01500        0x8 c:/program files (x86)/microchip/xc32/v1.42/bin/bin/../../lib/gcc/pic32mx/4.8.3/../../../../pic32mx/lib\libpic32.a(vector24.o)
                0x9fc01500                __vector_dispatch_24
                0x00000001                ASSERT (((_vector_spacing == 0x0) || (SIZEOF (.vector_24) <= (_vector_spacing << 0x5))), function at exception vector 24 too large)

.vector_25      0x9fc01520        0x8
 *(.vector_25)
 .vector_25     0x9fc01520        0x8 c:/program files (x86)/microchip/xc32/v1.42/bin/bin/../../lib/gcc/pic32mx/4.8.3/../../../../pic32mx/lib\libpic32.a(vector25.o)
                0x9fc01520                __vector_dispatch_25
                0x00000001                ASSERT (((_vector_spacing == 0x0) || (SIZEOF (.vector_25) <= (_vector_spacing << 0x5))), function at exception vector 25 too large)

.vector_26      0x9fc01540        0x8
 *(.vector_26)
 .vector_26     0x9fc01540        0x8 c:/program files (x86)/microchip/xc32/v1.42/bin/bin/../../lib/gcc/pic32mx/4.8.3/../../../../pic32mx/lib\libpic32.a(vector26.o)
                0x9fc01540                __vector_dispatch_26
                0x00000001                ASSERT (((_vector_spacing == 0x0) || (SIZEOF (.vector_26) <= (_vector_spacing << 0x5))), function at exception vector 26 too large)

.vector_27      0x9fc01560        0x8
 *(.vector_27)
 .vector_27     0x9fc01560        0x8 c:/program files (x86)/microchip/xc32/v1.42/bin/bin/../../lib/gcc/pic32mx/4.8.3/../../../../pic32mx/lib\libpic32.a(vector27.o)
                0x9fc01560                __vector_dispatch_27
                0x00000001                ASSERT (((_vector_spacing == 0x0) || (SIZEOF (.vector_27) <= (_vector_spacing << 0x5))), function at exception vector 27 too large)

.vector_28      0x9fc01580        0x8
 *(.vector_28)
 .vector_28     0x9fc01580        0x8 c:/program files (x86)/microchip/xc32/v1.42/bin/bin/../../lib/gcc/pic32mx/4.8.3/../../../../pic32mx/lib\libpic32.a(vector28.o)
                0x9fc01580                __vector_dispatch_28
                0x00000001                ASSERT (((_vector_spacing == 0x0) || (SIZEOF (.vector_28) <= (_vector_spacing << 0x5))), function at exception vector 28 too large)

.vector_29      0x9fc015a0        0x8
 *(.vector_29)
 .vector_29     0x9fc015a0        0x8 c:/program files (x86)/microchip/xc32/v1.42/bin/bin/../../lib/gcc/pic32mx/4.8.3/../../../../pic32mx/lib\libpic32.a(vector29.o)
                0x9fc015a0                __vector_dispatch_29
                0x00000001                ASSERT (((_vector_spacing == 0x0) || (SIZEOF (.vector_29) <= (_vector_spacing << 0x5))), function at exception vector 29 too large)

.vector_30      0x9fc015c0        0x8
 *(.vector_30)
 .vector_30     0x9fc015c0        0x8 c:/program files (x86)/microchip/xc32/v1.42/bin/bin/../../lib/gcc/pic32mx/4.8.3/../../../../pic32mx/lib\libpic32.a(vector30.o)
                0x9fc015c0                __vector_dispatch_30
                0x00000001                ASSERT (((_vector_spacing == 0x0) || (SIZEOF (.vector_30) <= (_vector_spacing << 0x5))), function at exception vector 30 too large)

.vector_31      0x9fc015e0        0x8
 *(.vector_31)
 .vector_31     0x9fc015e0        0x8 build/e16_encx24j600_spiflash/production/_ext/689678155/system_interrupt.o
                0x9fc015e0                __vector_dispatch_31
                0x00000001                ASSERT (((_vector_spacing == 0x0) || (SIZEOF (.vector_31) <= (_vector_spacing << 0x5))), function at exception vector 31 too large)

.vector_32      0x9fc01600        0x8
 *(.vector_32)
 .vector_32     0x9fc01600        0x8 build/e16_encx24j600_spiflash/production/_ext/689678155/system_interrupt.o
                0x9fc01600                __vector_dispatch_32
                0x00000001                ASSERT (((_vector_spacing == 0x0) || (SIZEOF (.vector_32) <= (_vector_spacing << 0x5))), function at exception vector 32 too large)

.vector_33      0x9fc01620        0x8
 *(.vector_33)
 .vector_33     0x9fc01620        0x8 c:/program files (x86)/microchip/xc32/v1.42/bin/bin/../../lib/gcc/pic32mx/4.8.3/../../../../pic32mx/lib\libpic32.a(vector33.o)
                0x9fc01620                __vector_dispatch_33
                0x00000001                ASSERT (((_vector_spacing == 0x0) || (SIZEOF (.vector_33) <= (_vector_spacing << 0x5))), function at exception vector 33 too large)

.vector_34      0x9fc01640        0x8
 *(.vector_34)
 .vector_34     0x9fc01640        0x8 c:/program files (x86)/microchip/xc32/v1.42/bin/bin/../../lib/gcc/pic32mx/4.8.3/../../../../pic32mx/lib\libpic32.a(vector34.o)
                0x9fc01640                __vector_dispatch_34
                0x00000001                ASSERT (((_vector_spacing == 0x0) || (SIZEOF (.vector_34) <= (_vector_spacing << 0x5))), function at exception vector 34 too large)

.vector_35      0x9fc01660        0x8
 *(.vector_35)
 .vector_35     0x9fc01660        0x8 c:/program files (x86)/microchip/xc32/v1.42/bin/bin/../../lib/gcc/pic32mx/4.8.3/../../../../pic32mx/lib\libpic32.a(vector35.o)
                0x9fc01660                __vector_dispatch_35
                0x00000001                ASSERT (((_vector_spacing == 0x0) || (SIZEOF (.vector_35) <= (_vector_spacing << 0x5))), function at exception vector 35 too large)

.vector_36      0x9fc01680        0x8
 *(.vector_36)
 .vector_36     0x9fc01680        0x8 c:/program files (x86)/microchip/xc32/v1.42/bin/bin/../../lib/gcc/pic32mx/4.8.3/../../../../pic32mx/lib\libpic32.a(vector36.o)
                0x9fc01680                __vector_dispatch_36
                0x00000001                ASSERT (((_vector_spacing == 0x0) || (SIZEOF (.vector_36) <= (_vector_spacing << 0x5))), function at exception vector 36 too large)

.vector_37      0x9fc016a0        0x8
 *(.vector_37)
 .vector_37     0x9fc016a0        0x8 c:/program files (x86)/microchip/xc32/v1.42/bin/bin/../../lib/gcc/pic32mx/4.8.3/../../../../pic32mx/lib\libpic32.a(vector37.o)
                0x9fc016a0                __vector_dispatch_37
                0x00000001                ASSERT (((_vector_spacing == 0x0) || (SIZEOF (.vector_37) <= (_vector_spacing << 0x5))), function at exception vector 37 too large)

.vector_38      0x9fc016c0        0x8
 *(.vector_38)
 .vector_38     0x9fc016c0        0x8 c:/program files (x86)/microchip/xc32/v1.42/bin/bin/../../lib/gcc/pic32mx/4.8.3/../../../../pic32mx/lib\libpic32.a(vector38.o)
                0x9fc016c0                __vector_dispatch_38
                0x00000001                ASSERT (((_vector_spacing == 0x0) || (SIZEOF (.vector_38) <= (_vector_spacing << 0x5))), function at exception vector 38 too large)

.vector_39      0x9fc016e0        0x8
 *(.vector_39)
 .vector_39     0x9fc016e0        0x8 c:/program files (x86)/microchip/xc32/v1.42/bin/bin/../../lib/gcc/pic32mx/4.8.3/../../../../pic32mx/lib\libpic32.a(vector39.o)
                0x9fc016e0                __vector_dispatch_39
                0x00000001                ASSERT (((_vector_spacing == 0x0) || (SIZEOF (.vector_39) <= (_vector_spacing << 0x5))), function at exception vector 39 too large)

.vector_40      0x9fc01700        0x8
 *(.vector_40)
 .vector_40     0x9fc01700        0x8 c:/program files (x86)/microchip/xc32/v1.42/bin/bin/../../lib/gcc/pic32mx/4.8.3/../../../../pic32mx/lib\libpic32.a(vector40.o)
                0x9fc01700                __vector_dispatch_40
                0x00000001                ASSERT (((_vector_spacing == 0x0) || (SIZEOF (.vector_40) <= (_vector_spacing << 0x5))), function at exception vector 40 too large)

.vector_41      0x9fc01720        0x8
 *(.vector_41)
 .vector_41     0x9fc01720        0x8 c:/program files (x86)/microchip/xc32/v1.42/bin/bin/../../lib/gcc/pic32mx/4.8.3/../../../../pic32mx/lib\libpic32.a(vector41.o)
                0x9fc01720                __vector_dispatch_41
                0x00000001                ASSERT (((_vector_spacing == 0x0) || (SIZEOF (.vector_41) <= (_vector_spacing << 0x5))), function at exception vector 41 too large)

.vector_42      0x9fc01740        0x8
 *(.vector_42)
 .vector_42     0x9fc01740        0x8 c:/program files (x86)/microchip/xc32/v1.42/bin/bin/../../lib/gcc/pic32mx/4.8.3/../../../../pic32mx/lib\libpic32.a(vector42.o)
                0x9fc01740                __vector_dispatch_42
                0x00000001                ASSERT (((_vector_spacing == 0x0) || (SIZEOF (.vector_42) <= (_vector_spacing << 0x5))), function at exception vector 42 too large)

.vector_43      0x9fc01760        0x8
 *(.vector_43)
 .vector_43     0x9fc01760        0x8 c:/program files (x86)/microchip/xc32/v1.42/bin/bin/../../lib/gcc/pic32mx/4.8.3/../../../../pic32mx/lib\libpic32.a(vector43.o)
                0x9fc01760                __vector_dispatch_43
                0x00000001                ASSERT (((_vector_spacing == 0x0) || (SIZEOF (.vector_43) <= (_vector_spacing << 0x5))), function at exception vector 43 too large)

.vector_44      0x9fc01780        0x8
 *(.vector_44)
 .vector_44     0x9fc01780        0x8 c:/program files (x86)/microchip/xc32/v1.42/bin/bin/../../lib/gcc/pic32mx/4.8.3/../../../../pic32mx/lib\libpic32.a(vector44.o)
                0x9fc01780                __vector_dispatch_44
                0x00000001                ASSERT (((_vector_spacing == 0x0) || (SIZEOF (.vector_44) <= (_vector_spacing << 0x5))), function at exception vector 44 too large)

.vector_45      0x9fc017a0        0x8
 *(.vector_45)
 .vector_45     0x9fc017a0        0x8 c:/program files (x86)/microchip/xc32/v1.42/bin/bin/../../lib/gcc/pic32mx/4.8.3/../../../../pic32mx/lib\libpic32.a(vector45.o)
                0x9fc017a0                __vector_dispatch_45
                0x00000001                ASSERT (((_vector_spacing == 0x0) || (SIZEOF (.vector_45) <= (_vector_spacing << 0x5))), function at exception vector 45 too large)

.vector_46      0x9fc017c0        0x8
 *(.vector_46)
 .vector_46     0x9fc017c0        0x8 c:/program files (x86)/microchip/xc32/v1.42/bin/bin/../../lib/gcc/pic32mx/4.8.3/../../../../pic32mx/lib\libpic32.a(vector46.o)
                0x9fc017c0                __vector_dispatch_46
                0x00000001                ASSERT (((_vector_spacing == 0x0) || (SIZEOF (.vector_46) <= (_vector_spacing << 0x5))), function at exception vector 46 too large)

.vector_47      0x9fc017e0        0x8
 *(.vector_47)
 .vector_47     0x9fc017e0        0x8 c:/program files (x86)/microchip/xc32/v1.42/bin/bin/../../lib/gcc/pic32mx/4.8.3/../../../../pic32mx/lib\libpic32.a(vector47.o)
                0x9fc017e0                __vector_dispatch_47
                0x00000001                ASSERT (((_vector_spacing == 0x0) || (SIZEOF (.vector_47) <= (_vector_spacing << 0x5))), function at exception vector 47 too large)

.vector_48      0x9fc01800        0x8
 *(.vector_48)
 .vector_48     0x9fc01800        0x8 c:/program files (x86)/microchip/xc32/v1.42/bin/bin/../../lib/gcc/pic32mx/4.8.3/../../../../pic32mx/lib\libpic32.a(vector48.o)
                0x9fc01800                __vector_dispatch_48
                0x00000001                ASSERT (((_vector_spacing == 0x0) || (SIZEOF (.vector_48) <= (_vector_spacing << 0x5))), function at exception vector 48 too large)

.vector_49      0x9fc01820        0x8
 *(.vector_49)
 .vector_49     0x9fc01820        0x8 c:/program files (x86)/microchip/xc32/v1.42/bin/bin/../../lib/gcc/pic32mx/4.8.3/../../../../pic32mx/lib\libpic32.a(vector49.o)
                0x9fc01820                __vector_dispatch_49
                0x00000001                ASSERT (((_vector_spacing == 0x0) || (SIZEOF (.vector_49) <= (_vector_spacing << 0x5))), function at exception vector 49 too large)

.vector_50      0x9fc01840        0x8
 *(.vector_50)
 .vector_50     0x9fc01840        0x8 c:/program files (x86)/microchip/xc32/v1.42/bin/bin/../../lib/gcc/pic32mx/4.8.3/../../../../pic32mx/lib\libpic32.a(vector50.o)
                0x9fc01840                __vector_dispatch_50
                0x00000001                ASSERT (((_vector_spacing == 0x0) || (SIZEOF (.vector_50) <= (_vector_spacing << 0x5))), function at exception vector 50 too large)

.vector_51      0x9fc01860        0x8
 *(.vector_51)
 .vector_51     0x9fc01860        0x8 c:/program files (x86)/microchip/xc32/v1.42/bin/bin/../../lib/gcc/pic32mx/4.8.3/../../../../pic32mx/lib\libpic32.a(vector51.o)
                0x9fc01860                __vector_dispatch_51
                0x00000001                ASSERT (((_vector_spacing == 0x0) || (SIZEOF (.vector_51) <= (_vector_spacing << 0x5))), function at exception vector 51 too large)

.vector_52      0x9fc01880        0x0
 *(.vector_52)
                0x00000001                ASSERT (((_vector_spacing == 0x0) || (SIZEOF (.vector_52) <= (_vector_spacing << 0x5))), function at exception vector 52 too large)

.vector_53      0x9fc018a0        0x0
 *(.vector_53)
                0x00000001                ASSERT (((_vector_spacing == 0x0) || (SIZEOF (.vector_53) <= (_vector_spacing << 0x5))), function at exception vector 53 too large)

.vector_54      0x9fc018c0        0x0
 *(.vector_54)
                0x00000001                ASSERT (((_vector_spacing == 0x0) || (SIZEOF (.vector_54) <= (_vector_spacing << 0x5))), function at exception vector 54 too large)

.vector_55      0x9fc018e0        0x0
 *(.vector_55)
                0x00000001                ASSERT (((_vector_spacing == 0x0) || (SIZEOF (.vector_55) <= (_vector_spacing << 0x5))), function at exception vector 55 too large)

.vector_56      0x9fc01900        0x0
 *(.vector_56)
                0x00000001                ASSERT (((_vector_spacing == 0x0) || (SIZEOF (.vector_56) <= (_vector_spacing << 0x5))), function at exception vector 56 too large)

.vector_57      0x9fc01920        0x0
 *(.vector_57)
                0x00000001                ASSERT (((_vector_spacing == 0x0) || (SIZEOF (.vector_57) <= (_vector_spacing << 0x5))), function at exception vector 57 too large)

.vector_58      0x9fc01940        0x0
 *(.vector_58)
                0x00000001                ASSERT (((_vector_spacing == 0x0) || (SIZEOF (.vector_58) <= (_vector_spacing << 0x5))), function at exception vector 58 too large)

.vector_59      0x9fc01960        0x0
 *(.vector_59)
                0x00000001                ASSERT (((_vector_spacing == 0x0) || (SIZEOF (.vector_59) <= (_vector_spacing << 0x5))), function at exception vector 59 too large)

.vector_60      0x9fc01980        0x0
 *(.vector_60)
                0x00000001                ASSERT (((_vector_spacing == 0x0) || (SIZEOF (.vector_60) <= (_vector_spacing << 0x5))), function at exception vector 60 too large)

.vector_61      0x9fc019a0        0x0
 *(.vector_61)
                0x00000001                ASSERT (((_vector_spacing == 0x0) || (SIZEOF (.vector_61) <= (_vector_spacing << 0x5))), function at exception vector 61 too large)

.vector_62      0x9fc019c0        0x0
 *(.vector_62)
                0x00000001                ASSERT (((_vector_spacing == 0x0) || (SIZEOF (.vector_62) <= (_vector_spacing << 0x5))), function at exception vector 62 too large)

.vector_63      0x9fc019e0        0x0
 *(.vector_63)
                0x00000001                ASSERT (((_vector_spacing == 0x0) || (SIZEOF (.vector_63) <= (_vector_spacing << 0x5))), function at exception vector 63 too large)

.startup
 *(.startup)

.text           0x9d000000        0x0
 *(.stub .gnu.linkonce.t.*)
 *(.text.*personality*)
 *(.mips16.fn.*)
 *(.mips16.call.*)
 *(.gnu.warning)
                0x9d000000                . = ALIGN (0x4)

.init           0x9d000000        0x0
 *crti.o(.init)
 *crtbegin.o(.init)
 *(EXCLUDE_FILE(*crtn.o *crtend?.o *crtend.o) .init)
 *crtend.o(.init)
 *crtn.o(.init)
                0x9d000000                . = ALIGN (0x4)

.fini           0x9d000000        0x0
 *(.fini)
                0x9d000000                . = ALIGN (0x4)

.preinit_array  0x9d000000        0x0
                0x9d000000                PROVIDE (__preinit_array_start, .)
 *(.preinit_array)
                0x9d000000                PROVIDE (__preinit_array_end, .)
                0x9d000000                . = ALIGN (0x4)

.init_array     0x9d000000        0x0
                0x9d000000                PROVIDE (__init_array_start, .)
 *(SORT(.init_array.*))
 *(.init_array)
                0x9d000000                PROVIDE (__init_array_end, .)
                0x9d000000                . = ALIGN (0x4)

.fini_array     0x9d000000        0x0
                0x9d000000                PROVIDE (__fini_array_start, .)
 *(SORT(.fini_array.*))
 *(.fini_array)
                0x9d000000                PROVIDE (__fini_array_end, .)
                0x9d000000                . = ALIGN (0x4)

.ctors          0x9d000000        0x0
 *crtbegin.o(.ctors)
 *crtbegin?.o(.ctors)
 *(EXCLUDE_FILE(*crtend?.o *crtend.o) .ctors)
 *(SORT(.ctors.*))
 *(.ctors)
                0x9d000000                . = ALIGN (0x4)

.dtors          0x9d000000        0x0
 *crtbegin.o(.dtors)
 *crtbegin?.o(.dtors)
 *(EXCLUDE_FILE(*crtend?.o *crtend.o) .dtors)
 *(SORT(.dtors.*))
 *(.dtors)
                0x9d000000                . = ALIGN (0x4)

.rodata         0x9d000000        0x0
 *(.gnu.linkonce.r.*)
 *(.rodata1)
                0x9d000000                . = ALIGN (0x4)

.sdata2         0x9fc00490        0x0
 *(.sdata2 .sdata2.* .gnu.linkonce.s2.*)
                0x9fc00490                . = ALIGN (0x4)

.sbss2          0x9fc00490        0x0
 *(.sbss2 .sbss2.* .gnu.linkonce.sb2.*)
                0x9fc00490                . = ALIGN (0x4)

.eh_frame_hdr
 *(.eh_frame_hdr)
                0x9fc00490                . = ALIGN (0x4)

.eh_frame
 *(.eh_frame)
                0x9fc00490                . = ALIGN (0x4)

.gcc_except_table
 *(.gcc_except_table .gcc_except_table.*)
                0x9fc00490                . = ALIGN (0x4)

.dbg_data       0xa0000000        0x0
                0xa0000000                . = (. + DEFINED (_DEBUGGER)?0x200:0x0)

.jcr            0xa0000000        0x0
 *(.jcr)
                0xa0000000                . = ALIGN (0x4)

.eh_frame
 *(.eh_frame)
                0xa0000000                . = ALIGN (0x4)

.gcc_except_table
 *(.gcc_except_table .gcc_except_table.*)
                0xa0000000                . = ALIGN (0x4)

.persist        0xa0000000        0x0
                0xa0000000                _persist_begin = .
 *(.persist .persist.*)
 *(.pbss .pbss.*)
                0xa0000000                . = ALIGN (0x4)
                0xa0000000                _persist_end = .

.data           0xa0000000        0x0
 *(.gnu.linkonce.d.*)
 *(.data1)
                0xa0000000                . = ALIGN (0x4)
                0xa0000000                . = .
                0xa0007ff0                _gp = (ALIGN (0x10) + 0x7ff0)

.got            0xa0000000        0x0
 *(.got.plt)
 *(.got)
                0xa0000000                . = ALIGN (0x4)

.sdata          0xa0000000       0x90
                0xa0000000                _sdata_begin = .
 *(.sdata .sdata.* .gnu.linkonce.s.*)
 .sdata         0xa0000000        0xc build/e16_encx24j600_spiflash/production/_ext/689678155/system_init.o
                0xa0000000                consUsartInit0
                0xa0000008                sysConsoleObjects
 .sdata         0xa000000c        0x8 build/e16_encx24j600_spiflash/production/_ext/1360937237/app.o
 .sdata         0xa0000014       0x50 build/e16_encx24j600_spiflash/production/_ext/29024758/asn.o
                0xa0000014                END_PUB_KEY
                0xa0000018                BEGIN_PUB_KEY
                0xa000001c                END_DSA_PRIV
                0xa0000020                BEGIN_DSA_PRIV
                0xa0000024                END_EC_PRIV
                0xa0000028                BEGIN_EC_PRIV
                0xa000002c                END_ENC_PRIV_KEY
                0xa0000030                BEGIN_ENC_PRIV_KEY
                0xa0000034                END_PRIV_KEY
                0xa0000038                BEGIN_PRIV_KEY
                0xa000003c                END_RSA_PRIV
                0xa0000040                BEGIN_RSA_PRIV
                0xa0000044                END_X509_CRL
                0xa0000048                BEGIN_X509_CRL
                0xa000004c                END_DH_PARAM
                0xa0000050                BEGIN_DH_PARAM
                0xa0000054                END_CERT_REQ
                0xa0000058                BEGIN_CERT_REQ
                0xa000005c                END_CERT
                0xa0000060                BEGIN_CERT
 .sdata         0xa0000064        0xb build/e16_encx24j600_spiflash/production/_ext/2115314394/drv_encx24j600_spi_bus.o
 *fill*         0xa000006f        0x1 
 .sdata         0xa0000070        0x2 build/e16_encx24j600_spiflash/production/_ext/1210338337/drv_encx24j600_tx_packet.o
                0xa0000070                lastPacketAddr
 *fill*         0xa0000072        0x2 
 .sdata         0xa0000074        0x8 build/e16_encx24j600_spiflash/production/_ext/1164207549/arp.o
 .sdata         0xa000007c        0x2 build/e16_encx24j600_spiflash/production/_ext/1164207549/smtp.o
 *fill*         0xa000007e        0x2 
 .sdata         0xa0000080        0x4 build/e16_encx24j600_spiflash/production/_ext/1164207549/tcpip_commands.o
 .sdata         0xa0000084        0x4 build/e16_encx24j600_spiflash/production/_ext/1164207549/tcpip_manager.o
 .sdata         0xa0000088        0x2 build/e16_encx24j600_spiflash/production/_ext/1164207549/sntp.o
 .sdata         0xa000008a        0x2 build/e16_encx24j600_spiflash/production/_ext/1164207549/ddns.o
 .sdata         0xa000008c        0x4 c:/program files (x86)/microchip/xc32/v1.42/bin/bin/../../lib/gcc/pic32mx/4.8.3/../../../../pic32mx/lib\libpic32.a(xc32_uart.o)
                0xa000008c                __XC_UART
                0xa0000090                . = ALIGN (0x4)
                0xa0000090                _sdata_end = .

.lit8
 *(.lit8)

.lit4
 *(.lit4)
                0xa0000090                . = ALIGN (0x4)
                0xa0000090                _data_end = .
                0xa0000090                _bss_begin = .

.sbss           0xa0000090      0x2cc
                0xa0000090                _sbss_begin = .
 *(.dynsbss)
 *(.sbss .sbss.* .gnu.linkonce.sb.*)
 .sbss          0xa0000090        0x1 build/e16_encx24j600_spiflash/production/_ext/971131287/net_pres_enc_glue.o
 *fill*         0xa0000091        0x3 
 .sbss          0xa0000094        0x8 build/e16_encx24j600_spiflash/production/_ext/689678155/system_init.o
                0xa0000094                sysCmdInit
 .sbss          0xa000009c        0xc build/e16_encx24j600_spiflash/production/_ext/689678155/system_exceptions.o
 .sbss          0xa00000a8        0x8 build/e16_encx24j600_spiflash/production/_ext/1360937237/app.o
                0xa00000ac                LEDstate
 .sbss          0xa00000b0       0x10 build/e16_encx24j600_spiflash/production/_ext/1360937237/custom_http_app.o
 .sbss          0xa00000c0        0xc build/e16_encx24j600_spiflash/production/_ext/29024758/memory.o
 .sbss          0xa00000cc        0x1 build/e16_encx24j600_spiflash/production/_ext/2115314394/drv_encx24j600_spi_bus.o
 *fill*         0xa00000cd        0x3 
 .sbss          0xa00000d0        0xc build/e16_encx24j600_spiflash/production/_ext/772120936/drv_encx24j600_api.o
 .sbss          0xa00000dc        0x1 build/e16_encx24j600_spiflash/production/_ext/1324760662/drv_spi.o
 *fill*         0xa00000dd        0x3 
 .sbss          0xa00000e0        0x8 build/e16_encx24j600_spiflash/production/_ext/1335609251/SPIFlash.o
 .sbss          0xa00000e8        0x4 build/e16_encx24j600_spiflash/production/_ext/941160041/drv_tmr.o
 .sbss          0xa00000ec        0x2 build/e16_encx24j600_spiflash/production/_ext/821589181/drv_usart_buffer_queue.o
 *fill*         0xa00000ee        0x2 
 .sbss          0xa00000f0       0x10 build/e16_encx24j600_spiflash/production/_ext/1891376032/sys_command.o
 .sbss          0xa0000100        0x8 build/e16_encx24j600_spiflash/production/_ext/1434663852/sys_console_uart.o
 .sbss          0xa0000108        0x4 build/e16_encx24j600_spiflash/production/_ext/1750042194/sys_fs.o
                0xa0000108                gSYSFSEventHandler
 .sbss          0xa000010c       0x24 build/e16_encx24j600_spiflash/production/_ext/1164207549/tcp.o
 .sbss          0xa0000130       0x1c build/e16_encx24j600_spiflash/production/_ext/1164207549/udp.o
 .sbss          0xa000014c       0x20 build/e16_encx24j600_spiflash/production/_ext/1164207549/dhcp.o
 .sbss          0xa000016c       0x10 build/e16_encx24j600_spiflash/production/_ext/1164207549/dns.o
                0xa000016c                _DNSStayCondLoop
                0xa0000170                _DNSStayAssertLoop
 .sbss          0xa000017c       0x20 build/e16_encx24j600_spiflash/production/_ext/1164207549/http.o
 .sbss          0xa000019c        0xc build/e16_encx24j600_spiflash/production/_ext/1164207549/nbns.o
 .sbss          0xa00001a8       0x44 build/e16_encx24j600_spiflash/production/_ext/1164207549/smtp.o
 .sbss          0xa00001ec       0x1c build/e16_encx24j600_spiflash/production/_ext/1164207549/tcpip_announce.o
 .sbss          0xa0000208       0x1c build/e16_encx24j600_spiflash/production/_ext/1164207549/tcpip_commands.o
 .sbss          0xa0000224       0x24 build/e16_encx24j600_spiflash/production/_ext/1164207549/tcpip_manager.o
 .sbss          0xa0000248        0x8 build/e16_encx24j600_spiflash/production/_ext/1164207549/tcpip_packet.o
 .sbss          0xa0000250       0x18 build/e16_encx24j600_spiflash/production/_ext/1164207549/ipv4.o
 .sbss          0xa0000268       0x48 build/e16_encx24j600_spiflash/production/_ext/1164207549/sntp.o
 .sbss          0xa00002b0        0xc build/e16_encx24j600_spiflash/production/_ext/1164207549/icmp.o
 .sbss          0xa00002bc       0x14 build/e16_encx24j600_spiflash/production/_ext/1164207549/dhcps.o
 .sbss          0xa00002d0       0x38 build/e16_encx24j600_spiflash/production/_ext/1164207549/ddns.o
 .sbss          0xa0000308        0xc build/e16_encx24j600_spiflash/production/_ext/615233400/ssl.o
 *(.scommon)
 .scommon       0xa0000314        0x8 build/e16_encx24j600_spiflash/production/_ext/1360937237/app.o
                0xa0000314                appData
 .scommon       0xa000031c        0xc build/e16_encx24j600_spiflash/production/_ext/1112873152/drv_sst25vf016b.o
                0xa000031c                gDrvSPIFlashMediaGeometry
                0xa0000320                gDrvSST25VF016BCommonDataObj
                0xa0000324                gSPIFlashGeometryTable
 .scommon       0xa0000328        0x3 build/e16_encx24j600_spiflash/production/_ext/821589181/drv_usart.o
                0xa0000328                gDrvUSARTCommonDataObj
 *fill*         0xa000032b        0x1 
 .scommon       0xa000032c        0x4 build/e16_encx24j600_spiflash/production/_ext/2137108136/sys_debug.o
                0xa000032c                gblErrLvl
 .scommon       0xa0000330        0x8 build/e16_encx24j600_spiflash/production/_ext/482662494/sys_devcon.o
                0xa0000330                sysDevconObj
 .scommon       0xa0000338       0x19 build/e16_encx24j600_spiflash/production/_ext/1750042194/sys_fs.o
                0xa0000338                gSYSFSObj
                0xa0000340                mutexFileSystemObj
                0xa0000344                gSYSFSCurrentMountPoint
                0xa000034c                errorValue
                0xa0000350                mutexDirObj
 *fill*         0xa0000351        0x3 
 .scommon       0xa0000354        0x2 build/e16_encx24j600_spiflash/production/_ext/1750042194/sys_fs_media_manager.o
                0xa0000354                VolToPart
 *fill*         0xa0000356        0x2 
 .scommon       0xa0000358        0x4 build/e16_encx24j600_spiflash/production/_ext/1164207549/dhcps.o
                0xa0000358                initTime
                0xa000035c                _sbss_end = .
                0xa000035c                . = ALIGN (0x4)

.bss            0xa000035c     0x4548
 *(.dynbss)
 *(COMMON)
 COMMON         0xa000035c       0x30 build/e16_encx24j600_spiflash/production/_ext/971131287/net_pres_enc_glue.o
                0xa000035c                net_pres_wolfSSLInfoDataGramServer0
                0xa0000368                net_pres_wolfSSLInfoStreamServer0
                0xa0000374                net_pres_wolfSSLInfoDataGramClient0
                0xa0000380                net_pres_wolfSSLInfoStreamClient0
 COMMON         0xa000038c       0x30 build/e16_encx24j600_spiflash/production/_ext/689678155/system_init.o
                0xa000038c                sysObj
 COMMON         0xa00003bc      0x348 build/e16_encx24j600_spiflash/production/_ext/1112873152/drv_sst25vf016b.o
                0xa00003bc                gDrvSST25VF016BClientObj
                0xa00003d4                gDrvSST25VF016BObj
                0xa0000444                gDrvSST25VF016BBufferObj
 COMMON         0xa0000704       0xa8 build/e16_encx24j600_spiflash/production/_ext/821589181/drv_usart.o
                0xa0000704                gDrvUSARTClientObj
                0xa000074c                gDrvUSARTObj
 COMMON         0xa00007ac     0x20d0 build/e16_encx24j600_spiflash/production/_ext/821589181/drv_usart_buffer_queue.o
                0xa00007ac                gDrvUSARTBufferObj
 COMMON         0xa000287c      0x36c build/e16_encx24j600_spiflash/production/_ext/871719959/net_pres.o
                0xa000287c                sNetPresData
                0xa0002a80                sNetPresSockets
 COMMON         0xa0002be8       0x10 build/e16_encx24j600_spiflash/production/_ext/2137108136/sys_debug.o
                0xa0002be8                sysDebugInstance
 COMMON         0xa0002bf8     0x1c34 build/e16_encx24j600_spiflash/production/_ext/1750042194/sys_fs.o
                0xa0002bf8                gSYSFSFileObj
                0xa0004688                gSYSFSDirObj
                0xa0004818                gSYSFSMountPoint
 COMMON         0xa000482c       0x48 build/e16_encx24j600_spiflash/production/_ext/1750042194/sys_fs_media_manager.o
                0xa000482c                gSYSFSMediaObject
                0xa0004858                gSYSFSVolumeObject
 COMMON         0xa0004874       0x10 build/e16_encx24j600_spiflash/production/_ext/614935175/mpfs.o
                0xa0004874                mpfsObject
 COMMON         0xa0004884       0x20 build/e16_encx24j600_spiflash/production/_ext/1164207549/ddns.o
                0xa0004884                DDNSClient
                0xa00048a4                . = ALIGN ((. != 0x0)?0x4:0x1)
                0xa00048a4                . = ALIGN (0x4)
                0xa00048a4                _end = .
                0xa00048a4                _bss_end = .
                0x00020000                _bmxdudba_address = 0x20000
                0x00020000                _bmxdupba_address = 0x20000

/DISCARD/
 *(.pdr)
 *(.rel.dyn)
 *(.note.GNU-stack)
 *(.note.GNU-stack)
 *(.gnu_debuglink)
 *(.gnu.lto_*)
 *(.discard)

.gptab.sdata
 *(.gptab.data)
 *(.gptab.sdata)

.gptab.sbss
 *(.gptab.bss)
 *(.gptab.sbss)

.mdebug.abi32   0xa00048a4        0x0
 *(.mdebug.abi32)
 .mdebug.abi32  0xa00048a4        0x0 build/e16_encx24j600_spiflash/production/_ext/1495834797/drv_flash_static.o
 .mdebug.abi32  0xa00048a4        0x0 build/e16_encx24j600_spiflash/production/_ext/1676865386/drv_spi_tasks.o
 .mdebug.abi32  0xa00048a4        0x0 build/e16_encx24j600_spiflash/production/_ext/1676865386/drv_spi_api.o
 .mdebug.abi32  0xa00048a4        0x0 build/e16_encx24j600_spiflash/production/_ext/1676865386/drv_spi_master_ebm_tasks.o
 .mdebug.abi32  0xa00048a4        0x0 build/e16_encx24j600_spiflash/production/_ext/1676865386/drv_spi_master_rm_tasks.o
 .mdebug.abi32  0xa00048a4        0x0 build/e16_encx24j600_spiflash/production/_ext/971131287/net_pres_enc_glue.o
 .mdebug.abi32  0xa00048a4        0x0 build/e16_encx24j600_spiflash/production/_ext/971131287/net_pres_cert_store.o
 .mdebug.abi32  0xa00048a4        0x0 build/e16_encx24j600_spiflash/production/_ext/360868340/sys_clk_static.o
 .mdebug.abi32  0xa00048a4        0x0 build/e16_encx24j600_spiflash/production/_ext/394705988/sys_ports_static.o
 .mdebug.abi32  0xa00048a4        0x0 build/e16_encx24j600_spiflash/production/_ext/689678155/system_init.o
 .mdebug.abi32  0xa00048a4        0x0 build/e16_encx24j600_spiflash/production/_ext/689678155/system_interrupt.o
 .mdebug.abi32  0xa00048a4        0x0 build/e16_encx24j600_spiflash/production/_ext/689678155/system_exceptions.o
 .mdebug.abi32  0xa00048a4        0x0 build/e16_encx24j600_spiflash/production/_ext/689678155/system_tasks.o
 .mdebug.abi32  0xa00048a4        0x0 build/e16_encx24j600_spiflash/production/_ext/1360937237/app.o
 .mdebug.abi32  0xa00048a4        0x0 build/e16_encx24j600_spiflash/production/_ext/1360937237/main.o
 .mdebug.abi32  0xa00048a4        0x0 build/e16_encx24j600_spiflash/production/_ext/1360937237/http_print.o
 .mdebug.abi32  0xa00048a4        0x0 build/e16_encx24j600_spiflash/production/_ext/1360937237/custom_http_app.o
 .mdebug.abi32  0xa00048a4        0x0 build/e16_encx24j600_spiflash/production/_ext/1360937237/mpfs_img2.o
 .mdebug.abi32  0xa00048a4        0x0 build/e16_encx24j600_spiflash/production/_ext/728775826/bsp_sys_init.o
 .mdebug.abi32  0xa00048a4        0x0 build/e16_encx24j600_spiflash/production/_ext/29024758/random.o
 .mdebug.abi32  0xa00048a4        0x0 build/e16_encx24j600_spiflash/production/_ext/29024758/arc4.o
 .mdebug.abi32  0xa00048a4        0x0 build/e16_encx24j600_spiflash/production/_ext/29024758/crypto.o
 .mdebug.abi32  0xa00048a4        0x0 build/e16_encx24j600_spiflash/production/_ext/29024758/md5.o
 .mdebug.abi32  0xa00048a4        0x0 build/e16_encx24j600_spiflash/production/_ext/29024758/sha.o
 .mdebug.abi32  0xa00048a4        0x0 build/e16_encx24j600_spiflash/production/_ext/29024758/coding.o
 .mdebug.abi32  0xa00048a4        0x0 build/e16_encx24j600_spiflash/production/_ext/29024758/error.o
 .mdebug.abi32  0xa00048a4        0x0 build/e16_encx24j600_spiflash/production/_ext/29024758/integer.o
 .mdebug.abi32  0xa00048a4        0x0 build/e16_encx24j600_spiflash/production/_ext/29024758/logging.o
 .mdebug.abi32  0xa00048a4        0x0 build/e16_encx24j600_spiflash/production/_ext/29024758/memory.o
 .mdebug.abi32  0xa00048a4        0x0 build/e16_encx24j600_spiflash/production/_ext/29024758/misc.o
 .mdebug.abi32  0xa00048a4        0x0 build/e16_encx24j600_spiflash/production/_ext/29024758/port.o
 .mdebug.abi32  0xa00048a4        0x0 build/e16_encx24j600_spiflash/production/_ext/29024758/ecc.o
 .mdebug.abi32  0xa00048a4        0x0 build/e16_encx24j600_spiflash/production/_ext/29024758/pwdbased.o
 .mdebug.abi32  0xa00048a4        0x0 build/e16_encx24j600_spiflash/production/_ext/29024758/tfm.o
 .mdebug.abi32  0xa00048a4        0x0 build/e16_encx24j600_spiflash/production/_ext/29024758/asn.o
 .mdebug.abi32  0xa00048a4        0x0 build/e16_encx24j600_spiflash/production/_ext/29024758/des3.o
 .mdebug.abi32  0xa00048a4        0x0 build/e16_encx24j600_spiflash/production/_ext/29024758/rsa.o
 .mdebug.abi32  0xa00048a4        0x0 build/e16_encx24j600_spiflash/production/_ext/29024758/aes.o
 .mdebug.abi32  0xa00048a4        0x0 build/e16_encx24j600_spiflash/production/_ext/29024758/sha256.o
 .mdebug.abi32  0xa00048a4        0x0 build/e16_encx24j600_spiflash/production/_ext/29024758/sha512.o
 .mdebug.abi32  0xa00048a4        0x0 build/e16_encx24j600_spiflash/production/_ext/29024758/hmac.o
 .mdebug.abi32  0xa00048a4        0x0 build/e16_encx24j600_spiflash/production/_ext/29024758/hash.o
 .mdebug.abi32  0xa00048a4        0x0 build/e16_encx24j600_spiflash/production/_ext/29024758/compress.o
 .mdebug.abi32  0xa00048a4        0x0 build/e16_encx24j600_spiflash/production/_ext/2115314394/drv_encx24j600_spi_bus.o
 .mdebug.abi32  0xa00048a4        0x0 build/e16_encx24j600_spiflash/production/_ext/1455582699/drv_encx24j600_closed_state.o
 .mdebug.abi32  0xa00048a4        0x0 build/e16_encx24j600_spiflash/production/_ext/1730942135/drv_encx24j600_initialization_state.o
 .mdebug.abi32  0xa00048a4        0x0 build/e16_encx24j600_spiflash/production/_ext/1730942135/drv_encx24j600_configure_state.o
 .mdebug.abi32  0xa00048a4        0x0 build/e16_encx24j600_spiflash/production/_ext/1730942135/drv_encx24j600_detect_state.o
 .mdebug.abi32  0xa00048a4        0x0 build/e16_encx24j600_spiflash/production/_ext/1730942135/drv_encx24j600_reset_state.o
 .mdebug.abi32  0xa00048a4        0x0 build/e16_encx24j600_spiflash/production/_ext/1210338337/drv_encx24j600_tx_packet.o
 .mdebug.abi32  0xa00048a4        0x0 build/e16_encx24j600_spiflash/production/_ext/1210338337/drv_encx24j600_rx_packet.o
 .mdebug.abi32  0xa00048a4        0x0 build/e16_encx24j600_spiflash/production/_ext/1207282394/drv_encx24j600_running_state.o
 .mdebug.abi32  0xa00048a4        0x0 build/e16_encx24j600_spiflash/production/_ext/1207282394/drv_encx24j600_change_duplex_state.o
 .mdebug.abi32  0xa00048a4        0x0 build/e16_encx24j600_spiflash/production/_ext/1207282394/drv_encx24j600_check_int_state.o
 .mdebug.abi32  0xa00048a4        0x0 build/e16_encx24j600_spiflash/production/_ext/1207282394/drv_encx24j600_check_status_state.o
 .mdebug.abi32  0xa00048a4        0x0 build/e16_encx24j600_spiflash/production/_ext/1207282394/drv_encx24j600_check_tx_status_state.o
 .mdebug.abi32  0xa00048a4        0x0 build/e16_encx24j600_spiflash/production/_ext/1207282394/drv_encx24j600_reset_rx_state.o
 .mdebug.abi32  0xa00048a4        0x0 build/e16_encx24j600_spiflash/production/_ext/772120936/drv_encx24j600_api.o
 .mdebug.abi32  0xa00048a4        0x0 build/e16_encx24j600_spiflash/production/_ext/772120936/drv_encx24j600_main_state.o
 .mdebug.abi32  0xa00048a4        0x0 build/e16_encx24j600_spiflash/production/_ext/772120936/drv_encx24j600_utils.o
 .mdebug.abi32  0xa00048a4        0x0 build/e16_encx24j600_spiflash/production/_ext/1324760662/drv_spi.o
 .mdebug.abi32  0xa00048a4        0x0 build/e16_encx24j600_spiflash/production/_ext/1385053818/drv_spi_sys_queue_fifo.o
 .mdebug.abi32  0xa00048a4        0x0 build/e16_encx24j600_spiflash/production/_ext/1112873152/drv_sst25vf016b.o
 .mdebug.abi32  0xa00048a4        0x0 build/e16_encx24j600_spiflash/production/_ext/1335609251/SPIFlash.o
 .mdebug.abi32  0xa00048a4        0x0 build/e16_encx24j600_spiflash/production/_ext/941160041/drv_tmr.o
 .mdebug.abi32  0xa00048a4        0x0 build/e16_encx24j600_spiflash/production/_ext/821589181/drv_usart.o
 .mdebug.abi32  0xa00048a4        0x0 build/e16_encx24j600_spiflash/production/_ext/821589181/drv_usart_buffer_queue.o
 .mdebug.abi32  0xa00048a4        0x0 build/e16_encx24j600_spiflash/production/_ext/821589181/drv_usart_read_write.o
 .mdebug.abi32  0xa00048a4        0x0 build/e16_encx24j600_spiflash/production/_ext/1595536294/UART.o
 .mdebug.abi32  0xa00048a4        0x0 build/e16_encx24j600_spiflash/production/_ext/871719959/net_pres.o
 .mdebug.abi32  0xa00048a4        0x0 build/e16_encx24j600_spiflash/production/_ext/1891376032/sys_command.o
 .mdebug.abi32  0xa00048a4        0x0 build/e16_encx24j600_spiflash/production/_ext/598853952/sys_buffer.o
 .mdebug.abi32  0xa00048a4        0x0 build/e16_encx24j600_spiflash/production/_ext/598853952/sys_queue.o
 .mdebug.abi32  0xa00048a4        0x0 build/e16_encx24j600_spiflash/production/_ext/1434663852/sys_console.o
 .mdebug.abi32  0xa00048a4        0x0 build/e16_encx24j600_spiflash/production/_ext/1434663852/sys_console_uart.o
 .mdebug.abi32  0xa00048a4        0x0 build/e16_encx24j600_spiflash/production/_ext/2137108136/sys_debug.o
 .mdebug.abi32  0xa00048a4        0x0 build/e16_encx24j600_spiflash/production/_ext/482662494/sys_devcon.o
 .mdebug.abi32  0xa00048a4        0x0 build/e16_encx24j600_spiflash/production/_ext/482662494/sys_devcon_pic32mx.o
 .mdebug.abi32  0xa00048a4        0x0 build/e16_encx24j600_spiflash/production/_ext/1750042194/sys_fs.o
 .mdebug.abi32  0xa00048a4        0x0 build/e16_encx24j600_spiflash/production/_ext/1750042194/sys_fs_media_manager.o
 .mdebug.abi32  0xa00048a4        0x0 build/e16_encx24j600_spiflash/production/_ext/614935175/mpfs.o
 .mdebug.abi32  0xa00048a4        0x0 build/e16_encx24j600_spiflash/production/_ext/1042686532/sys_int_pic32.o
 .mdebug.abi32  0xa00048a4        0x0 build/e16_encx24j600_spiflash/production/_ext/470001640/sys_random.o
 .mdebug.abi32  0xa00048a4        0x0 build/e16_encx24j600_spiflash/production/_ext/64182180/sys_reset.o
 .mdebug.abi32  0xa00048a4        0x0 build/e16_encx24j600_spiflash/production/_ext/2110151058/sys_tmr.o
 .mdebug.abi32  0xa00048a4        0x0 build/e16_encx24j600_spiflash/production/_ext/1886247299/sys_fs_wrapper.o
 .mdebug.abi32  0xa00048a4        0x0 build/e16_encx24j600_spiflash/production/_ext/1886247299/helpers.o
 .mdebug.abi32  0xa00048a4        0x0 build/e16_encx24j600_spiflash/production/_ext/1164207549/tcp.o
 .mdebug.abi32  0xa00048a4        0x0 build/e16_encx24j600_spiflash/production/_ext/1164207549/udp.o
 .mdebug.abi32  0xa00048a4        0x0 build/e16_encx24j600_spiflash/production/_ext/1164207549/arp.o
 .mdebug.abi32  0xa00048a4        0x0 build/e16_encx24j600_spiflash/production/_ext/1164207549/dhcp.o
 .mdebug.abi32  0xa00048a4        0x0 build/e16_encx24j600_spiflash/production/_ext/1164207549/dns.o
 .mdebug.abi32  0xa00048a4        0x0 build/e16_encx24j600_spiflash/production/_ext/1164207549/http.o
 .mdebug.abi32  0xa00048a4        0x0 build/e16_encx24j600_spiflash/production/_ext/1164207549/nbns.o
 .mdebug.abi32  0xa00048a4        0x0 build/e16_encx24j600_spiflash/production/_ext/1164207549/smtp.o
 .mdebug.abi32  0xa00048a4        0x0 build/e16_encx24j600_spiflash/production/_ext/1164207549/tcpip_announce.o
 .mdebug.abi32  0xa00048a4        0x0 build/e16_encx24j600_spiflash/production/_ext/1164207549/tcpip_commands.o
 .mdebug.abi32  0xa00048a4        0x0 build/e16_encx24j600_spiflash/production/_ext/1164207549/hash_fnv.o
 .mdebug.abi32  0xa00048a4        0x0 build/e16_encx24j600_spiflash/production/_ext/1164207549/oahash.o
 .mdebug.abi32  0xa00048a4        0x0 build/e16_encx24j600_spiflash/production/_ext/1164207549/tcpip_heap_alloc.o
 .mdebug.abi32  0xa00048a4        0x0 build/e16_encx24j600_spiflash/production/_ext/1164207549/tcpip_helpers.o
 .mdebug.abi32  0xa00048a4        0x0 build/e16_encx24j600_spiflash/production/_ext/1164207549/tcpip_manager.o
 .mdebug.abi32  0xa00048a4        0x0 build/e16_encx24j600_spiflash/production/_ext/1164207549/tcpip_notify.o
 .mdebug.abi32  0xa00048a4        0x0 build/e16_encx24j600_spiflash/production/_ext/1164207549/tcpip_packet.o
 .mdebug.abi32  0xa00048a4        0x0 build/e16_encx24j600_spiflash/production/_ext/1164207549/ipv4.o
 .mdebug.abi32  0xa00048a4        0x0 build/e16_encx24j600_spiflash/production/_ext/1164207549/sntp.o
 .mdebug.abi32  0xa00048a4        0x0 build/e16_encx24j600_spiflash/production/_ext/1164207549/tcpip_heap_internal.o
 .mdebug.abi32  0xa00048a4        0x0 build/e16_encx24j600_spiflash/production/_ext/1164207549/icmp.o
 .mdebug.abi32  0xa00048a4        0x0 build/e16_encx24j600_spiflash/production/_ext/1164207549/dhcps.o
 .mdebug.abi32  0xa00048a4        0x0 build/e16_encx24j600_spiflash/production/_ext/1164207549/ddns.o
 .mdebug.abi32  0xa00048a4        0x0 build/e16_encx24j600_spiflash/production/_ext/1699919941/asm.o
 .mdebug.abi32  0xa00048a4        0x0 build/e16_encx24j600_spiflash/production/_ext/1699919941/blake2b.o
 .mdebug.abi32  0xa00048a4        0x0 build/e16_encx24j600_spiflash/production/_ext/1699919941/camellia.o
 .mdebug.abi32  0xa00048a4        0x0 build/e16_encx24j600_spiflash/production/_ext/1699919941/chacha.o
 .mdebug.abi32  0xa00048a4        0x0 build/e16_encx24j600_spiflash/production/_ext/1699919941/chacha20_poly1305.o
 .mdebug.abi32  0xa00048a4        0x0 build/e16_encx24j600_spiflash/production/_ext/1699919941/curve25519.o
 .mdebug.abi32  0xa00048a4        0x0 build/e16_encx24j600_spiflash/production/_ext/1699919941/dh.o
 .mdebug.abi32  0xa00048a4        0x0 build/e16_encx24j600_spiflash/production/_ext/1699919941/dsa.o
 .mdebug.abi32  0xa00048a4        0x0 build/e16_encx24j600_spiflash/production/_ext/1699919941/ecc_fp.o
 .mdebug.abi32  0xa00048a4        0x0 build/e16_encx24j600_spiflash/production/_ext/1699919941/ed25519.o
 .mdebug.abi32  0xa00048a4        0x0 build/e16_encx24j600_spiflash/production/_ext/1699919941/fe_low_mem.o
 .mdebug.abi32  0xa00048a4        0x0 build/e16_encx24j600_spiflash/production/_ext/1699919941/fe_operations.o
 .mdebug.abi32  0xa00048a4        0x0 build/e16_encx24j600_spiflash/production/_ext/1699919941/ge_low_mem.o
 .mdebug.abi32  0xa00048a4        0x0 build/e16_encx24j600_spiflash/production/_ext/1699919941/ge_operations.o
 .mdebug.abi32  0xa00048a4        0x0 build/e16_encx24j600_spiflash/production/_ext/1699919941/hc128.o
 .mdebug.abi32  0xa00048a4        0x0 build/e16_encx24j600_spiflash/production/_ext/1699919941/md2.o
 .mdebug.abi32  0xa00048a4        0x0 build/e16_encx24j600_spiflash/production/_ext/1699919941/md4.o
 .mdebug.abi32  0xa00048a4        0x0 build/e16_encx24j600_spiflash/production/_ext/1699919941/pkcs7.o
 .mdebug.abi32  0xa00048a4        0x0 build/e16_encx24j600_spiflash/production/_ext/1699919941/poly1305.o
 .mdebug.abi32  0xa00048a4        0x0 build/e16_encx24j600_spiflash/production/_ext/1699919941/rabbit.o
 .mdebug.abi32  0xa00048a4        0x0 build/e16_encx24j600_spiflash/production/_ext/1699919941/ripemd.o
 .mdebug.abi32  0xa00048a4        0x0 build/e16_encx24j600_spiflash/production/_ext/615233400/crl.o
 .mdebug.abi32  0xa00048a4        0x0 build/e16_encx24j600_spiflash/production/_ext/615233400/internal.o
 .mdebug.abi32  0xa00048a4        0x0 build/e16_encx24j600_spiflash/production/_ext/615233400/io.o
 .mdebug.abi32  0xa00048a4        0x0 build/e16_encx24j600_spiflash/production/_ext/615233400/keys.o
 .mdebug.abi32  0xa00048a4        0x0 build/e16_encx24j600_spiflash/production/_ext/615233400/ocsp.o
 .mdebug.abi32  0xa00048a4        0x0 build/e16_encx24j600_spiflash/production/_ext/615233400/sniffer.o
 .mdebug.abi32  0xa00048a4        0x0 build/e16_encx24j600_spiflash/production/_ext/615233400/ssl.o
 .mdebug.abi32  0xa00048a4        0x0 build/e16_encx24j600_spiflash/production/_ext/615233400/tls.o
 .mdebug.abi32  0xa00048a4        0x0 build/e16_encx24j600_spiflash/production/_ext/29024758/asm.o
 .mdebug.abi32  0xa00048a4        0x0 c:/program files (x86)/microchip/xc32/v1.42/bin/bin/../../lib/gcc/pic32mx/4.8.3\libgcc.a(_udivdi3.o)
 .mdebug.abi32  0xa00048a4        0x0 c:/program files (x86)/microchip/xc32/v1.42/bin/bin/../../lib/gcc/pic32mx/4.8.3\libgcc.a(floatunsisf.o)
 .mdebug.abi32  0xa00048a4        0x0 c:/program files (x86)/microchip/xc32/v1.42/bin/bin/../../lib/gcc/pic32mx/4.8.3/../../../../pic32mx/lib\libpic32.a(default-bootstrap-exception-handler.o)
 .mdebug.abi32  0xa00048a4        0x0 c:/program files (x86)/microchip/xc32/v1.42/bin/bin/../../lib/gcc/pic32mx/4.8.3/../../../../pic32mx/lib\libpic32.a(default-on-reset.o)
 .mdebug.abi32  0xa00048a4        0x0 c:/program files (x86)/microchip/xc32/v1.42/bin/bin/../../lib/gcc/pic32mx/4.8.3/../../../../pic32mx/lib\libpic32.a(default-on-bootstrap.o)
 .mdebug.abi32  0xa00048a4        0x0 c:/program files (x86)/microchip/xc32/v1.42/bin/bin/../../lib/gcc/pic32mx/4.8.3/../../../../pic32mx/lib\libpic32.a(defaultinterrupt.o)
 .mdebug.abi32  0xa00048a4        0x0 c:/program files (x86)/microchip/xc32/v1.42/bin/bin/../../lib/gcc/pic32mx/4.8.3/../../../../pic32mx/lib\libm.a(w_logf.o)
 .mdebug.abi32  0xa00048a4        0x0 c:/program files (x86)/microchip/xc32/v1.42/bin/bin/../../lib/gcc/pic32mx/4.8.3/../../../../pic32mx/lib\libm.a(w_powf.o)
 .mdebug.abi32  0xa00048a4        0x0 c:/program files (x86)/microchip/xc32/v1.42/bin/bin/../../lib/gcc/pic32mx/4.8.3/../../../../pic32mx/lib\libm.a(s_lib_ver.o)
 .mdebug.abi32  0xa00048a4        0x0 c:/program files (x86)/microchip/xc32/v1.42/bin/bin/../../lib/gcc/pic32mx/4.8.3/../../../../pic32mx/lib\libc.a(atoi.o)
 .mdebug.abi32  0xa00048a4        0x0 c:/program files (x86)/microchip/xc32/v1.42/bin/bin/../../lib/gcc/pic32mx/4.8.3/../../../../pic32mx/lib\libc.a(atol.o)
 .mdebug.abi32  0xa00048a4        0x0 c:/program files (x86)/microchip/xc32/v1.42/bin/bin/../../lib/gcc/pic32mx/4.8.3/../../../../pic32mx/lib\libc.a(calloc.o)
 .mdebug.abi32  0xa00048a4        0x0 c:/program files (x86)/microchip/xc32/v1.42/bin/bin/../../lib/gcc/pic32mx/4.8.3/../../../../pic32mx/lib\libc.a(ctime.o)
 .mdebug.abi32  0xa00048a4        0x0 c:/program files (x86)/microchip/xc32/v1.42/bin/bin/../../lib/gcc/pic32mx/4.8.3/../../../../pic32mx/lib\libc.a(ctype.o)
 .mdebug.abi32  0xa00048a4        0x0 c:/program files (x86)/microchip/xc32/v1.42/bin/bin/../../lib/gcc/pic32mx/4.8.3/../../../../pic32mx/lib\libc.a(ctypef.o)
 .mdebug.abi32  0xa00048a4        0x0 c:/program files (x86)/microchip/xc32/v1.42/bin/bin/../../lib/gcc/pic32mx/4.8.3/../../../../pic32mx/lib\libc.a(errno.o)
 .mdebug.abi32  0xa00048a4        0x0 c:/program files (x86)/microchip/xc32/v1.42/bin/bin/../../lib/gcc/pic32mx/4.8.3/../../../../pic32mx/lib\libc.a(malloc.o)
 .mdebug.abi32  0xa00048a4        0x0 c:/program files (x86)/microchip/xc32/v1.42/bin/bin/../../lib/gcc/pic32mx/4.8.3/../../../../pic32mx/lib\libc.a(memmove.o)
 .mdebug.abi32  0xa00048a4        0x0 c:/program files (x86)/microchip/xc32/v1.42/bin/bin/../../lib/gcc/pic32mx/4.8.3/../../../../pic32mx/lib\libc.a(rand.o)
 .mdebug.abi32  0xa00048a4        0x0 c:/program files (x86)/microchip/xc32/v1.42/bin/bin/../../lib/gcc/pic32mx/4.8.3/../../../../pic32mx/lib\libc.a(strcat.o)
 .mdebug.abi32  0xa00048a4        0x0 c:/program files (x86)/microchip/xc32/v1.42/bin/bin/../../lib/gcc/pic32mx/4.8.3/../../../../pic32mx/lib\libc.a(strchr.o)
 .mdebug.abi32  0xa00048a4        0x0 c:/program files (x86)/microchip/xc32/v1.42/bin/bin/../../lib/gcc/pic32mx/4.8.3/../../../../pic32mx/lib\libc.a(strncat.o)
 .mdebug.abi32  0xa00048a4        0x0 c:/program files (x86)/microchip/xc32/v1.42/bin/bin/../../lib/gcc/pic32mx/4.8.3/../../../../pic32mx/lib\libc.a(strncmp.o)
 .mdebug.abi32  0xa00048a4        0x0 c:/program files (x86)/microchip/xc32/v1.42/bin/bin/../../lib/gcc/pic32mx/4.8.3/../../../../pic32mx/lib\libc.a(strncpy.o)
 .mdebug.abi32  0xa00048a4        0x0 c:/program files (x86)/microchip/xc32/v1.42/bin/bin/../../lib/gcc/pic32mx/4.8.3/../../../../pic32mx/lib\libc.a(strstr.o)
 .mdebug.abi32  0xa00048a4        0x0 c:/program files (x86)/microchip/xc32/v1.42/bin/bin/../../lib/gcc/pic32mx/4.8.3/../../../../pic32mx/lib\libc.a(strtol.o)
 .mdebug.abi32  0xa00048a4        0x0 c:/program files (x86)/microchip/xc32/v1.42/bin/bin/../../lib/gcc/pic32mx/4.8.3/../../../../pic32mx/lib\libc.a(sprintf_cdnopuxX.eo)
 .mdebug.abi32  0xa00048a4        0x0 c:/program files (x86)/microchip/xc32/v1.42/bin/bin/../../lib/gcc/pic32mx/4.8.3/../../../../pic32mx/lib\libc.a(vsnprintf.o)
 .mdebug.abi32  0xa00048a4        0x0 c:/program files (x86)/microchip/xc32/v1.42/bin/bin/../../lib/gcc/pic32mx/4.8.3/../../../../pic32mx/lib\libc.a(doprnt_cdnopuxX.eo)
 .mdebug.abi32  0xa00048a4        0x0 c:/program files (x86)/microchip/xc32/v1.42/bin/bin/../../lib/gcc/pic32mx/4.8.3/../../../../pic32mx/lib\libc.a(doprnt.o)
 .mdebug.abi32  0xa00048a4        0x0 c:/program files (x86)/microchip/xc32/v1.42/bin/bin/../../lib/gcc/pic32mx/4.8.3/../../../../pic32mx/lib\libc.a(_fputc_simple.o)
 .mdebug.abi32  0xa00048a4        0x0 c:/program files (x86)/microchip/xc32/v1.42/bin/bin/../../lib/gcc/pic32mx/4.8.3/../../../../pic32mx/lib\libc.a(powersf.o)
 .mdebug.abi32  0xa00048a4        0x0 c:/program files (x86)/microchip/xc32/v1.42/bin/bin/../../lib/gcc/pic32mx/4.8.3/../../../../pic32mx/lib\libc.a(_iob.o)
 .mdebug.abi32  0xa00048a4        0x0 c:/program files (x86)/microchip/xc32/v1.42/bin/bin/../../lib/gcc/pic32mx/4.8.3/../../../../pic32mx/lib\libc.a(_flsbuf_simple.o)
 .mdebug.abi32  0xa00048a4        0x0 c:/program files (x86)/microchip/xc32/v1.42/bin/bin/../../lib/gcc/pic32mx/4.8.3/../../../../pic32mx/lib\libpic32.a(sbrk.o)
 .mdebug.abi32  0xa00048a4        0x0 c:/program files (x86)/microchip/xc32/v1.42/bin/bin/../../lib/gcc/pic32mx/4.8.3/../../../../pic32mx/lib\libpic32.a(write.o)
 .mdebug.abi32  0xa00048a4        0x0 c:/program files (x86)/microchip/xc32/v1.42/bin/bin/../../lib/gcc/pic32mx/4.8.3/../../../../pic32mx/lib\libpic32.a(isinf.o)
 .mdebug.abi32  0xa00048a4        0x0 c:/program files (x86)/microchip/xc32/v1.42/bin/bin/../../lib/gcc/pic32mx/4.8.3/../../../../pic32mx/lib\libpic32.a(_mon_putc.o)
 .mdebug.abi32  0xa00048a4        0x0 c:/program files (x86)/microchip/xc32/v1.42/bin/bin/../../lib/gcc/pic32mx/4.8.3/../../../../pic32mx/lib\libpic32.a(xc32_uart.o)
 .mdebug.abi32  0xa00048a4        0x0 c:/program files (x86)/microchip/xc32/v1.42/bin/bin/../../lib/gcc/pic32mx/4.8.3/../../../../pic32mx/lib\libe.a(_floatdisf.o)
 .mdebug.abi32  0xa00048a4        0x0 c:/program files (x86)/microchip/xc32/v1.42/bin/bin/../../lib/gcc/pic32mx/4.8.3/../../../../pic32mx/lib\libe.a(_unorddf2.o)
 .mdebug.abi32  0xa00048a4        0x0 c:/program files (x86)/microchip/xc32/v1.42/bin/bin/../../lib/gcc/pic32mx/4.8.3\libgcc.a(_umoddi3.o)

.mdebug.abiN32
 *(.mdebug.abiN32)

.mdebug.abi64
 *(.mdebug.abi64)

.mdebug.abiO64
 *(.mdebug.abiO64)

.mdebug.eabi32
 *(.mdebug.eabi32)

.mdebug.eabi64
 *(.mdebug.eabi64)

.gcc_compiled_long32
 *(.gcc_compiled_long32)

.gcc_compiled_long64
 *(.gcc_compiled_long64)

.stab
 *(.stab)

.stabstr
 *(.stabstr)

.stab.excl
 *(.stab.excl)

.stab.exclstr
 *(.stab.exclstr)

.stab.index
 *(.stab.index)

.stab.indexstr
 *(.stab.indexstr)

.comment        0x00000000      0x23d
 *(.comment)
 .comment       0x00000000       0x3c build/e16_encx24j600_spiflash/production/_ext/1495834797/drv_flash_static.o
                                 0x3d (size before relaxing)
 .comment       0x00000000       0x3d build/e16_encx24j600_spiflash/production/_ext/1676865386/drv_spi_tasks.o
 .comment       0x00000000       0x3d build/e16_encx24j600_spiflash/production/_ext/1676865386/drv_spi_api.o
 .comment       0x00000000       0x3d build/e16_encx24j600_spiflash/production/_ext/1676865386/drv_spi_master_ebm_tasks.o
 .comment       0x00000000       0x3d build/e16_encx24j600_spiflash/production/_ext/1676865386/drv_spi_master_rm_tasks.o
 .comment       0x00000000       0x3d build/e16_encx24j600_spiflash/production/_ext/971131287/net_pres_enc_glue.o
 .comment       0x00000000       0x3d build/e16_encx24j600_spiflash/production/_ext/971131287/net_pres_cert_store.o
 .comment       0x00000000       0x3d build/e16_encx24j600_spiflash/production/_ext/360868340/sys_clk_static.o
 .comment       0x00000000       0x3d build/e16_encx24j600_spiflash/production/_ext/394705988/sys_ports_static.o
 .comment       0x00000000       0x3d build/e16_encx24j600_spiflash/production/_ext/689678155/system_init.o
 .comment       0x00000000       0x3d build/e16_encx24j600_spiflash/production/_ext/689678155/system_interrupt.o
 .comment       0x00000000       0x3d build/e16_encx24j600_spiflash/production/_ext/689678155/system_exceptions.o
 .comment       0x00000000       0x3d build/e16_encx24j600_spiflash/production/_ext/689678155/system_tasks.o
 .comment       0x00000000       0x3d build/e16_encx24j600_spiflash/production/_ext/1360937237/app.o
 .comment       0x00000000       0x3d build/e16_encx24j600_spiflash/production/_ext/1360937237/main.o
 .comment       0x00000000       0x3d build/e16_encx24j600_spiflash/production/_ext/1360937237/http_print.o
 .comment       0x00000000       0x3d build/e16_encx24j600_spiflash/production/_ext/1360937237/custom_http_app.o
 .comment       0x00000000       0x3d build/e16_encx24j600_spiflash/production/_ext/1360937237/mpfs_img2.o
 .comment       0x00000000       0x3d build/e16_encx24j600_spiflash/production/_ext/728775826/bsp_sys_init.o
 .comment       0x00000000       0x3d build/e16_encx24j600_spiflash/production/_ext/29024758/random.o
 .comment       0x00000000       0x3d build/e16_encx24j600_spiflash/production/_ext/29024758/arc4.o
 .comment       0x00000000       0x3d build/e16_encx24j600_spiflash/production/_ext/29024758/crypto.o
 .comment       0x00000000       0x3d build/e16_encx24j600_spiflash/production/_ext/29024758/md5.o
 .comment       0x00000000       0x3d build/e16_encx24j600_spiflash/production/_ext/29024758/sha.o
 .comment       0x00000000       0x3d build/e16_encx24j600_spiflash/production/_ext/29024758/coding.o
 .comment       0x00000000       0x3d build/e16_encx24j600_spiflash/production/_ext/29024758/error.o
 .comment       0x00000000       0x3d build/e16_encx24j600_spiflash/production/_ext/29024758/integer.o
 .comment       0x00000000       0x3d build/e16_encx24j600_spiflash/production/_ext/29024758/logging.o
 .comment       0x00000000       0x3d build/e16_encx24j600_spiflash/production/_ext/29024758/memory.o
 .comment       0x00000000       0x3d build/e16_encx24j600_spiflash/production/_ext/29024758/misc.o
 .comment       0x00000000       0x3d build/e16_encx24j600_spiflash/production/_ext/29024758/port.o
 .comment       0x00000000       0x3d build/e16_encx24j600_spiflash/production/_ext/29024758/ecc.o
 .comment       0x00000000       0x3d build/e16_encx24j600_spiflash/production/_ext/29024758/pwdbased.o
 .comment       0x00000000       0x3d build/e16_encx24j600_spiflash/production/_ext/29024758/tfm.o
 .comment       0x00000000       0x3d build/e16_encx24j600_spiflash/production/_ext/29024758/asn.o
 .comment       0x00000000       0x3d build/e16_encx24j600_spiflash/production/_ext/29024758/des3.o
 .comment       0x00000000       0x3d build/e16_encx24j600_spiflash/production/_ext/29024758/rsa.o
 .comment       0x00000000       0x3d build/e16_encx24j600_spiflash/production/_ext/29024758/aes.o
 .comment       0x00000000       0x3d build/e16_encx24j600_spiflash/production/_ext/29024758/sha256.o
 .comment       0x00000000       0x3d build/e16_encx24j600_spiflash/production/_ext/29024758/sha512.o
 .comment       0x00000000       0x3d build/e16_encx24j600_spiflash/production/_ext/29024758/hmac.o
 .comment       0x00000000       0x3d build/e16_encx24j600_spiflash/production/_ext/29024758/hash.o
 .comment       0x00000000       0x3d build/e16_encx24j600_spiflash/production/_ext/29024758/compress.o
 .comment       0x00000000       0x3d build/e16_encx24j600_spiflash/production/_ext/2115314394/drv_encx24j600_spi_bus.o
 .comment       0x00000000       0x3d build/e16_encx24j600_spiflash/production/_ext/1455582699/drv_encx24j600_closed_state.o
 .comment       0x00000000       0x3d build/e16_encx24j600_spiflash/production/_ext/1730942135/drv_encx24j600_initialization_state.o
 .comment       0x00000000       0x3d build/e16_encx24j600_spiflash/production/_ext/1730942135/drv_encx24j600_configure_state.o
 .comment       0x00000000       0x3d build/e16_encx24j600_spiflash/production/_ext/1730942135/drv_encx24j600_detect_state.o
 .comment       0x00000000       0x3d build/e16_encx24j600_spiflash/production/_ext/1730942135/drv_encx24j600_reset_state.o
 .comment       0x00000000       0x3d build/e16_encx24j600_spiflash/production/_ext/1210338337/drv_encx24j600_tx_packet.o
 .comment       0x00000000       0x3d build/e16_encx24j600_spiflash/production/_ext/1210338337/drv_encx24j600_rx_packet.o
 .comment       0x00000000       0x3d build/e16_encx24j600_spiflash/production/_ext/1207282394/drv_encx24j600_running_state.o
 .comment       0x00000000       0x3d build/e16_encx24j600_spiflash/production/_ext/1207282394/drv_encx24j600_change_duplex_state.o
 .comment       0x00000000       0x3d build/e16_encx24j600_spiflash/production/_ext/1207282394/drv_encx24j600_check_int_state.o
 .comment       0x00000000       0x3d build/e16_encx24j600_spiflash/production/_ext/1207282394/drv_encx24j600_check_status_state.o
 .comment       0x00000000       0x3d build/e16_encx24j600_spiflash/production/_ext/1207282394/drv_encx24j600_check_tx_status_state.o
 .comment       0x00000000       0x3d build/e16_encx24j600_spiflash/production/_ext/1207282394/drv_encx24j600_reset_rx_state.o
 .comment       0x00000000       0x3d build/e16_encx24j600_spiflash/production/_ext/772120936/drv_encx24j600_api.o
 .comment       0x00000000       0x3d build/e16_encx24j600_spiflash/production/_ext/772120936/drv_encx24j600_main_state.o
 .comment       0x00000000       0x3d build/e16_encx24j600_spiflash/production/_ext/772120936/drv_encx24j600_utils.o
 .comment       0x00000000       0x3d build/e16_encx24j600_spiflash/production/_ext/1324760662/drv_spi.o
 .comment       0x00000000       0x3d build/e16_encx24j600_spiflash/production/_ext/1385053818/drv_spi_sys_queue_fifo.o
 .comment       0x00000000       0x3d build/e16_encx24j600_spiflash/production/_ext/1112873152/drv_sst25vf016b.o
 .comment       0x00000000       0x3d build/e16_encx24j600_spiflash/production/_ext/1335609251/SPIFlash.o
 .comment       0x00000000       0x3d build/e16_encx24j600_spiflash/production/_ext/941160041/drv_tmr.o
 .comment       0x00000000       0x3d build/e16_encx24j600_spiflash/production/_ext/821589181/drv_usart.o
 .comment       0x00000000       0x3d build/e16_encx24j600_spiflash/production/_ext/821589181/drv_usart_buffer_queue.o
 .comment       0x00000000       0x3d build/e16_encx24j600_spiflash/production/_ext/821589181/drv_usart_read_write.o
 .comment       0x00000000       0x3d build/e16_encx24j600_spiflash/production/_ext/1595536294/UART.o
 .comment       0x00000000       0x3d build/e16_encx24j600_spiflash/production/_ext/871719959/net_pres.o
 .comment       0x00000000       0x3d build/e16_encx24j600_spiflash/production/_ext/1891376032/sys_command.o
 .comment       0x00000000       0x3d build/e16_encx24j600_spiflash/production/_ext/598853952/sys_buffer.o
 .comment       0x00000000       0x3d build/e16_encx24j600_spiflash/production/_ext/598853952/sys_queue.o
 .comment       0x00000000       0x3d build/e16_encx24j600_spiflash/production/_ext/1434663852/sys_console.o
 .comment       0x00000000       0x3d build/e16_encx24j600_spiflash/production/_ext/1434663852/sys_console_uart.o
 .comment       0x00000000       0x3d build/e16_encx24j600_spiflash/production/_ext/2137108136/sys_debug.o
 .comment       0x00000000       0x3d build/e16_encx24j600_spiflash/production/_ext/482662494/sys_devcon.o
 .comment       0x00000000       0x3d build/e16_encx24j600_spiflash/production/_ext/482662494/sys_devcon_pic32mx.o
 .comment       0x00000000       0x3d build/e16_encx24j600_spiflash/production/_ext/1750042194/sys_fs.o
 .comment       0x00000000       0x3d build/e16_encx24j600_spiflash/production/_ext/1750042194/sys_fs_media_manager.o
 .comment       0x00000000       0x3d build/e16_encx24j600_spiflash/production/_ext/614935175/mpfs.o
 .comment       0x00000000       0x3d build/e16_encx24j600_spiflash/production/_ext/1042686532/sys_int_pic32.o
 .comment       0x00000000       0x3d build/e16_encx24j600_spiflash/production/_ext/470001640/sys_random.o
 .comment       0x00000000       0x3d build/e16_encx24j600_spiflash/production/_ext/64182180/sys_reset.o
 .comment       0x00000000       0x3d build/e16_encx24j600_spiflash/production/_ext/2110151058/sys_tmr.o
 .comment       0x00000000       0x3d build/e16_encx24j600_spiflash/production/_ext/1886247299/sys_fs_wrapper.o
 .comment       0x00000000       0x3d build/e16_encx24j600_spiflash/production/_ext/1886247299/helpers.o
 .comment       0x00000000       0x3d build/e16_encx24j600_spiflash/production/_ext/1164207549/tcp.o
 .comment       0x00000000       0x3d build/e16_encx24j600_spiflash/production/_ext/1164207549/udp.o
 .comment       0x00000000       0x3d build/e16_encx24j600_spiflash/production/_ext/1164207549/arp.o
 .comment       0x00000000       0x3d build/e16_encx24j600_spiflash/production/_ext/1164207549/dhcp.o
 .comment       0x00000000       0x3d build/e16_encx24j600_spiflash/production/_ext/1164207549/dns.o
 .comment       0x00000000       0x3d build/e16_encx24j600_spiflash/production/_ext/1164207549/http.o
 .comment       0x00000000       0x3d build/e16_encx24j600_spiflash/production/_ext/1164207549/nbns.o
 .comment       0x00000000       0x3d build/e16_encx24j600_spiflash/production/_ext/1164207549/smtp.o
 .comment       0x00000000       0x3d build/e16_encx24j600_spiflash/production/_ext/1164207549/tcpip_announce.o
 .comment       0x00000000       0x3d build/e16_encx24j600_spiflash/production/_ext/1164207549/tcpip_commands.o
 .comment       0x00000000       0x3d build/e16_encx24j600_spiflash/production/_ext/1164207549/hash_fnv.o
 .comment       0x00000000       0x3d build/e16_encx24j600_spiflash/production/_ext/1164207549/oahash.o
 .comment       0x00000000       0x3d build/e16_encx24j600_spiflash/production/_ext/1164207549/tcpip_heap_alloc.o
 .comment       0x00000000       0x3d build/e16_encx24j600_spiflash/production/_ext/1164207549/tcpip_helpers.o
 .comment       0x00000000       0x3d build/e16_encx24j600_spiflash/production/_ext/1164207549/tcpip_manager.o
 .comment       0x00000000       0x3d build/e16_encx24j600_spiflash/production/_ext/1164207549/tcpip_notify.o
 .comment       0x00000000       0x3d build/e16_encx24j600_spiflash/production/_ext/1164207549/tcpip_packet.o
 .comment       0x00000000       0x3d build/e16_encx24j600_spiflash/production/_ext/1164207549/ipv4.o
 .comment       0x00000000       0x3d build/e16_encx24j600_spiflash/production/_ext/1164207549/sntp.o
 .comment       0x00000000       0x3d build/e16_encx24j600_spiflash/production/_ext/1164207549/tcpip_heap_internal.o
 .comment       0x00000000       0x3d build/e16_encx24j600_spiflash/production/_ext/1164207549/icmp.o
 .comment       0x00000000       0x3d build/e16_encx24j600_spiflash/production/_ext/1164207549/dhcps.o
 .comment       0x00000000       0x3d build/e16_encx24j600_spiflash/production/_ext/1164207549/ddns.o
 .comment       0x00000000       0x3d build/e16_encx24j600_spiflash/production/_ext/1699919941/asm.o
 .comment       0x00000000       0x3d build/e16_encx24j600_spiflash/production/_ext/1699919941/blake2b.o
 .comment       0x00000000       0x3d build/e16_encx24j600_spiflash/production/_ext/1699919941/camellia.o
 .comment       0x00000000       0x3d build/e16_encx24j600_spiflash/production/_ext/1699919941/chacha.o
 .comment       0x00000000       0x3d build/e16_encx24j600_spiflash/production/_ext/1699919941/chacha20_poly1305.o
 .comment       0x00000000       0x3d build/e16_encx24j600_spiflash/production/_ext/1699919941/curve25519.o
 .comment       0x00000000       0x3d build/e16_encx24j600_spiflash/production/_ext/1699919941/dh.o
 .comment       0x00000000       0x3d build/e16_encx24j600_spiflash/production/_ext/1699919941/dsa.o
 .comment       0x00000000       0x3d build/e16_encx24j600_spiflash/production/_ext/1699919941/ecc_fp.o
 .comment       0x00000000       0x3d build/e16_encx24j600_spiflash/production/_ext/1699919941/ed25519.o
 .comment       0x00000000       0x3d build/e16_encx24j600_spiflash/production/_ext/1699919941/fe_low_mem.o
 .comment       0x00000000       0x3d build/e16_encx24j600_spiflash/production/_ext/1699919941/fe_operations.o
 .comment       0x00000000       0x3d build/e16_encx24j600_spiflash/production/_ext/1699919941/ge_low_mem.o
 .comment       0x00000000       0x3d build/e16_encx24j600_spiflash/production/_ext/1699919941/ge_operations.o
 .comment       0x00000000       0x3d build/e16_encx24j600_spiflash/production/_ext/1699919941/hc128.o
 .comment       0x00000000       0x3d build/e16_encx24j600_spiflash/production/_ext/1699919941/md2.o
 .comment       0x00000000       0x3d build/e16_encx24j600_spiflash/production/_ext/1699919941/md4.o
 .comment       0x00000000       0x3d build/e16_encx24j600_spiflash/production/_ext/1699919941/pkcs7.o
 .comment       0x00000000       0x3d build/e16_encx24j600_spiflash/production/_ext/1699919941/poly1305.o
 .comment       0x00000000       0x3d build/e16_encx24j600_spiflash/production/_ext/1699919941/rabbit.o
 .comment       0x00000000       0x3d build/e16_encx24j600_spiflash/production/_ext/1699919941/ripemd.o
 .comment       0x00000000       0x3d build/e16_encx24j600_spiflash/production/_ext/615233400/crl.o
 .comment       0x00000000       0x3d build/e16_encx24j600_spiflash/production/_ext/615233400/internal.o
 .comment       0x00000000       0x3d build/e16_encx24j600_spiflash/production/_ext/615233400/io.o
 .comment       0x00000000       0x3d build/e16_encx24j600_spiflash/production/_ext/615233400/keys.o
 .comment       0x00000000       0x3d build/e16_encx24j600_spiflash/production/_ext/615233400/ocsp.o
 .comment       0x00000000       0x3d build/e16_encx24j600_spiflash/production/_ext/615233400/sniffer.o
 .comment       0x00000000       0x3d build/e16_encx24j600_spiflash/production/_ext/615233400/ssl.o
 .comment       0x00000000       0x3d build/e16_encx24j600_spiflash/production/_ext/615233400/tls.o
 .comment       0x00000000       0x3d build/e16_encx24j600_spiflash/production/_ext/29024758/asm.o
 .comment       0x00000000       0x3d c:/program files (x86)/microchip/xc32/v1.42/bin/bin/../../lib/gcc/pic32mx/4.8.3\libgcc.a(_udivdi3.o)
 .comment       0x00000000       0x3d c:/program files (x86)/microchip/xc32/v1.42/bin/bin/../../lib/gcc/pic32mx/4.8.3\libgcc.a(floatunsisf.o)
 .comment       0x0000003c       0x18 c:/program files (x86)/microchip/xc32/v1.42/bin/bin/../../lib/gcc/pic32mx/4.8.3/../../../../pic32mx/lib\libpic32.a(memcmp.o)
                                 0x19 (size before relaxing)
 .comment       0x00000054       0x18 c:/program files (x86)/microchip/xc32/v1.42/bin/bin/../../lib/gcc/pic32mx/4.8.3/../../../../pic32mx/lib\libpic32.a(memset.o)
                                 0x19 (size before relaxing)
 .comment       0x0000006c       0x19 c:/program files (x86)/microchip/xc32/v1.42/bin/bin/../../lib/gcc/pic32mx/4.8.3/../../../../pic32mx/lib\libpic32.a(strcmp.o)
                                 0x1a (size before relaxing)
 .comment       0x00000085       0x19 c:/program files (x86)/microchip/xc32/v1.42/bin/bin/../../lib/gcc/pic32mx/4.8.3/../../../../pic32mx/lib\libpic32.a(strcpy.o)
                                 0x1a (size before relaxing)
 .comment       0x0000009e       0x19 c:/program files (x86)/microchip/xc32/v1.42/bin/bin/../../lib/gcc/pic32mx/4.8.3/../../../../pic32mx/lib\libpic32.a(strlen.o)
                                 0x1a (size before relaxing)
 .comment       0x00000000       0x3d c:/program files (x86)/microchip/xc32/v1.42/bin/bin/../../lib/gcc/pic32mx/4.8.3/../../../../pic32mx/lib\libpic32.a(default-bootstrap-exception-handler.o)
 .comment       0x00000000       0x3d c:/program files (x86)/microchip/xc32/v1.42/bin/bin/../../lib/gcc/pic32mx/4.8.3/../../../../pic32mx/lib\libpic32.a(default-on-reset.o)
 .comment       0x00000000       0x3d c:/program files (x86)/microchip/xc32/v1.42/bin/bin/../../lib/gcc/pic32mx/4.8.3/../../../../pic32mx/lib\libpic32.a(default-on-bootstrap.o)
 .comment       0x00000000       0x3d c:/program files (x86)/microchip/xc32/v1.42/bin/bin/../../lib/gcc/pic32mx/4.8.3/../../../../pic32mx/lib\libpic32.a(defaultinterrupt.o)
 .comment       0x00000000       0x3d c:/program files (x86)/microchip/xc32/v1.42/bin/bin/../../lib/gcc/pic32mx/4.8.3/../../../../pic32mx/lib\libm.a(w_logf.o)
 .comment       0x00000000       0x3d c:/program files (x86)/microchip/xc32/v1.42/bin/bin/../../lib/gcc/pic32mx/4.8.3/../../../../pic32mx/lib\libm.a(w_powf.o)
 .comment       0x00000000       0x3d c:/program files (x86)/microchip/xc32/v1.42/bin/bin/../../lib/gcc/pic32mx/4.8.3/../../../../pic32mx/lib\libm.a(s_lib_ver.o)
 .comment       0x00000000       0x3d c:/program files (x86)/microchip/xc32/v1.42/bin/bin/../../lib/gcc/pic32mx/4.8.3/../../../../pic32mx/lib\libc.a(atoi.o)
 .comment       0x00000000       0x3d c:/program files (x86)/microchip/xc32/v1.42/bin/bin/../../lib/gcc/pic32mx/4.8.3/../../../../pic32mx/lib\libc.a(atol.o)
 .comment       0x00000000       0x3d c:/program files (x86)/microchip/xc32/v1.42/bin/bin/../../lib/gcc/pic32mx/4.8.3/../../../../pic32mx/lib\libc.a(calloc.o)
 .comment       0x00000000       0x3d c:/program files (x86)/microchip/xc32/v1.42/bin/bin/../../lib/gcc/pic32mx/4.8.3/../../../../pic32mx/lib\libc.a(ctime.o)
 .comment       0x000000b7       0x4e c:/program files (x86)/microchip/xc32/v1.42/bin/bin/../../lib/gcc/pic32mx/4.8.3/../../../../pic32mx/lib\libc.a(ctype.o)
                                 0x8b (size before relaxing)
 .comment       0x00000105       0x4f c:/program files (x86)/microchip/xc32/v1.42/bin/bin/../../lib/gcc/pic32mx/4.8.3/../../../../pic32mx/lib\libc.a(ctypef.o)
                                 0x8c (size before relaxing)
 .comment       0x00000000       0x3d c:/program files (x86)/microchip/xc32/v1.42/bin/bin/../../lib/gcc/pic32mx/4.8.3/../../../../pic32mx/lib\libc.a(errno.o)
 .comment       0x00000000       0x3d c:/program files (x86)/microchip/xc32/v1.42/bin/bin/../../lib/gcc/pic32mx/4.8.3/../../../../pic32mx/lib\libc.a(malloc.o)
 .comment       0x00000000       0x3d c:/program files (x86)/microchip/xc32/v1.42/bin/bin/../../lib/gcc/pic32mx/4.8.3/../../../../pic32mx/lib\libc.a(memmove.o)
 .comment       0x00000000       0x3d c:/program files (x86)/microchip/xc32/v1.42/bin/bin/../../lib/gcc/pic32mx/4.8.3/../../../../pic32mx/lib\libc.a(rand.o)
 .comment       0x00000000       0x3d c:/program files (x86)/microchip/xc32/v1.42/bin/bin/../../lib/gcc/pic32mx/4.8.3/../../../../pic32mx/lib\libc.a(strcat.o)
 .comment       0x00000000       0x3d c:/program files (x86)/microchip/xc32/v1.42/bin/bin/../../lib/gcc/pic32mx/4.8.3/../../../../pic32mx/lib\libc.a(strchr.o)
 .comment       0x00000000       0x3d c:/program files (x86)/microchip/xc32/v1.42/bin/bin/../../lib/gcc/pic32mx/4.8.3/../../../../pic32mx/lib\libc.a(strncat.o)
 .comment       0x00000000       0x3d c:/program files (x86)/microchip/xc32/v1.42/bin/bin/../../lib/gcc/pic32mx/4.8.3/../../../../pic32mx/lib\libc.a(strncmp.o)
 .comment       0x00000000       0x3d c:/program files (x86)/microchip/xc32/v1.42/bin/bin/../../lib/gcc/pic32mx/4.8.3/../../../../pic32mx/lib\libc.a(strncpy.o)
 .comment       0x00000000       0x3d c:/program files (x86)/microchip/xc32/v1.42/bin/bin/../../lib/gcc/pic32mx/4.8.3/../../../../pic32mx/lib\libc.a(strstr.o)
 .comment       0x00000000       0x3d c:/program files (x86)/microchip/xc32/v1.42/bin/bin/../../lib/gcc/pic32mx/4.8.3/../../../../pic32mx/lib\libc.a(strtol.o)
 .comment       0x00000000       0x3d c:/program files (x86)/microchip/xc32/v1.42/bin/bin/../../lib/gcc/pic32mx/4.8.3/../../../../pic32mx/lib\libc.a(sprintf_cdnopuxX.eo)
 .comment       0x00000000       0x3d c:/program files (x86)/microchip/xc32/v1.42/bin/bin/../../lib/gcc/pic32mx/4.8.3/../../../../pic32mx/lib\libc.a(vsnprintf.o)
 .comment       0x00000000       0x3d c:/program files (x86)/microchip/xc32/v1.42/bin/bin/../../lib/gcc/pic32mx/4.8.3/../../../../pic32mx/lib\libc.a(doprnt_cdnopuxX.eo)
 .comment       0x00000000       0x3d c:/program files (x86)/microchip/xc32/v1.42/bin/bin/../../lib/gcc/pic32mx/4.8.3/../../../../pic32mx/lib\libc.a(doprnt.o)
 .comment       0x00000000       0x3d c:/program files (x86)/microchip/xc32/v1.42/bin/bin/../../lib/gcc/pic32mx/4.8.3/../../../../pic32mx/lib\libc.a(_fputc_simple.o)
 .comment       0x00000000       0x3d c:/program files (x86)/microchip/xc32/v1.42/bin/bin/../../lib/gcc/pic32mx/4.8.3/../../../../pic32mx/lib\libc.a(powersf.o)
 .comment       0x00000000       0x3d c:/program files (x86)/microchip/xc32/v1.42/bin/bin/../../lib/gcc/pic32mx/4.8.3/../../../../pic32mx/lib\libc.a(_iob.o)
 .comment       0x00000000       0x3d c:/program files (x86)/microchip/xc32/v1.42/bin/bin/../../lib/gcc/pic32mx/4.8.3/../../../../pic32mx/lib\libc.a(_flsbuf_simple.o)
 .comment       0x00000154       0x4b c:/program files (x86)/microchip/xc32/v1.42/bin/bin/../../lib/gcc/pic32mx/4.8.3/../../../../pic32mx/lib\libpic32.a(sbrk.o)
                                 0x88 (size before relaxing)
 .comment       0x00000000       0x3d c:/program files (x86)/microchip/xc32/v1.42/bin/bin/../../lib/gcc/pic32mx/4.8.3/../../../../pic32mx/lib\libpic32.a(write.o)
 .comment       0x00000000       0x3d c:/program files (x86)/microchip/xc32/v1.42/bin/bin/../../lib/gcc/pic32mx/4.8.3/../../../../pic32mx/lib\libpic32.a(isinf.o)
 .comment       0x00000000       0x3d c:/program files (x86)/microchip/xc32/v1.42/bin/bin/../../lib/gcc/pic32mx/4.8.3/../../../../pic32mx/lib\libpic32.a(_mon_putc.o)
 .comment       0x00000000       0x3d c:/program files (x86)/microchip/xc32/v1.42/bin/bin/../../lib/gcc/pic32mx/4.8.3/../../../../pic32mx/lib\libpic32.a(xc32_uart.o)
 .comment       0x0000019f       0x9e c:/program files (x86)/microchip/xc32/v1.42/bin/bin/../../lib/gcc/pic32mx/4.8.3/../../../../pic32mx/lib\libe.a(_floatdisf.o)
                                 0xdb (size before relaxing)
 .comment       0x00000000       0x8b c:/program files (x86)/microchip/xc32/v1.42/bin/bin/../../lib/gcc/pic32mx/4.8.3/../../../../pic32mx/lib\libe.a(_unorddf2.o)
 .comment       0x00000000       0x3d c:/program files (x86)/microchip/xc32/v1.42/bin/bin/../../lib/gcc/pic32mx/4.8.3\libgcc.a(_umoddi3.o)

.debug
 *(.debug)

.line
 *(.line)

.debug_srcinfo
 *(.debug_srcinfo)

.debug_sfnames
 *(.debug_sfnames)

.debug_aranges  0x00000000     0x4c08
 *(.debug_aranges)
 .debug_aranges
                0x00000000       0x40 build/e16_encx24j600_spiflash/production/_ext/1495834797/drv_flash_static.o
 .debug_aranges
                0x00000040       0x28 build/e16_encx24j600_spiflash/production/_ext/1676865386/drv_spi_tasks.o
 .debug_aranges
                0x00000068       0x28 build/e16_encx24j600_spiflash/production/_ext/1676865386/drv_spi_api.o
 .debug_aranges
                0x00000090       0x28 build/e16_encx24j600_spiflash/production/_ext/1676865386/drv_spi_master_ebm_tasks.o
 .debug_aranges
                0x000000b8       0x28 build/e16_encx24j600_spiflash/production/_ext/1676865386/drv_spi_master_rm_tasks.o
 .debug_aranges
                0x000000e0      0x120 build/e16_encx24j600_spiflash/production/_ext/971131287/net_pres_enc_glue.o
 .debug_aranges
                0x00000200       0x28 build/e16_encx24j600_spiflash/production/_ext/971131287/net_pres_cert_store.o
 .debug_aranges
                0x00000228       0x50 build/e16_encx24j600_spiflash/production/_ext/360868340/sys_clk_static.o
 .debug_aranges
                0x00000278      0x108 build/e16_encx24j600_spiflash/production/_ext/394705988/sys_ports_static.o
 .debug_aranges
                0x00000380       0x28 build/e16_encx24j600_spiflash/production/_ext/689678155/system_init.o
 .debug_aranges
                0x000003a8       0x38 build/e16_encx24j600_spiflash/production/_ext/689678155/system_interrupt.o
 .debug_aranges
                0x000003e0       0x20 build/e16_encx24j600_spiflash/production/_ext/689678155/system_exceptions.o
 .debug_aranges
                0x00000400       0x20 build/e16_encx24j600_spiflash/production/_ext/689678155/system_tasks.o
 .debug_aranges
                0x00000420       0x28 build/e16_encx24j600_spiflash/production/_ext/1360937237/app.o
 .debug_aranges
                0x00000448       0x20 build/e16_encx24j600_spiflash/production/_ext/1360937237/main.o
 .debug_aranges
                0x00000468       0x28 build/e16_encx24j600_spiflash/production/_ext/1360937237/http_print.o
 .debug_aranges
                0x00000490      0x148 build/e16_encx24j600_spiflash/production/_ext/1360937237/custom_http_app.o
 .debug_aranges
                0x000005d8       0x18 build/e16_encx24j600_spiflash/production/_ext/1360937237/mpfs_img2.o
 .debug_aranges
                0x000005f0       0x68 build/e16_encx24j600_spiflash/production/_ext/728775826/bsp_sys_init.o
 .debug_aranges
                0x00000658       0x78 build/e16_encx24j600_spiflash/production/_ext/29024758/random.o
 .debug_aranges
                0x000006d0       0x28 build/e16_encx24j600_spiflash/production/_ext/29024758/arc4.o
 .debug_aranges
                0x000006f8      0x180 build/e16_encx24j600_spiflash/production/_ext/29024758/crypto.o
 .debug_aranges
                0x00000878       0x40 build/e16_encx24j600_spiflash/production/_ext/29024758/md5.o
 .debug_aranges
                0x000008b8       0x38 build/e16_encx24j600_spiflash/production/_ext/29024758/sha.o
 .debug_aranges
                0x000008f0       0x48 build/e16_encx24j600_spiflash/production/_ext/29024758/coding.o
 .debug_aranges
                0x00000938       0x28 build/e16_encx24j600_spiflash/production/_ext/29024758/error.o
 .debug_aranges
                0x00000960       0x18 build/e16_encx24j600_spiflash/production/_ext/29024758/integer.o
 .debug_aranges
                0x00000978       0x30 build/e16_encx24j600_spiflash/production/_ext/29024758/logging.o
 .debug_aranges
                0x000009a8       0x38 build/e16_encx24j600_spiflash/production/_ext/29024758/memory.o
 .debug_aranges
                0x000009e0       0x18 build/e16_encx24j600_spiflash/production/_ext/29024758/misc.o
 .debug_aranges
                0x000009f8       0x40 build/e16_encx24j600_spiflash/production/_ext/29024758/port.o
 .debug_aranges
                0x00000a38      0x118 build/e16_encx24j600_spiflash/production/_ext/29024758/ecc.o
 .debug_aranges
                0x00000b50       0x48 build/e16_encx24j600_spiflash/production/_ext/29024758/pwdbased.o
 .debug_aranges
                0x00000b98      0x318 build/e16_encx24j600_spiflash/production/_ext/29024758/tfm.o
 .debug_aranges
                0x00000eb0      0x1f0 build/e16_encx24j600_spiflash/production/_ext/29024758/asn.o
 .debug_aranges
                0x000010a0       0x78 build/e16_encx24j600_spiflash/production/_ext/29024758/des3.o
 .debug_aranges
                0x00001118       0xb0 build/e16_encx24j600_spiflash/production/_ext/29024758/rsa.o
 .debug_aranges
                0x000011c8       0x38 build/e16_encx24j600_spiflash/production/_ext/29024758/aes.o
 .debug_aranges
                0x00001200       0x38 build/e16_encx24j600_spiflash/production/_ext/29024758/sha256.o
 .debug_aranges
                0x00001238       0x18 build/e16_encx24j600_spiflash/production/_ext/29024758/sha512.o
 .debug_aranges
                0x00001250       0x40 build/e16_encx24j600_spiflash/production/_ext/29024758/hmac.o
 .debug_aranges
                0x00001290       0x70 build/e16_encx24j600_spiflash/production/_ext/29024758/hash.o
 .debug_aranges
                0x00001300       0x18 build/e16_encx24j600_spiflash/production/_ext/29024758/compress.o
 .debug_aranges
                0x00001318      0x118 build/e16_encx24j600_spiflash/production/_ext/2115314394/drv_encx24j600_spi_bus.o
 .debug_aranges
                0x00001430       0x30 build/e16_encx24j600_spiflash/production/_ext/1455582699/drv_encx24j600_closed_state.o
 .debug_aranges
                0x00001460       0x30 build/e16_encx24j600_spiflash/production/_ext/1730942135/drv_encx24j600_initialization_state.o
 .debug_aranges
                0x00001490       0x30 build/e16_encx24j600_spiflash/production/_ext/1730942135/drv_encx24j600_configure_state.o
 .debug_aranges
                0x000014c0       0x30 build/e16_encx24j600_spiflash/production/_ext/1730942135/drv_encx24j600_detect_state.o
 .debug_aranges
                0x000014f0       0x30 build/e16_encx24j600_spiflash/production/_ext/1730942135/drv_encx24j600_reset_state.o
 .debug_aranges
                0x00001520       0x30 build/e16_encx24j600_spiflash/production/_ext/1210338337/drv_encx24j600_tx_packet.o
 .debug_aranges
                0x00001550       0x38 build/e16_encx24j600_spiflash/production/_ext/1210338337/drv_encx24j600_rx_packet.o
 .debug_aranges
                0x00001588       0x30 build/e16_encx24j600_spiflash/production/_ext/1207282394/drv_encx24j600_running_state.o
 .debug_aranges
                0x000015b8       0x30 build/e16_encx24j600_spiflash/production/_ext/1207282394/drv_encx24j600_change_duplex_state.o
 .debug_aranges
                0x000015e8       0x30 build/e16_encx24j600_spiflash/production/_ext/1207282394/drv_encx24j600_check_int_state.o
 .debug_aranges
                0x00001618       0x30 build/e16_encx24j600_spiflash/production/_ext/1207282394/drv_encx24j600_check_status_state.o
 .debug_aranges
                0x00001648       0x30 build/e16_encx24j600_spiflash/production/_ext/1207282394/drv_encx24j600_check_tx_status_state.o
 .debug_aranges
                0x00001678       0x20 build/e16_encx24j600_spiflash/production/_ext/1207282394/drv_encx24j600_reset_rx_state.o
 .debug_aranges
                0x00001698       0xd8 build/e16_encx24j600_spiflash/production/_ext/772120936/drv_encx24j600_api.o
 .debug_aranges
                0x00001770       0x20 build/e16_encx24j600_spiflash/production/_ext/772120936/drv_encx24j600_main_state.o
 .debug_aranges
                0x00001790       0x28 build/e16_encx24j600_spiflash/production/_ext/772120936/drv_encx24j600_utils.o
 .debug_aranges
                0x000017b8       0x98 build/e16_encx24j600_spiflash/production/_ext/1324760662/drv_spi.o
 .debug_aranges
                0x00001850       0xd8 build/e16_encx24j600_spiflash/production/_ext/1385053818/drv_spi_sys_queue_fifo.o
 .debug_aranges
                0x00001928       0xa0 build/e16_encx24j600_spiflash/production/_ext/1112873152/drv_sst25vf016b.o
 .debug_aranges
                0x000019c8       0x58 build/e16_encx24j600_spiflash/production/_ext/1335609251/SPIFlash.o
 .debug_aranges
                0x00001a20      0x178 build/e16_encx24j600_spiflash/production/_ext/941160041/drv_tmr.o
 .debug_aranges
                0x00001b98       0xd8 build/e16_encx24j600_spiflash/production/_ext/821589181/drv_usart.o
 .debug_aranges
                0x00001c70       0x40 build/e16_encx24j600_spiflash/production/_ext/821589181/drv_usart_buffer_queue.o
 .debug_aranges
                0x00001cb0       0x28 build/e16_encx24j600_spiflash/production/_ext/821589181/drv_usart_read_write.o
 .debug_aranges
                0x00001cd8       0x28 build/e16_encx24j600_spiflash/production/_ext/1595536294/UART.o
 .debug_aranges
                0x00001d00      0x110 build/e16_encx24j600_spiflash/production/_ext/871719959/net_pres.o
 .debug_aranges
                0x00001e10       0xd0 build/e16_encx24j600_spiflash/production/_ext/1891376032/sys_command.o
 .debug_aranges
                0x00001ee0       0x50 build/e16_encx24j600_spiflash/production/_ext/598853952/sys_buffer.o
 .debug_aranges
                0x00001f30       0x38 build/e16_encx24j600_spiflash/production/_ext/598853952/sys_queue.o
 .debug_aranges
                0x00001f68       0x60 build/e16_encx24j600_spiflash/production/_ext/1434663852/sys_console.o
 .debug_aranges
                0x00001fc8       0x60 build/e16_encx24j600_spiflash/production/_ext/1434663852/sys_console_uart.o
 .debug_aranges
                0x00002028       0x60 build/e16_encx24j600_spiflash/production/_ext/2137108136/sys_debug.o
 .debug_aranges
                0x00002088       0x78 build/e16_encx24j600_spiflash/production/_ext/482662494/sys_devcon.o
 .debug_aranges
                0x00002100       0x20 build/e16_encx24j600_spiflash/production/_ext/482662494/sys_devcon_pic32mx.o
 .debug_aranges
                0x00002120      0x188 build/e16_encx24j600_spiflash/production/_ext/1750042194/sys_fs.o
 .debug_aranges
                0x000022a8       0x98 build/e16_encx24j600_spiflash/production/_ext/1750042194/sys_fs_media_manager.o
 .debug_aranges
                0x00002340       0xe0 build/e16_encx24j600_spiflash/production/_ext/614935175/mpfs.o
 .debug_aranges
                0x00002420       0x48 build/e16_encx24j600_spiflash/production/_ext/1042686532/sys_int_pic32.o
 .debug_aranges
                0x00002468       0x38 build/e16_encx24j600_spiflash/production/_ext/470001640/sys_random.o
 .debug_aranges
                0x000024a0       0x38 build/e16_encx24j600_spiflash/production/_ext/64182180/sys_reset.o
 .debug_aranges
                0x000024d8       0xd0 build/e16_encx24j600_spiflash/production/_ext/2110151058/sys_tmr.o
 .debug_aranges
                0x000025a8       0x40 build/e16_encx24j600_spiflash/production/_ext/1886247299/sys_fs_wrapper.o
 .debug_aranges
                0x000025e8       0x58 build/e16_encx24j600_spiflash/production/_ext/1886247299/helpers.o
 .debug_aranges
                0x00002640      0x218 build/e16_encx24j600_spiflash/production/_ext/1164207549/tcp.o
 .debug_aranges
                0x00002858      0x1b0 build/e16_encx24j600_spiflash/production/_ext/1164207549/udp.o
 .debug_aranges
                0x00002a08      0x110 build/e16_encx24j600_spiflash/production/_ext/1164207549/arp.o
 .debug_aranges
                0x00002b18      0x180 build/e16_encx24j600_spiflash/production/_ext/1164207549/dhcp.o
 .debug_aranges
                0x00002c98      0x140 build/e16_encx24j600_spiflash/production/_ext/1164207549/dns.o
 .debug_aranges
                0x00002dd8      0x128 build/e16_encx24j600_spiflash/production/_ext/1164207549/http.o
 .debug_aranges
                0x00002f00       0x40 build/e16_encx24j600_spiflash/production/_ext/1164207549/nbns.o
 .debug_aranges
                0x00002f40       0x90 build/e16_encx24j600_spiflash/production/_ext/1164207549/smtp.o
 .debug_aranges
                0x00002fd0       0x48 build/e16_encx24j600_spiflash/production/_ext/1164207549/tcpip_announce.o
 .debug_aranges
                0x00003018       0xc0 build/e16_encx24j600_spiflash/production/_ext/1164207549/tcpip_commands.o
 .debug_aranges
                0x000030d8       0x28 build/e16_encx24j600_spiflash/production/_ext/1164207549/hash_fnv.o
 .debug_aranges
                0x00003100       0x50 build/e16_encx24j600_spiflash/production/_ext/1164207549/oahash.o
 .debug_aranges
                0x00003150       0x48 build/e16_encx24j600_spiflash/production/_ext/1164207549/tcpip_heap_alloc.o
 .debug_aranges
                0x00003198      0x210 build/e16_encx24j600_spiflash/production/_ext/1164207549/tcpip_helpers.o
 .debug_aranges
                0x000033a8       0x20 build/e16_encx24j600_spiflash/production/_ext/1164207549/tcpip_helper_c32.o
 .debug_aranges
                0x000033c8      0x370 build/e16_encx24j600_spiflash/production/_ext/1164207549/tcpip_manager.o
 .debug_aranges
                0x00003738       0x40 build/e16_encx24j600_spiflash/production/_ext/1164207549/tcpip_notify.o
 .debug_aranges
                0x00003778       0x78 build/e16_encx24j600_spiflash/production/_ext/1164207549/tcpip_packet.o
 .debug_aranges
                0x000037f0       0x78 build/e16_encx24j600_spiflash/production/_ext/1164207549/ipv4.o
 .debug_aranges
                0x00003868       0x68 build/e16_encx24j600_spiflash/production/_ext/1164207549/sntp.o
 .debug_aranges
                0x000038d0       0x60 build/e16_encx24j600_spiflash/production/_ext/1164207549/tcpip_heap_internal.o
 .debug_aranges
                0x00003930       0x40 build/e16_encx24j600_spiflash/production/_ext/1164207549/icmp.o
 .debug_aranges
                0x00003970      0x118 build/e16_encx24j600_spiflash/production/_ext/1164207549/dhcps.o
 .debug_aranges
                0x00003a88       0x58 build/e16_encx24j600_spiflash/production/_ext/1164207549/ddns.o
 .debug_aranges
                0x00003ae0       0x18 build/e16_encx24j600_spiflash/production/_ext/1699919941/asm.o
 .debug_aranges
                0x00003af8       0x18 build/e16_encx24j600_spiflash/production/_ext/1699919941/blake2b.o
 .debug_aranges
                0x00003b10       0x18 build/e16_encx24j600_spiflash/production/_ext/1699919941/camellia.o
 .debug_aranges
                0x00003b28       0x18 build/e16_encx24j600_spiflash/production/_ext/1699919941/chacha.o
 .debug_aranges
                0x00003b40       0x18 build/e16_encx24j600_spiflash/production/_ext/1699919941/chacha20_poly1305.o
 .debug_aranges
                0x00003b58       0x18 build/e16_encx24j600_spiflash/production/_ext/1699919941/curve25519.o
 .debug_aranges
                0x00003b70       0x50 build/e16_encx24j600_spiflash/production/_ext/1699919941/dh.o
 .debug_aranges
                0x00003bc0       0x48 build/e16_encx24j600_spiflash/production/_ext/1699919941/dsa.o
 .debug_aranges
                0x00003c08       0x18 build/e16_encx24j600_spiflash/production/_ext/1699919941/ed25519.o
 .debug_aranges
                0x00003c20       0x18 build/e16_encx24j600_spiflash/production/_ext/1699919941/fe_low_mem.o
 .debug_aranges
                0x00003c38       0x18 build/e16_encx24j600_spiflash/production/_ext/1699919941/fe_operations.o
 .debug_aranges
                0x00003c50       0x18 build/e16_encx24j600_spiflash/production/_ext/1699919941/ge_low_mem.o
 .debug_aranges
                0x00003c68       0x18 build/e16_encx24j600_spiflash/production/_ext/1699919941/ge_operations.o
 .debug_aranges
                0x00003c80       0x18 build/e16_encx24j600_spiflash/production/_ext/1699919941/hc128.o
 .debug_aranges
                0x00003c98       0x18 build/e16_encx24j600_spiflash/production/_ext/1699919941/md2.o
 .debug_aranges
                0x00003cb0       0x38 build/e16_encx24j600_spiflash/production/_ext/1699919941/md4.o
 .debug_aranges
                0x00003ce8       0x18 build/e16_encx24j600_spiflash/production/_ext/1699919941/pkcs7.o
 .debug_aranges
                0x00003d00       0x18 build/e16_encx24j600_spiflash/production/_ext/1699919941/poly1305.o
 .debug_aranges
                0x00003d18       0x38 build/e16_encx24j600_spiflash/production/_ext/1699919941/rabbit.o
 .debug_aranges
                0x00003d50       0x18 build/e16_encx24j600_spiflash/production/_ext/1699919941/ripemd.o
 .debug_aranges
                0x00003d68       0x18 build/e16_encx24j600_spiflash/production/_ext/615233400/crl.o
 .debug_aranges
                0x00003d80      0x2f8 build/e16_encx24j600_spiflash/production/_ext/615233400/internal.o
 .debug_aranges
                0x00004078       0x70 build/e16_encx24j600_spiflash/production/_ext/615233400/io.o
 .debug_aranges
                0x000040e8       0x58 build/e16_encx24j600_spiflash/production/_ext/615233400/keys.o
 .debug_aranges
                0x00004140       0x18 build/e16_encx24j600_spiflash/production/_ext/615233400/ocsp.o
 .debug_aranges
                0x00004158       0x18 build/e16_encx24j600_spiflash/production/_ext/615233400/sniffer.o
 .debug_aranges
                0x00004170      0x420 build/e16_encx24j600_spiflash/production/_ext/615233400/ssl.o
 .debug_aranges
                0x00004590       0xc8 build/e16_encx24j600_spiflash/production/_ext/615233400/tls.o
 .debug_aranges
                0x00004658       0x18 build/e16_encx24j600_spiflash/production/_ext/29024758/asm.o
 .debug_aranges
                0x00004670       0x20 c:/program files (x86)/microchip/xc32/v1.42/bin/bin/../../lib/gcc/pic32mx/4.8.3\libgcc.a(_udivdi3.o)
 .debug_aranges
                0x00004690       0x20 c:/program files (x86)/microchip/xc32/v1.42/bin/bin/../../lib/gcc/pic32mx/4.8.3\libgcc.a(floatunsisf.o)
 .debug_aranges
                0x000046b0       0x20 c:/program files (x86)/microchip/xc32/v1.42/bin/bin/../../lib/gcc/pic32mx/4.8.3/../../../../pic32mx/lib\libpic32.a(default-bootstrap-exception-handler.o)
 .debug_aranges
                0x000046d0       0x20 c:/program files (x86)/microchip/xc32/v1.42/bin/bin/../../lib/gcc/pic32mx/4.8.3/../../../../pic32mx/lib\libpic32.a(default-on-reset.o)
 .debug_aranges
                0x000046f0       0x20 c:/program files (x86)/microchip/xc32/v1.42/bin/bin/../../lib/gcc/pic32mx/4.8.3/../../../../pic32mx/lib\libpic32.a(default-on-bootstrap.o)
 .debug_aranges
                0x00004710       0x20 c:/program files (x86)/microchip/xc32/v1.42/bin/bin/../../lib/gcc/pic32mx/4.8.3/../../../../pic32mx/lib\libpic32.a(defaultinterrupt.o)
 .debug_aranges
                0x00004730       0x20 c:/program files (x86)/microchip/xc32/v1.42/bin/bin/../../lib/gcc/pic32mx/4.8.3/../../../../pic32mx/lib\libm.a(w_logf.o)
 .debug_aranges
                0x00004750       0x20 c:/program files (x86)/microchip/xc32/v1.42/bin/bin/../../lib/gcc/pic32mx/4.8.3/../../../../pic32mx/lib\libm.a(w_powf.o)
 .debug_aranges
                0x00004770       0x20 c:/program files (x86)/microchip/xc32/v1.42/bin/bin/../../lib/gcc/pic32mx/4.8.3/../../../../pic32mx/lib\libc.a(atoi.o)
 .debug_aranges
                0x00004790       0x20 c:/program files (x86)/microchip/xc32/v1.42/bin/bin/../../lib/gcc/pic32mx/4.8.3/../../../../pic32mx/lib\libc.a(atol.o)
 .debug_aranges
                0x000047b0       0x20 c:/program files (x86)/microchip/xc32/v1.42/bin/bin/../../lib/gcc/pic32mx/4.8.3/../../../../pic32mx/lib\libc.a(calloc.o)
 .debug_aranges
                0x000047d0       0x40 c:/program files (x86)/microchip/xc32/v1.42/bin/bin/../../lib/gcc/pic32mx/4.8.3/../../../../pic32mx/lib\libc.a(ctime.o)
 .debug_aranges
                0x00004810       0xa0 c:/program files (x86)/microchip/xc32/v1.42/bin/bin/../../lib/gcc/pic32mx/4.8.3/../../../../pic32mx/lib\libc.a(ctypef.o)
 .debug_aranges
                0x000048b0       0x30 c:/program files (x86)/microchip/xc32/v1.42/bin/bin/../../lib/gcc/pic32mx/4.8.3/../../../../pic32mx/lib\libc.a(malloc.o)
 .debug_aranges
                0x000048e0       0x20 c:/program files (x86)/microchip/xc32/v1.42/bin/bin/../../lib/gcc/pic32mx/4.8.3/../../../../pic32mx/lib\libc.a(memmove.o)
 .debug_aranges
                0x00004900       0x28 c:/program files (x86)/microchip/xc32/v1.42/bin/bin/../../lib/gcc/pic32mx/4.8.3/../../../../pic32mx/lib\libc.a(rand.o)
 .debug_aranges
                0x00004928       0x20 c:/program files (x86)/microchip/xc32/v1.42/bin/bin/../../lib/gcc/pic32mx/4.8.3/../../../../pic32mx/lib\libc.a(strcat.o)
 .debug_aranges
                0x00004948       0x20 c:/program files (x86)/microchip/xc32/v1.42/bin/bin/../../lib/gcc/pic32mx/4.8.3/../../../../pic32mx/lib\libc.a(strchr.o)
 .debug_aranges
                0x00004968       0x20 c:/program files (x86)/microchip/xc32/v1.42/bin/bin/../../lib/gcc/pic32mx/4.8.3/../../../../pic32mx/lib\libc.a(strncat.o)
 .debug_aranges
                0x00004988       0x20 c:/program files (x86)/microchip/xc32/v1.42/bin/bin/../../lib/gcc/pic32mx/4.8.3/../../../../pic32mx/lib\libc.a(strncmp.o)
 .debug_aranges
                0x000049a8       0x20 c:/program files (x86)/microchip/xc32/v1.42/bin/bin/../../lib/gcc/pic32mx/4.8.3/../../../../pic32mx/lib\libc.a(strncpy.o)
 .debug_aranges
                0x000049c8       0x20 c:/program files (x86)/microchip/xc32/v1.42/bin/bin/../../lib/gcc/pic32mx/4.8.3/../../../../pic32mx/lib\libc.a(strstr.o)
 .debug_aranges
                0x000049e8       0x28 c:/program files (x86)/microchip/xc32/v1.42/bin/bin/../../lib/gcc/pic32mx/4.8.3/../../../../pic32mx/lib\libc.a(strtol.o)
 .debug_aranges
                0x00004a10       0x20 c:/program files (x86)/microchip/xc32/v1.42/bin/bin/../../lib/gcc/pic32mx/4.8.3/../../../../pic32mx/lib\libc.a(sprintf_cdnopuxX.eo)
 .debug_aranges
                0x00004a30       0x20 c:/program files (x86)/microchip/xc32/v1.42/bin/bin/../../lib/gcc/pic32mx/4.8.3/../../../../pic32mx/lib\libc.a(vsnprintf.o)
 .debug_aranges
                0x00004a50       0x20 c:/program files (x86)/microchip/xc32/v1.42/bin/bin/../../lib/gcc/pic32mx/4.8.3/../../../../pic32mx/lib\libc.a(doprnt_cdnopuxX.eo)
 .debug_aranges
                0x00004a70       0x30 c:/program files (x86)/microchip/xc32/v1.42/bin/bin/../../lib/gcc/pic32mx/4.8.3/../../../../pic32mx/lib\libc.a(doprnt.o)
 .debug_aranges
                0x00004aa0       0x20 c:/program files (x86)/microchip/xc32/v1.42/bin/bin/../../lib/gcc/pic32mx/4.8.3/../../../../pic32mx/lib\libc.a(_fputc_simple.o)
 .debug_aranges
                0x00004ac0       0x20 c:/program files (x86)/microchip/xc32/v1.42/bin/bin/../../lib/gcc/pic32mx/4.8.3/../../../../pic32mx/lib\libc.a(_flsbuf_simple.o)
 .debug_aranges
                0x00004ae0       0x40 c:/program files (x86)/microchip/xc32/v1.42/bin/bin/../../lib/gcc/pic32mx/4.8.3/../../../../pic32mx/lib\libpic32.a(sbrk.o)
 .debug_aranges
                0x00004b20       0x20 c:/program files (x86)/microchip/xc32/v1.42/bin/bin/../../lib/gcc/pic32mx/4.8.3/../../../../pic32mx/lib\libpic32.a(write.o)
 .debug_aranges
                0x00004b40       0x48 c:/program files (x86)/microchip/xc32/v1.42/bin/bin/../../lib/gcc/pic32mx/4.8.3/../../../../pic32mx/lib\libpic32.a(isinf.o)
 .debug_aranges
                0x00004b88       0x20 c:/program files (x86)/microchip/xc32/v1.42/bin/bin/../../lib/gcc/pic32mx/4.8.3/../../../../pic32mx/lib\libpic32.a(_mon_putc.o)
 .debug_aranges
                0x00004ba8       0x20 c:/program files (x86)/microchip/xc32/v1.42/bin/bin/../../lib/gcc/pic32mx/4.8.3/../../../../pic32mx/lib\libe.a(_floatdisf.o)
 .debug_aranges
                0x00004bc8       0x20 c:/program files (x86)/microchip/xc32/v1.42/bin/bin/../../lib/gcc/pic32mx/4.8.3/../../../../pic32mx/lib\libe.a(_unorddf2.o)
 .debug_aranges
                0x00004be8       0x20 c:/program files (x86)/microchip/xc32/v1.42/bin/bin/../../lib/gcc/pic32mx/4.8.3\libgcc.a(_umoddi3.o)

.debug_pubnames
 *(.debug_pubnames)

.debug_info     0x00000000   0x1e610b
 *(.debug_info .gnu.linkonce.wi.*)
 .debug_info    0x00000000     0x101f build/e16_encx24j600_spiflash/production/_ext/1495834797/drv_flash_static.o
 .debug_info    0x0000101f     0x34a0 build/e16_encx24j600_spiflash/production/_ext/1676865386/drv_spi_tasks.o
 .debug_info    0x000044bf     0x56c0 build/e16_encx24j600_spiflash/production/_ext/1676865386/drv_spi_api.o
 .debug_info    0x00009b7f     0x2893 build/e16_encx24j600_spiflash/production/_ext/1676865386/drv_spi_master_ebm_tasks.o
 .debug_info    0x0000c412     0x2101 build/e16_encx24j600_spiflash/production/_ext/1676865386/drv_spi_master_rm_tasks.o
 .debug_info    0x0000e513     0x381d build/e16_encx24j600_spiflash/production/_ext/971131287/net_pres_enc_glue.o
 .debug_info    0x00011d30      0x84e build/e16_encx24j600_spiflash/production/_ext/971131287/net_pres_cert_store.o
 .debug_info    0x0001257e     0x1a56 build/e16_encx24j600_spiflash/production/_ext/360868340/sys_clk_static.o
 .debug_info    0x00013fd4     0x3b11 build/e16_encx24j600_spiflash/production/_ext/394705988/sys_ports_static.o
 .debug_info    0x00017ae5     0x9431 build/e16_encx24j600_spiflash/production/_ext/689678155/system_init.o
 .debug_info    0x00020f16     0x100b build/e16_encx24j600_spiflash/production/_ext/689678155/system_interrupt.o
 .debug_info    0x00021f21     0x1278 build/e16_encx24j600_spiflash/production/_ext/689678155/system_exceptions.o
 .debug_info    0x00023199      0xfe0 build/e16_encx24j600_spiflash/production/_ext/689678155/system_tasks.o
 .debug_info    0x00024179     0x1acc build/e16_encx24j600_spiflash/production/_ext/1360937237/app.o
 .debug_info    0x00025c45      0x1c2 build/e16_encx24j600_spiflash/production/_ext/1360937237/main.o
 .debug_info    0x00025e07     0x1127 build/e16_encx24j600_spiflash/production/_ext/1360937237/http_print.o
 .debug_info    0x00026f2e     0x672f build/e16_encx24j600_spiflash/production/_ext/1360937237/custom_http_app.o
 .debug_info    0x0002d65d      0x35a build/e16_encx24j600_spiflash/production/_ext/1360937237/mpfs_img2.o
 .debug_info    0x0002d9b7     0x1609 build/e16_encx24j600_spiflash/production/_ext/728775826/bsp_sys_init.o
 .debug_info    0x0002efc0     0x2aec build/e16_encx24j600_spiflash/production/_ext/29024758/random.o
 .debug_info    0x00031aac      0x8cf build/e16_encx24j600_spiflash/production/_ext/29024758/arc4.o
 .debug_info    0x0003237b     0x3894 build/e16_encx24j600_spiflash/production/_ext/29024758/crypto.o
 .debug_info    0x00035c0f     0x13eb build/e16_encx24j600_spiflash/production/_ext/29024758/md5.o
 .debug_info    0x00036ffa     0x2bc6 build/e16_encx24j600_spiflash/production/_ext/29024758/sha.o
 .debug_info    0x00039bc0     0x1875 build/e16_encx24j600_spiflash/production/_ext/29024758/coding.o
 .debug_info    0x0003b435      0xebe build/e16_encx24j600_spiflash/production/_ext/29024758/error.o
 .debug_info    0x0003c2f3      0x66b build/e16_encx24j600_spiflash/production/_ext/29024758/integer.o
 .debug_info    0x0003c95e      0xe7a build/e16_encx24j600_spiflash/production/_ext/29024758/logging.o
 .debug_info    0x0003d7d8     0x1257 build/e16_encx24j600_spiflash/production/_ext/29024758/memory.o
 .debug_info    0x0003ea2f      0x668 build/e16_encx24j600_spiflash/production/_ext/29024758/misc.o
 .debug_info    0x0003f097      0x77c build/e16_encx24j600_spiflash/production/_ext/29024758/port.o
 .debug_info    0x0003f813     0x663b build/e16_encx24j600_spiflash/production/_ext/29024758/ecc.o
 .debug_info    0x00045e4e     0x299a build/e16_encx24j600_spiflash/production/_ext/29024758/pwdbased.o
 .debug_info    0x000487e8     0x555e build/e16_encx24j600_spiflash/production/_ext/29024758/tfm.o
 .debug_info    0x0004dd46     0xb03d build/e16_encx24j600_spiflash/production/_ext/29024758/asn.o
 .debug_info    0x00058d83     0x1c42 build/e16_encx24j600_spiflash/production/_ext/29024758/des3.o
 .debug_info    0x0005a9c5     0x3fff build/e16_encx24j600_spiflash/production/_ext/29024758/rsa.o
 .debug_info    0x0005e9c4     0x1d8a build/e16_encx24j600_spiflash/production/_ext/29024758/aes.o
 .debug_info    0x0006074e     0x16a6 build/e16_encx24j600_spiflash/production/_ext/29024758/sha256.o
 .debug_info    0x00061df4      0x66a build/e16_encx24j600_spiflash/production/_ext/29024758/sha512.o
 .debug_info    0x0006245e     0x18da build/e16_encx24j600_spiflash/production/_ext/29024758/hmac.o
 .debug_info    0x00063d38     0x17a0 build/e16_encx24j600_spiflash/production/_ext/29024758/hash.o
 .debug_info    0x000654d8      0x66c build/e16_encx24j600_spiflash/production/_ext/29024758/compress.o
 .debug_info    0x00065b44     0x9e40 build/e16_encx24j600_spiflash/production/_ext/2115314394/drv_encx24j600_spi_bus.o
 .debug_info    0x0006f984     0x711f build/e16_encx24j600_spiflash/production/_ext/1455582699/drv_encx24j600_closed_state.o
 .debug_info    0x00076aa3     0x73ee build/e16_encx24j600_spiflash/production/_ext/1730942135/drv_encx24j600_initialization_state.o
 .debug_info    0x0007de91     0x77af build/e16_encx24j600_spiflash/production/_ext/1730942135/drv_encx24j600_configure_state.o
 .debug_info    0x00085640     0x7266 build/e16_encx24j600_spiflash/production/_ext/1730942135/drv_encx24j600_detect_state.o
 .debug_info    0x0008c8a6     0x7237 build/e16_encx24j600_spiflash/production/_ext/1730942135/drv_encx24j600_reset_state.o
 .debug_info    0x00093add     0x7886 build/e16_encx24j600_spiflash/production/_ext/1210338337/drv_encx24j600_tx_packet.o
 .debug_info    0x0009b363     0x75df build/e16_encx24j600_spiflash/production/_ext/1210338337/drv_encx24j600_rx_packet.o
 .debug_info    0x000a2942     0x7800 build/e16_encx24j600_spiflash/production/_ext/1207282394/drv_encx24j600_running_state.o
 .debug_info    0x000aa142     0x7428 build/e16_encx24j600_spiflash/production/_ext/1207282394/drv_encx24j600_change_duplex_state.o
 .debug_info    0x000b156a     0x74a6 build/e16_encx24j600_spiflash/production/_ext/1207282394/drv_encx24j600_check_int_state.o
 .debug_info    0x000b8a10     0x74cc build/e16_encx24j600_spiflash/production/_ext/1207282394/drv_encx24j600_check_status_state.o
 .debug_info    0x000bfedc     0x74ee build/e16_encx24j600_spiflash/production/_ext/1207282394/drv_encx24j600_check_tx_status_state.o
 .debug_info    0x000c73ca     0x778e build/e16_encx24j600_spiflash/production/_ext/1207282394/drv_encx24j600_reset_rx_state.o
 .debug_info    0x000ceb58     0x9554 build/e16_encx24j600_spiflash/production/_ext/772120936/drv_encx24j600_api.o
 .debug_info    0x000d80ac     0x72c0 build/e16_encx24j600_spiflash/production/_ext/772120936/drv_encx24j600_main_state.o
 .debug_info    0x000df36c     0x71c8 build/e16_encx24j600_spiflash/production/_ext/772120936/drv_encx24j600_utils.o
 .debug_info    0x000e6534     0x50ca build/e16_encx24j600_spiflash/production/_ext/1324760662/drv_spi.o
 .debug_info    0x000eb5fe     0x1d7e build/e16_encx24j600_spiflash/production/_ext/1385053818/drv_spi_sys_queue_fifo.o
 .debug_info    0x000ed37c     0x3393 build/e16_encx24j600_spiflash/production/_ext/1112873152/drv_sst25vf016b.o
 .debug_info    0x000f070f     0x13f4 build/e16_encx24j600_spiflash/production/_ext/1335609251/SPIFlash.o
 .debug_info    0x000f1b03     0x6c4b build/e16_encx24j600_spiflash/production/_ext/941160041/drv_tmr.o
 .debug_info    0x000f874e     0x7d1d build/e16_encx24j600_spiflash/production/_ext/821589181/drv_usart.o
 .debug_info    0x0010046b     0x30be build/e16_encx24j600_spiflash/production/_ext/821589181/drv_usart_buffer_queue.o
 .debug_info    0x00103529     0x32e3 build/e16_encx24j600_spiflash/production/_ext/821589181/drv_usart_read_write.o
 .debug_info    0x0010680c      0x8fa build/e16_encx24j600_spiflash/production/_ext/1595536294/UART.o
 .debug_info    0x00107106     0x2fd3 build/e16_encx24j600_spiflash/production/_ext/871719959/net_pres.o
 .debug_info    0x0010a0d9     0x3366 build/e16_encx24j600_spiflash/production/_ext/1891376032/sys_command.o
 .debug_info    0x0010d43f      0x555 build/e16_encx24j600_spiflash/production/_ext/598853952/sys_buffer.o
 .debug_info    0x0010d994      0x3dd build/e16_encx24j600_spiflash/production/_ext/598853952/sys_queue.o
 .debug_info    0x0010dd71      0xf81 build/e16_encx24j600_spiflash/production/_ext/1434663852/sys_console.o
 .debug_info    0x0010ecf2     0x1d80 build/e16_encx24j600_spiflash/production/_ext/1434663852/sys_console_uart.o
 .debug_info    0x00110a72      0xc35 build/e16_encx24j600_spiflash/production/_ext/2137108136/sys_debug.o
 .debug_info    0x001116a7     0x149f build/e16_encx24j600_spiflash/production/_ext/482662494/sys_devcon.o
 .debug_info    0x00112b46      0xf61 build/e16_encx24j600_spiflash/production/_ext/482662494/sys_devcon_pic32mx.o
 .debug_info    0x00113aa7     0x3da7 build/e16_encx24j600_spiflash/production/_ext/1750042194/sys_fs.o
 .debug_info    0x0011784e     0x2637 build/e16_encx24j600_spiflash/production/_ext/1750042194/sys_fs_media_manager.o
 .debug_info    0x00119e85     0x1a72 build/e16_encx24j600_spiflash/production/_ext/614935175/mpfs.o
 .debug_info    0x0011b8f7     0x17c8 build/e16_encx24j600_spiflash/production/_ext/1042686532/sys_int_pic32.o
 .debug_info    0x0011d0bf      0x8f7 build/e16_encx24j600_spiflash/production/_ext/470001640/sys_random.o
 .debug_info    0x0011d9b6      0xa87 build/e16_encx24j600_spiflash/production/_ext/64182180/sys_reset.o
 .debug_info    0x0011e43d     0x27d0 build/e16_encx24j600_spiflash/production/_ext/2110151058/sys_tmr.o
 .debug_info    0x00120c0d      0xa60 build/e16_encx24j600_spiflash/production/_ext/1886247299/sys_fs_wrapper.o
 .debug_info    0x0012166d      0x5bd build/e16_encx24j600_spiflash/production/_ext/1886247299/helpers.o
 .debug_info    0x00121c2a     0xa4be build/e16_encx24j600_spiflash/production/_ext/1164207549/tcp.o
 .debug_info    0x0012c0e8     0x86e6 build/e16_encx24j600_spiflash/production/_ext/1164207549/udp.o
 .debug_info    0x001347ce     0x6eb3 build/e16_encx24j600_spiflash/production/_ext/1164207549/arp.o
 .debug_info    0x0013b681     0x9563 build/e16_encx24j600_spiflash/production/_ext/1164207549/dhcp.o
 .debug_info    0x00144be4     0x7a1b build/e16_encx24j600_spiflash/production/_ext/1164207549/dns.o
 .debug_info    0x0014c5ff     0x7d1a build/e16_encx24j600_spiflash/production/_ext/1164207549/http.o
 .debug_info    0x00154319     0x42c1 build/e16_encx24j600_spiflash/production/_ext/1164207549/nbns.o
 .debug_info    0x001585da     0x586f build/e16_encx24j600_spiflash/production/_ext/1164207549/smtp.o
 .debug_info    0x0015de49     0x4740 build/e16_encx24j600_spiflash/production/_ext/1164207549/tcpip_announce.o
 .debug_info    0x00162589     0x8d9c build/e16_encx24j600_spiflash/production/_ext/1164207549/tcpip_commands.o
 .debug_info    0x0016b325      0x28d build/e16_encx24j600_spiflash/production/_ext/1164207549/hash_fnv.o
 .debug_info    0x0016b5b2      0x8a7 build/e16_encx24j600_spiflash/production/_ext/1164207549/oahash.o
 .debug_info    0x0016be59     0x169f build/e16_encx24j600_spiflash/production/_ext/1164207549/tcpip_heap_alloc.o
 .debug_info    0x0016d4f8     0x54c3 build/e16_encx24j600_spiflash/production/_ext/1164207549/tcpip_helpers.o
 .debug_info    0x001729bb       0xbc build/e16_encx24j600_spiflash/production/_ext/1164207549/tcpip_helper_c32.o
 .debug_info    0x00172a77     0xb0e5 build/e16_encx24j600_spiflash/production/_ext/1164207549/tcpip_manager.o
 .debug_info    0x0017db5c     0x15fc build/e16_encx24j600_spiflash/production/_ext/1164207549/tcpip_notify.o
 .debug_info    0x0017f158     0x252f build/e16_encx24j600_spiflash/production/_ext/1164207549/tcpip_packet.o
 .debug_info    0x00181687     0x57f2 build/e16_encx24j600_spiflash/production/_ext/1164207549/ipv4.o
 .debug_info    0x00186e79     0x4a15 build/e16_encx24j600_spiflash/production/_ext/1164207549/sntp.o
 .debug_info    0x0018b88e     0x23e2 build/e16_encx24j600_spiflash/production/_ext/1164207549/tcpip_heap_internal.o
 .debug_info    0x0018dc70     0x40c4 build/e16_encx24j600_spiflash/production/_ext/1164207549/icmp.o
 .debug_info    0x00191d34     0x853a build/e16_encx24j600_spiflash/production/_ext/1164207549/dhcps.o
 .debug_info    0x0019a26e     0x4809 build/e16_encx24j600_spiflash/production/_ext/1164207549/ddns.o
 .debug_info    0x0019ea77      0x67a build/e16_encx24j600_spiflash/production/_ext/1699919941/asm.o
 .debug_info    0x0019f0f1      0x67e build/e16_encx24j600_spiflash/production/_ext/1699919941/blake2b.o
 .debug_info    0x0019f76f      0x67f build/e16_encx24j600_spiflash/production/_ext/1699919941/camellia.o
 .debug_info    0x0019fdee      0x67d build/e16_encx24j600_spiflash/production/_ext/1699919941/chacha.o
 .debug_info    0x001a046b      0x688 build/e16_encx24j600_spiflash/production/_ext/1699919941/chacha20_poly1305.o
 .debug_info    0x001a0af3      0x681 build/e16_encx24j600_spiflash/production/_ext/1699919941/curve25519.o
 .debug_info    0x001a1174     0x183a build/e16_encx24j600_spiflash/production/_ext/1699919941/dh.o
 .debug_info    0x001a29ae     0x2a12 build/e16_encx24j600_spiflash/production/_ext/1699919941/dsa.o
 .debug_info    0x001a53c0      0x67e build/e16_encx24j600_spiflash/production/_ext/1699919941/ed25519.o
 .debug_info    0x001a5a3e      0x681 build/e16_encx24j600_spiflash/production/_ext/1699919941/fe_low_mem.o
 .debug_info    0x001a60bf      0x684 build/e16_encx24j600_spiflash/production/_ext/1699919941/fe_operations.o
 .debug_info    0x001a6743      0x681 build/e16_encx24j600_spiflash/production/_ext/1699919941/ge_low_mem.o
 .debug_info    0x001a6dc4      0x684 build/e16_encx24j600_spiflash/production/_ext/1699919941/ge_operations.o
 .debug_info    0x001a7448      0x67c build/e16_encx24j600_spiflash/production/_ext/1699919941/hc128.o
 .debug_info    0x001a7ac4      0x67a build/e16_encx24j600_spiflash/production/_ext/1699919941/md2.o
 .debug_info    0x001a813e     0x1108 build/e16_encx24j600_spiflash/production/_ext/1699919941/md4.o
 .debug_info    0x001a9246      0x67c build/e16_encx24j600_spiflash/production/_ext/1699919941/pkcs7.o
 .debug_info    0x001a98c2      0x67f build/e16_encx24j600_spiflash/production/_ext/1699919941/poly1305.o
 .debug_info    0x001a9f41     0x1def build/e16_encx24j600_spiflash/production/_ext/1699919941/rabbit.o
 .debug_info    0x001abd30      0x67d build/e16_encx24j600_spiflash/production/_ext/1699919941/ripemd.o
 .debug_info    0x001ac3ad      0x670 build/e16_encx24j600_spiflash/production/_ext/615233400/crl.o
 .debug_info    0x001aca1d    0x159e8 build/e16_encx24j600_spiflash/production/_ext/615233400/internal.o
 .debug_info    0x001c2405     0x3946 build/e16_encx24j600_spiflash/production/_ext/615233400/io.o
 .debug_info    0x001c5d4b     0x77fc build/e16_encx24j600_spiflash/production/_ext/615233400/keys.o
 .debug_info    0x001cd547      0x671 build/e16_encx24j600_spiflash/production/_ext/615233400/ocsp.o
 .debug_info    0x001cdbb8      0x674 build/e16_encx24j600_spiflash/production/_ext/615233400/sniffer.o
 .debug_info    0x001ce22c     0xd6bf build/e16_encx24j600_spiflash/production/_ext/615233400/ssl.o
 .debug_info    0x001db8eb     0x73d7 build/e16_encx24j600_spiflash/production/_ext/615233400/tls.o
 .debug_info    0x001e2cc2      0x667 build/e16_encx24j600_spiflash/production/_ext/29024758/asm.o
 .debug_info    0x001e3329      0x773 c:/program files (x86)/microchip/xc32/v1.42/bin/bin/../../lib/gcc/pic32mx/4.8.3\libgcc.a(_udivdi3.o)
 .debug_info    0x001e3a9c      0x131 c:/program files (x86)/microchip/xc32/v1.42/bin/bin/../../lib/gcc/pic32mx/4.8.3\libgcc.a(floatunsisf.o)
 .debug_info    0x001e3bcd       0xf5 c:/program files (x86)/microchip/xc32/v1.42/bin/bin/../../lib/gcc/pic32mx/4.8.3/../../../../pic32mx/lib\libpic32.a(default-bootstrap-exception-handler.o)
 .debug_info    0x001e3cc2       0xcf c:/program files (x86)/microchip/xc32/v1.42/bin/bin/../../lib/gcc/pic32mx/4.8.3/../../../../pic32mx/lib\libpic32.a(default-on-reset.o)
 .debug_info    0x001e3d91       0xd7 c:/program files (x86)/microchip/xc32/v1.42/bin/bin/../../lib/gcc/pic32mx/4.8.3/../../../../pic32mx/lib\libpic32.a(default-on-bootstrap.o)
 .debug_info    0x001e3e68       0xe9 c:/program files (x86)/microchip/xc32/v1.42/bin/bin/../../lib/gcc/pic32mx/4.8.3/../../../../pic32mx/lib\libpic32.a(defaultinterrupt.o)
 .debug_info    0x001e3f51       0xbd c:/program files (x86)/microchip/xc32/v1.42/bin/bin/../../lib/gcc/pic32mx/4.8.3/../../../../pic32mx/lib\libm.a(w_logf.o)
 .debug_info    0x001e400e       0xbd c:/program files (x86)/microchip/xc32/v1.42/bin/bin/../../lib/gcc/pic32mx/4.8.3/../../../../pic32mx/lib\libm.a(w_powf.o)
 .debug_info    0x001e40cb       0xc4 c:/program files (x86)/microchip/xc32/v1.42/bin/bin/../../lib/gcc/pic32mx/4.8.3/../../../../pic32mx/lib\libc.a(atoi.o)
 .debug_info    0x001e418f       0xc4 c:/program files (x86)/microchip/xc32/v1.42/bin/bin/../../lib/gcc/pic32mx/4.8.3/../../../../pic32mx/lib\libc.a(atol.o)
 .debug_info    0x001e4253       0xc8 c:/program files (x86)/microchip/xc32/v1.42/bin/bin/../../lib/gcc/pic32mx/4.8.3/../../../../pic32mx/lib\libc.a(calloc.o)
 .debug_info    0x001e431b      0x136 c:/program files (x86)/microchip/xc32/v1.42/bin/bin/../../lib/gcc/pic32mx/4.8.3/../../../../pic32mx/lib\libc.a(ctime.o)
 .debug_info    0x001e4451      0x23c c:/program files (x86)/microchip/xc32/v1.42/bin/bin/../../lib/gcc/pic32mx/4.8.3/../../../../pic32mx/lib\libc.a(ctypef.o)
 .debug_info    0x001e468d       0xf9 c:/program files (x86)/microchip/xc32/v1.42/bin/bin/../../lib/gcc/pic32mx/4.8.3/../../../../pic32mx/lib\libc.a(malloc.o)
 .debug_info    0x001e4786       0xca c:/program files (x86)/microchip/xc32/v1.42/bin/bin/../../lib/gcc/pic32mx/4.8.3/../../../../pic32mx/lib\libc.a(memmove.o)
 .debug_info    0x001e4850       0xdf c:/program files (x86)/microchip/xc32/v1.42/bin/bin/../../lib/gcc/pic32mx/4.8.3/../../../../pic32mx/lib\libc.a(rand.o)
 .debug_info    0x001e492f       0xc8 c:/program files (x86)/microchip/xc32/v1.42/bin/bin/../../lib/gcc/pic32mx/4.8.3/../../../../pic32mx/lib\libc.a(strcat.o)
 .debug_info    0x001e49f7       0xc8 c:/program files (x86)/microchip/xc32/v1.42/bin/bin/../../lib/gcc/pic32mx/4.8.3/../../../../pic32mx/lib\libc.a(strchr.o)
 .debug_info    0x001e4abf       0xca c:/program files (x86)/microchip/xc32/v1.42/bin/bin/../../lib/gcc/pic32mx/4.8.3/../../../../pic32mx/lib\libc.a(strncat.o)
 .debug_info    0x001e4b89       0xca c:/program files (x86)/microchip/xc32/v1.42/bin/bin/../../lib/gcc/pic32mx/4.8.3/../../../../pic32mx/lib\libc.a(strncmp.o)
 .debug_info    0x001e4c53       0xca c:/program files (x86)/microchip/xc32/v1.42/bin/bin/../../lib/gcc/pic32mx/4.8.3/../../../../pic32mx/lib\libc.a(strncpy.o)
 .debug_info    0x001e4d1d       0xc8 c:/program files (x86)/microchip/xc32/v1.42/bin/bin/../../lib/gcc/pic32mx/4.8.3/../../../../pic32mx/lib\libc.a(strstr.o)
 .debug_info    0x001e4de5       0xdf c:/program files (x86)/microchip/xc32/v1.42/bin/bin/../../lib/gcc/pic32mx/4.8.3/../../../../pic32mx/lib\libc.a(strtol.o)
 .debug_info    0x001e4ec4       0xd4 c:/program files (x86)/microchip/xc32/v1.42/bin/bin/../../lib/gcc/pic32mx/4.8.3/../../../../pic32mx/lib\libc.a(sprintf_cdnopuxX.eo)
 .debug_info    0x001e4f98       0xce c:/program files (x86)/microchip/xc32/v1.42/bin/bin/../../lib/gcc/pic32mx/4.8.3/../../../../pic32mx/lib\libc.a(vsnprintf.o)
 .debug_info    0x001e5066       0xd5 c:/program files (x86)/microchip/xc32/v1.42/bin/bin/../../lib/gcc/pic32mx/4.8.3/../../../../pic32mx/lib\libc.a(doprnt_cdnopuxX.eo)
 .debug_info    0x001e513b      0x102 c:/program files (x86)/microchip/xc32/v1.42/bin/bin/../../lib/gcc/pic32mx/4.8.3/../../../../pic32mx/lib\libc.a(doprnt.o)
 .debug_info    0x001e523d       0xc6 c:/program files (x86)/microchip/xc32/v1.42/bin/bin/../../lib/gcc/pic32mx/4.8.3/../../../../pic32mx/lib\libc.a(_fputc_simple.o)
 .debug_info    0x001e5303       0xc9 c:/program files (x86)/microchip/xc32/v1.42/bin/bin/../../lib/gcc/pic32mx/4.8.3/../../../../pic32mx/lib\libc.a(_flsbuf_simple.o)
 .debug_info    0x001e53cc      0x12c c:/program files (x86)/microchip/xc32/v1.42/bin/bin/../../lib/gcc/pic32mx/4.8.3/../../../../pic32mx/lib\libpic32.a(sbrk.o)
 .debug_info    0x001e54f8       0xc0 c:/program files (x86)/microchip/xc32/v1.42/bin/bin/../../lib/gcc/pic32mx/4.8.3/../../../../pic32mx/lib\libpic32.a(write.o)
 .debug_info    0x001e55b8      0x12d c:/program files (x86)/microchip/xc32/v1.42/bin/bin/../../lib/gcc/pic32mx/4.8.3/../../../../pic32mx/lib\libpic32.a(isinf.o)
 .debug_info    0x001e56e5       0xc8 c:/program files (x86)/microchip/xc32/v1.42/bin/bin/../../lib/gcc/pic32mx/4.8.3/../../../../pic32mx/lib\libpic32.a(_mon_putc.o)
 .debug_info    0x001e57ad       0xde c:/program files (x86)/microchip/xc32/v1.42/bin/bin/../../lib/gcc/pic32mx/4.8.3/../../../../pic32mx/lib\libe.a(_floatdisf.o)
 .debug_info    0x001e588b       0xd0 c:/program files (x86)/microchip/xc32/v1.42/bin/bin/../../lib/gcc/pic32mx/4.8.3/../../../../pic32mx/lib\libe.a(_unorddf2.o)
 .debug_info    0x001e595b      0x7b0 c:/program files (x86)/microchip/xc32/v1.42/bin/bin/../../lib/gcc/pic32mx/4.8.3\libgcc.a(_umoddi3.o)

.debug_abbrev   0x00000000    0x16142
 *(.debug_abbrev)
 .debug_abbrev  0x00000000      0x1a7 build/e16_encx24j600_spiflash/production/_ext/1495834797/drv_flash_static.o
 .debug_abbrev  0x000001a7      0x2ce build/e16_encx24j600_spiflash/production/_ext/1676865386/drv_spi_tasks.o
 .debug_abbrev  0x00000475      0x2d1 build/e16_encx24j600_spiflash/production/_ext/1676865386/drv_spi_api.o
 .debug_abbrev  0x00000746      0x24e build/e16_encx24j600_spiflash/production/_ext/1676865386/drv_spi_master_ebm_tasks.o
 .debug_abbrev  0x00000994      0x1f3 build/e16_encx24j600_spiflash/production/_ext/1676865386/drv_spi_master_rm_tasks.o
 .debug_abbrev  0x00000b87      0x36a build/e16_encx24j600_spiflash/production/_ext/971131287/net_pres_enc_glue.o
 .debug_abbrev  0x00000ef1       0xd6 build/e16_encx24j600_spiflash/production/_ext/971131287/net_pres_cert_store.o
 .debug_abbrev  0x00000fc7      0x27b build/e16_encx24j600_spiflash/production/_ext/360868340/sys_clk_static.o
 .debug_abbrev  0x00001242      0x222 build/e16_encx24j600_spiflash/production/_ext/394705988/sys_ports_static.o
 .debug_abbrev  0x00001464      0x3b4 build/e16_encx24j600_spiflash/production/_ext/689678155/system_init.o
 .debug_abbrev  0x00001818       0xc3 build/e16_encx24j600_spiflash/production/_ext/689678155/system_interrupt.o
 .debug_abbrev  0x000018db       0xf9 build/e16_encx24j600_spiflash/production/_ext/689678155/system_exceptions.o
 .debug_abbrev  0x000019d4       0xd6 build/e16_encx24j600_spiflash/production/_ext/689678155/system_tasks.o
 .debug_abbrev  0x00001aaa      0x1bf build/e16_encx24j600_spiflash/production/_ext/1360937237/app.o
 .debug_abbrev  0x00001c69       0x93 build/e16_encx24j600_spiflash/production/_ext/1360937237/main.o
 .debug_abbrev  0x00001cfc      0x126 build/e16_encx24j600_spiflash/production/_ext/1360937237/http_print.o
 .debug_abbrev  0x00001e22      0x478 build/e16_encx24j600_spiflash/production/_ext/1360937237/custom_http_app.o
 .debug_abbrev  0x0000229a       0x33 build/e16_encx24j600_spiflash/production/_ext/1360937237/mpfs_img2.o
 .debug_abbrev  0x000022cd      0x1cc build/e16_encx24j600_spiflash/production/_ext/728775826/bsp_sys_init.o
 .debug_abbrev  0x00002499      0x3f4 build/e16_encx24j600_spiflash/production/_ext/29024758/random.o
 .debug_abbrev  0x0000288d      0x149 build/e16_encx24j600_spiflash/production/_ext/29024758/arc4.o
 .debug_abbrev  0x000029d6      0x2a5 build/e16_encx24j600_spiflash/production/_ext/29024758/crypto.o
 .debug_abbrev  0x00002c7b      0x212 build/e16_encx24j600_spiflash/production/_ext/29024758/md5.o
 .debug_abbrev  0x00002e8d      0x238 build/e16_encx24j600_spiflash/production/_ext/29024758/sha.o
 .debug_abbrev  0x000030c5      0x1e3 build/e16_encx24j600_spiflash/production/_ext/29024758/coding.o
 .debug_abbrev  0x000032a8      0x10b build/e16_encx24j600_spiflash/production/_ext/29024758/error.o
 .debug_abbrev  0x000033b3       0x33 build/e16_encx24j600_spiflash/production/_ext/29024758/integer.o
 .debug_abbrev  0x000033e6       0xd9 build/e16_encx24j600_spiflash/production/_ext/29024758/logging.o
 .debug_abbrev  0x000034bf      0x156 build/e16_encx24j600_spiflash/production/_ext/29024758/memory.o
 .debug_abbrev  0x00003615       0x33 build/e16_encx24j600_spiflash/production/_ext/29024758/misc.o
 .debug_abbrev  0x00003648       0xa3 build/e16_encx24j600_spiflash/production/_ext/29024758/port.o
 .debug_abbrev  0x000036eb      0x396 build/e16_encx24j600_spiflash/production/_ext/29024758/ecc.o
 .debug_abbrev  0x00003a81      0x341 build/e16_encx24j600_spiflash/production/_ext/29024758/pwdbased.o
 .debug_abbrev  0x00003dc2      0x3f8 build/e16_encx24j600_spiflash/production/_ext/29024758/tfm.o
 .debug_abbrev  0x000041ba      0x468 build/e16_encx24j600_spiflash/production/_ext/29024758/asn.o
 .debug_abbrev  0x00004622      0x2a9 build/e16_encx24j600_spiflash/production/_ext/29024758/des3.o
 .debug_abbrev  0x000048cb      0x3ac build/e16_encx24j600_spiflash/production/_ext/29024758/rsa.o
 .debug_abbrev  0x00004c77      0x297 build/e16_encx24j600_spiflash/production/_ext/29024758/aes.o
 .debug_abbrev  0x00004f0e      0x26e build/e16_encx24j600_spiflash/production/_ext/29024758/sha256.o
 .debug_abbrev  0x0000517c       0x33 build/e16_encx24j600_spiflash/production/_ext/29024758/sha512.o
 .debug_abbrev  0x000051af      0x261 build/e16_encx24j600_spiflash/production/_ext/29024758/hmac.o
 .debug_abbrev  0x00005410      0x213 build/e16_encx24j600_spiflash/production/_ext/29024758/hash.o
 .debug_abbrev  0x00005623       0x33 build/e16_encx24j600_spiflash/production/_ext/29024758/compress.o
 .debug_abbrev  0x00005656      0x41f build/e16_encx24j600_spiflash/production/_ext/2115314394/drv_encx24j600_spi_bus.o
 .debug_abbrev  0x00005a75      0x207 build/e16_encx24j600_spiflash/production/_ext/1455582699/drv_encx24j600_closed_state.o
 .debug_abbrev  0x00005c7c      0x254 build/e16_encx24j600_spiflash/production/_ext/1730942135/drv_encx24j600_initialization_state.o
 .debug_abbrev  0x00005ed0      0x28c build/e16_encx24j600_spiflash/production/_ext/1730942135/drv_encx24j600_configure_state.o
 .debug_abbrev  0x0000615c      0x25f build/e16_encx24j600_spiflash/production/_ext/1730942135/drv_encx24j600_detect_state.o
 .debug_abbrev  0x000063bb      0x22d build/e16_encx24j600_spiflash/production/_ext/1730942135/drv_encx24j600_reset_state.o
 .debug_abbrev  0x000065e8      0x2f8 build/e16_encx24j600_spiflash/production/_ext/1210338337/drv_encx24j600_tx_packet.o
 .debug_abbrev  0x000068e0      0x2a4 build/e16_encx24j600_spiflash/production/_ext/1210338337/drv_encx24j600_rx_packet.o
 .debug_abbrev  0x00006b84      0x24f build/e16_encx24j600_spiflash/production/_ext/1207282394/drv_encx24j600_running_state.o
 .debug_abbrev  0x00006dd3      0x218 build/e16_encx24j600_spiflash/production/_ext/1207282394/drv_encx24j600_change_duplex_state.o
 .debug_abbrev  0x00006feb      0x25f build/e16_encx24j600_spiflash/production/_ext/1207282394/drv_encx24j600_check_int_state.o
 .debug_abbrev  0x0000724a      0x25f build/e16_encx24j600_spiflash/production/_ext/1207282394/drv_encx24j600_check_status_state.o
 .debug_abbrev  0x000074a9      0x26f build/e16_encx24j600_spiflash/production/_ext/1207282394/drv_encx24j600_check_tx_status_state.o
 .debug_abbrev  0x00007718      0x25b build/e16_encx24j600_spiflash/production/_ext/1207282394/drv_encx24j600_reset_rx_state.o
 .debug_abbrev  0x00007973      0x4b4 build/e16_encx24j600_spiflash/production/_ext/772120936/drv_encx24j600_api.o
 .debug_abbrev  0x00007e27      0x231 build/e16_encx24j600_spiflash/production/_ext/772120936/drv_encx24j600_main_state.o
 .debug_abbrev  0x00008058      0x273 build/e16_encx24j600_spiflash/production/_ext/772120936/drv_encx24j600_utils.o
 .debug_abbrev  0x000082cb      0x4b8 build/e16_encx24j600_spiflash/production/_ext/1324760662/drv_spi.o
 .debug_abbrev  0x00008783      0x2d7 build/e16_encx24j600_spiflash/production/_ext/1385053818/drv_spi_sys_queue_fifo.o
 .debug_abbrev  0x00008a5a      0x2b6 build/e16_encx24j600_spiflash/production/_ext/1112873152/drv_sst25vf016b.o
 .debug_abbrev  0x00008d10      0x26e build/e16_encx24j600_spiflash/production/_ext/1335609251/SPIFlash.o
 .debug_abbrev  0x00008f7e      0x4fb build/e16_encx24j600_spiflash/production/_ext/941160041/drv_tmr.o
 .debug_abbrev  0x00009479      0x477 build/e16_encx24j600_spiflash/production/_ext/821589181/drv_usart.o
 .debug_abbrev  0x000098f0      0x392 build/e16_encx24j600_spiflash/production/_ext/821589181/drv_usart_buffer_queue.o
 .debug_abbrev  0x00009c82      0x392 build/e16_encx24j600_spiflash/production/_ext/821589181/drv_usart_read_write.o
 .debug_abbrev  0x0000a014      0x12a build/e16_encx24j600_spiflash/production/_ext/1595536294/UART.o
 .debug_abbrev  0x0000a13e      0x400 build/e16_encx24j600_spiflash/production/_ext/871719959/net_pres.o
 .debug_abbrev  0x0000a53e      0x44d build/e16_encx24j600_spiflash/production/_ext/1891376032/sys_command.o
 .debug_abbrev  0x0000a98b      0x124 build/e16_encx24j600_spiflash/production/_ext/598853952/sys_buffer.o
 .debug_abbrev  0x0000aaaf      0x102 build/e16_encx24j600_spiflash/production/_ext/598853952/sys_queue.o
 .debug_abbrev  0x0000abb1      0x256 build/e16_encx24j600_spiflash/production/_ext/1434663852/sys_console.o
 .debug_abbrev  0x0000ae07      0x2f5 build/e16_encx24j600_spiflash/production/_ext/1434663852/sys_console_uart.o
 .debug_abbrev  0x0000b0fc      0x29c build/e16_encx24j600_spiflash/production/_ext/2137108136/sys_debug.o
 .debug_abbrev  0x0000b398      0x26d build/e16_encx24j600_spiflash/production/_ext/482662494/sys_devcon.o
 .debug_abbrev  0x0000b605      0x16d build/e16_encx24j600_spiflash/production/_ext/482662494/sys_devcon_pic32mx.o
 .debug_abbrev  0x0000b772      0x452 build/e16_encx24j600_spiflash/production/_ext/1750042194/sys_fs.o
 .debug_abbrev  0x0000bbc4      0x46c build/e16_encx24j600_spiflash/production/_ext/1750042194/sys_fs_media_manager.o
 .debug_abbrev  0x0000c030      0x29d build/e16_encx24j600_spiflash/production/_ext/614935175/mpfs.o
 .debug_abbrev  0x0000c2cd      0x1d0 build/e16_encx24j600_spiflash/production/_ext/1042686532/sys_int_pic32.o
 .debug_abbrev  0x0000c49d      0x1f6 build/e16_encx24j600_spiflash/production/_ext/470001640/sys_random.o
 .debug_abbrev  0x0000c693      0x18b build/e16_encx24j600_spiflash/production/_ext/64182180/sys_reset.o
 .debug_abbrev  0x0000c81e      0x4d0 build/e16_encx24j600_spiflash/production/_ext/2110151058/sys_tmr.o
 .debug_abbrev  0x0000ccee      0x1c4 build/e16_encx24j600_spiflash/production/_ext/1886247299/sys_fs_wrapper.o
 .debug_abbrev  0x0000ceb2      0x177 build/e16_encx24j600_spiflash/production/_ext/1886247299/helpers.o
 .debug_abbrev  0x0000d029      0x62f build/e16_encx24j600_spiflash/production/_ext/1164207549/tcp.o
 .debug_abbrev  0x0000d658      0x656 build/e16_encx24j600_spiflash/production/_ext/1164207549/udp.o
 .debug_abbrev  0x0000dcae      0x540 build/e16_encx24j600_spiflash/production/_ext/1164207549/arp.o
 .debug_abbrev  0x0000e1ee      0x58f build/e16_encx24j600_spiflash/production/_ext/1164207549/dhcp.o
 .debug_abbrev  0x0000e77d      0x5e7 build/e16_encx24j600_spiflash/production/_ext/1164207549/dns.o
 .debug_abbrev  0x0000ed64      0x517 build/e16_encx24j600_spiflash/production/_ext/1164207549/http.o
 .debug_abbrev  0x0000f27b      0x415 build/e16_encx24j600_spiflash/production/_ext/1164207549/nbns.o
 .debug_abbrev  0x0000f690      0x4ad build/e16_encx24j600_spiflash/production/_ext/1164207549/smtp.o
 .debug_abbrev  0x0000fb3d      0x3f8 build/e16_encx24j600_spiflash/production/_ext/1164207549/tcpip_announce.o
 .debug_abbrev  0x0000ff35      0x490 build/e16_encx24j600_spiflash/production/_ext/1164207549/tcpip_commands.o
 .debug_abbrev  0x000103c5       0xb5 build/e16_encx24j600_spiflash/production/_ext/1164207549/hash_fnv.o
 .debug_abbrev  0x0001047a      0x277 build/e16_encx24j600_spiflash/production/_ext/1164207549/oahash.o
 .debug_abbrev  0x000106f1      0x174 build/e16_encx24j600_spiflash/production/_ext/1164207549/tcpip_heap_alloc.o
 .debug_abbrev  0x00010865      0x486 build/e16_encx24j600_spiflash/production/_ext/1164207549/tcpip_helpers.o
 .debug_abbrev  0x00010ceb       0x14 build/e16_encx24j600_spiflash/production/_ext/1164207549/tcpip_helper_c32.o
 .debug_abbrev  0x00010cff      0x660 build/e16_encx24j600_spiflash/production/_ext/1164207549/tcpip_manager.o
 .debug_abbrev  0x0001135f      0x219 build/e16_encx24j600_spiflash/production/_ext/1164207549/tcpip_notify.o
 .debug_abbrev  0x00011578      0x340 build/e16_encx24j600_spiflash/production/_ext/1164207549/tcpip_packet.o
 .debug_abbrev  0x000118b8      0x556 build/e16_encx24j600_spiflash/production/_ext/1164207549/ipv4.o
 .debug_abbrev  0x00011e0e      0x478 build/e16_encx24j600_spiflash/production/_ext/1164207549/sntp.o
 .debug_abbrev  0x00012286      0x35c build/e16_encx24j600_spiflash/production/_ext/1164207549/tcpip_heap_internal.o
 .debug_abbrev  0x000125e2      0x469 build/e16_encx24j600_spiflash/production/_ext/1164207549/icmp.o
 .debug_abbrev  0x00012a4b      0x5c6 build/e16_encx24j600_spiflash/production/_ext/1164207549/dhcps.o
 .debug_abbrev  0x00013011      0x3c4 build/e16_encx24j600_spiflash/production/_ext/1164207549/ddns.o
 .debug_abbrev  0x000133d5       0x33 build/e16_encx24j600_spiflash/production/_ext/1699919941/asm.o
 .debug_abbrev  0x00013408       0x33 build/e16_encx24j600_spiflash/production/_ext/1699919941/blake2b.o
 .debug_abbrev  0x0001343b       0x33 build/e16_encx24j600_spiflash/production/_ext/1699919941/camellia.o
 .debug_abbrev  0x0001346e       0x33 build/e16_encx24j600_spiflash/production/_ext/1699919941/chacha.o
 .debug_abbrev  0x000134a1       0x33 build/e16_encx24j600_spiflash/production/_ext/1699919941/chacha20_poly1305.o
 .debug_abbrev  0x000134d4       0x33 build/e16_encx24j600_spiflash/production/_ext/1699919941/curve25519.o
 .debug_abbrev  0x00013507      0x280 build/e16_encx24j600_spiflash/production/_ext/1699919941/dh.o
 .debug_abbrev  0x00013787      0x241 build/e16_encx24j600_spiflash/production/_ext/1699919941/dsa.o
 .debug_abbrev  0x000139c8       0x33 build/e16_encx24j600_spiflash/production/_ext/1699919941/ed25519.o
 .debug_abbrev  0x000139fb       0x33 build/e16_encx24j600_spiflash/production/_ext/1699919941/fe_low_mem.o
 .debug_abbrev  0x00013a2e       0x33 build/e16_encx24j600_spiflash/production/_ext/1699919941/fe_operations.o
 .debug_abbrev  0x00013a61       0x33 build/e16_encx24j600_spiflash/production/_ext/1699919941/ge_low_mem.o
 .debug_abbrev  0x00013a94       0x33 build/e16_encx24j600_spiflash/production/_ext/1699919941/ge_operations.o
 .debug_abbrev  0x00013ac7       0x33 build/e16_encx24j600_spiflash/production/_ext/1699919941/hc128.o
 .debug_abbrev  0x00013afa       0x33 build/e16_encx24j600_spiflash/production/_ext/1699919941/md2.o
 .debug_abbrev  0x00013b2d      0x1d8 build/e16_encx24j600_spiflash/production/_ext/1699919941/md4.o
 .debug_abbrev  0x00013d05       0x33 build/e16_encx24j600_spiflash/production/_ext/1699919941/pkcs7.o
 .debug_abbrev  0x00013d38       0x33 build/e16_encx24j600_spiflash/production/_ext/1699919941/poly1305.o
 .debug_abbrev  0x00013d6b      0x2a2 build/e16_encx24j600_spiflash/production/_ext/1699919941/rabbit.o
 .debug_abbrev  0x0001400d       0x33 build/e16_encx24j600_spiflash/production/_ext/1699919941/ripemd.o
 .debug_abbrev  0x00014040       0x33 build/e16_encx24j600_spiflash/production/_ext/615233400/crl.o
 .debug_abbrev  0x00014073      0x63f build/e16_encx24j600_spiflash/production/_ext/615233400/internal.o
 .debug_abbrev  0x000146b2      0x230 build/e16_encx24j600_spiflash/production/_ext/615233400/io.o
 .debug_abbrev  0x000148e2      0x402 build/e16_encx24j600_spiflash/production/_ext/615233400/keys.o
 .debug_abbrev  0x00014ce4       0x33 build/e16_encx24j600_spiflash/production/_ext/615233400/ocsp.o
 .debug_abbrev  0x00014d17       0x33 build/e16_encx24j600_spiflash/production/_ext/615233400/sniffer.o
 .debug_abbrev  0x00014d4a      0x5b8 build/e16_encx24j600_spiflash/production/_ext/615233400/ssl.o
 .debug_abbrev  0x00015302      0x4fb build/e16_encx24j600_spiflash/production/_ext/615233400/tls.o
 .debug_abbrev  0x000157fd       0x33 build/e16_encx24j600_spiflash/production/_ext/29024758/asm.o
 .debug_abbrev  0x00015830      0x138 c:/program files (x86)/microchip/xc32/v1.42/bin/bin/../../lib/gcc/pic32mx/4.8.3\libgcc.a(_udivdi3.o)
 .debug_abbrev  0x00015968       0x62 c:/program files (x86)/microchip/xc32/v1.42/bin/bin/../../lib/gcc/pic32mx/4.8.3\libgcc.a(floatunsisf.o)
 .debug_abbrev  0x000159ca       0x28 c:/program files (x86)/microchip/xc32/v1.42/bin/bin/../../lib/gcc/pic32mx/4.8.3/../../../../pic32mx/lib\libpic32.a(default-bootstrap-exception-handler.o)
 .debug_abbrev  0x000159f2       0x28 c:/program files (x86)/microchip/xc32/v1.42/bin/bin/../../lib/gcc/pic32mx/4.8.3/../../../../pic32mx/lib\libpic32.a(default-on-reset.o)
 .debug_abbrev  0x00015a1a       0x28 c:/program files (x86)/microchip/xc32/v1.42/bin/bin/../../lib/gcc/pic32mx/4.8.3/../../../../pic32mx/lib\libpic32.a(default-on-bootstrap.o)
 .debug_abbrev  0x00015a42       0x28 c:/program files (x86)/microchip/xc32/v1.42/bin/bin/../../lib/gcc/pic32mx/4.8.3/../../../../pic32mx/lib\libpic32.a(defaultinterrupt.o)
 .debug_abbrev  0x00015a6a       0x28 c:/program files (x86)/microchip/xc32/v1.42/bin/bin/../../lib/gcc/pic32mx/4.8.3/../../../../pic32mx/lib\libm.a(w_logf.o)
 .debug_abbrev  0x00015a92       0x28 c:/program files (x86)/microchip/xc32/v1.42/bin/bin/../../lib/gcc/pic32mx/4.8.3/../../../../pic32mx/lib\libm.a(w_powf.o)
 .debug_abbrev  0x00015aba       0x28 c:/program files (x86)/microchip/xc32/v1.42/bin/bin/../../lib/gcc/pic32mx/4.8.3/../../../../pic32mx/lib\libc.a(atoi.o)
 .debug_abbrev  0x00015ae2       0x28 c:/program files (x86)/microchip/xc32/v1.42/bin/bin/../../lib/gcc/pic32mx/4.8.3/../../../../pic32mx/lib\libc.a(atol.o)
 .debug_abbrev  0x00015b0a       0x28 c:/program files (x86)/microchip/xc32/v1.42/bin/bin/../../lib/gcc/pic32mx/4.8.3/../../../../pic32mx/lib\libc.a(calloc.o)
 .debug_abbrev  0x00015b32       0x7a c:/program files (x86)/microchip/xc32/v1.42/bin/bin/../../lib/gcc/pic32mx/4.8.3/../../../../pic32mx/lib\libc.a(ctime.o)
 .debug_abbrev  0x00015bac       0x28 c:/program files (x86)/microchip/xc32/v1.42/bin/bin/../../lib/gcc/pic32mx/4.8.3/../../../../pic32mx/lib\libc.a(ctypef.o)
 .debug_abbrev  0x00015bd4       0x47 c:/program files (x86)/microchip/xc32/v1.42/bin/bin/../../lib/gcc/pic32mx/4.8.3/../../../../pic32mx/lib\libc.a(malloc.o)
 .debug_abbrev  0x00015c1b       0x28 c:/program files (x86)/microchip/xc32/v1.42/bin/bin/../../lib/gcc/pic32mx/4.8.3/../../../../pic32mx/lib\libc.a(memmove.o)
 .debug_abbrev  0x00015c43       0x47 c:/program files (x86)/microchip/xc32/v1.42/bin/bin/../../lib/gcc/pic32mx/4.8.3/../../../../pic32mx/lib\libc.a(rand.o)
 .debug_abbrev  0x00015c8a       0x28 c:/program files (x86)/microchip/xc32/v1.42/bin/bin/../../lib/gcc/pic32mx/4.8.3/../../../../pic32mx/lib\libc.a(strcat.o)
 .debug_abbrev  0x00015cb2       0x28 c:/program files (x86)/microchip/xc32/v1.42/bin/bin/../../lib/gcc/pic32mx/4.8.3/../../../../pic32mx/lib\libc.a(strchr.o)
 .debug_abbrev  0x00015cda       0x28 c:/program files (x86)/microchip/xc32/v1.42/bin/bin/../../lib/gcc/pic32mx/4.8.3/../../../../pic32mx/lib\libc.a(strncat.o)
 .debug_abbrev  0x00015d02       0x28 c:/program files (x86)/microchip/xc32/v1.42/bin/bin/../../lib/gcc/pic32mx/4.8.3/../../../../pic32mx/lib\libc.a(strncmp.o)
 .debug_abbrev  0x00015d2a       0x28 c:/program files (x86)/microchip/xc32/v1.42/bin/bin/../../lib/gcc/pic32mx/4.8.3/../../../../pic32mx/lib\libc.a(strncpy.o)
 .debug_abbrev  0x00015d52       0x28 c:/program files (x86)/microchip/xc32/v1.42/bin/bin/../../lib/gcc/pic32mx/4.8.3/../../../../pic32mx/lib\libc.a(strstr.o)
 .debug_abbrev  0x00015d7a       0x28 c:/program files (x86)/microchip/xc32/v1.42/bin/bin/../../lib/gcc/pic32mx/4.8.3/../../../../pic32mx/lib\libc.a(strtol.o)
 .debug_abbrev  0x00015da2       0x28 c:/program files (x86)/microchip/xc32/v1.42/bin/bin/../../lib/gcc/pic32mx/4.8.3/../../../../pic32mx/lib\libc.a(sprintf_cdnopuxX.eo)
 .debug_abbrev  0x00015dca       0x28 c:/program files (x86)/microchip/xc32/v1.42/bin/bin/../../lib/gcc/pic32mx/4.8.3/../../../../pic32mx/lib\libc.a(vsnprintf.o)
 .debug_abbrev  0x00015df2       0x28 c:/program files (x86)/microchip/xc32/v1.42/bin/bin/../../lib/gcc/pic32mx/4.8.3/../../../../pic32mx/lib\libc.a(doprnt_cdnopuxX.eo)
 .debug_abbrev  0x00015e1a       0x45 c:/program files (x86)/microchip/xc32/v1.42/bin/bin/../../lib/gcc/pic32mx/4.8.3/../../../../pic32mx/lib\libc.a(doprnt.o)
 .debug_abbrev  0x00015e5f       0x28 c:/program files (x86)/microchip/xc32/v1.42/bin/bin/../../lib/gcc/pic32mx/4.8.3/../../../../pic32mx/lib\libc.a(_fputc_simple.o)
 .debug_abbrev  0x00015e87       0x28 c:/program files (x86)/microchip/xc32/v1.42/bin/bin/../../lib/gcc/pic32mx/4.8.3/../../../../pic32mx/lib\libc.a(_flsbuf_simple.o)
 .debug_abbrev  0x00015eaf       0x54 c:/program files (x86)/microchip/xc32/v1.42/bin/bin/../../lib/gcc/pic32mx/4.8.3/../../../../pic32mx/lib\libpic32.a(sbrk.o)
 .debug_abbrev  0x00015f03       0x28 c:/program files (x86)/microchip/xc32/v1.42/bin/bin/../../lib/gcc/pic32mx/4.8.3/../../../../pic32mx/lib\libpic32.a(write.o)
 .debug_abbrev  0x00015f2b       0x3e c:/program files (x86)/microchip/xc32/v1.42/bin/bin/../../lib/gcc/pic32mx/4.8.3/../../../../pic32mx/lib\libpic32.a(isinf.o)
 .debug_abbrev  0x00015f69       0x28 c:/program files (x86)/microchip/xc32/v1.42/bin/bin/../../lib/gcc/pic32mx/4.8.3/../../../../pic32mx/lib\libpic32.a(_mon_putc.o)
 .debug_abbrev  0x00015f91       0x35 c:/program files (x86)/microchip/xc32/v1.42/bin/bin/../../lib/gcc/pic32mx/4.8.3/../../../../pic32mx/lib\libe.a(_floatdisf.o)
 .debug_abbrev  0x00015fc6       0x35 c:/program files (x86)/microchip/xc32/v1.42/bin/bin/../../lib/gcc/pic32mx/4.8.3/../../../../pic32mx/lib\libe.a(_unorddf2.o)
 .debug_abbrev  0x00015ffb      0x147 c:/program files (x86)/microchip/xc32/v1.42/bin/bin/../../lib/gcc/pic32mx/4.8.3\libgcc.a(_umoddi3.o)

.debug_line     0x00000000    0x342ad
 *(.debug_line)
 .debug_line    0x00000000      0x40b build/e16_encx24j600_spiflash/production/_ext/1495834797/drv_flash_static.o
 .debug_line    0x0000040b      0x88f build/e16_encx24j600_spiflash/production/_ext/1676865386/drv_spi_tasks.o
 .debug_line    0x00000c9a     0x100b build/e16_encx24j600_spiflash/production/_ext/1676865386/drv_spi_api.o
 .debug_line    0x00001ca5      0x715 build/e16_encx24j600_spiflash/production/_ext/1676865386/drv_spi_master_ebm_tasks.o
 .debug_line    0x000023ba      0x5f2 build/e16_encx24j600_spiflash/production/_ext/1676865386/drv_spi_master_rm_tasks.o
 .debug_line    0x000029ac      0x6ab build/e16_encx24j600_spiflash/production/_ext/971131287/net_pres_enc_glue.o
 .debug_line    0x00003057      0x1d6 build/e16_encx24j600_spiflash/production/_ext/971131287/net_pres_cert_store.o
 .debug_line    0x0000322d      0x43b build/e16_encx24j600_spiflash/production/_ext/360868340/sys_clk_static.o
 .debug_line    0x00003668      0x7b1 build/e16_encx24j600_spiflash/production/_ext/394705988/sys_ports_static.o
 .debug_line    0x00003e19      0xdd0 build/e16_encx24j600_spiflash/production/_ext/689678155/system_init.o
 .debug_line    0x00004be9      0x2ce build/e16_encx24j600_spiflash/production/_ext/689678155/system_interrupt.o
 .debug_line    0x00004eb7      0x2df build/e16_encx24j600_spiflash/production/_ext/689678155/system_exceptions.o
 .debug_line    0x00005196      0x43f build/e16_encx24j600_spiflash/production/_ext/689678155/system_tasks.o
 .debug_line    0x000055d5      0x4c0 build/e16_encx24j600_spiflash/production/_ext/1360937237/app.o
 .debug_line    0x00005a95       0xc9 build/e16_encx24j600_spiflash/production/_ext/1360937237/main.o
 .debug_line    0x00005b5e      0x1ee build/e16_encx24j600_spiflash/production/_ext/1360937237/http_print.o
 .debug_line    0x00005d4c      0xa6c build/e16_encx24j600_spiflash/production/_ext/1360937237/custom_http_app.o
 .debug_line    0x000067b8       0x71 build/e16_encx24j600_spiflash/production/_ext/1360937237/mpfs_img2.o
 .debug_line    0x00006829      0x372 build/e16_encx24j600_spiflash/production/_ext/728775826/bsp_sys_init.o
 .debug_line    0x00006b9b      0x49a build/e16_encx24j600_spiflash/production/_ext/29024758/random.o
 .debug_line    0x00007035      0x106 build/e16_encx24j600_spiflash/production/_ext/29024758/arc4.o
 .debug_line    0x0000713b      0x5b1 build/e16_encx24j600_spiflash/production/_ext/29024758/crypto.o
 .debug_line    0x000076ec      0x4a7 build/e16_encx24j600_spiflash/production/_ext/29024758/md5.o
 .debug_line    0x00007b93      0xca5 build/e16_encx24j600_spiflash/production/_ext/29024758/sha.o
 .debug_line    0x00008838      0x2e2 build/e16_encx24j600_spiflash/production/_ext/29024758/coding.o
 .debug_line    0x00008b1a      0x1bb build/e16_encx24j600_spiflash/production/_ext/29024758/error.o
 .debug_line    0x00008cd5       0x71 build/e16_encx24j600_spiflash/production/_ext/29024758/integer.o
 .debug_line    0x00008d46      0x103 build/e16_encx24j600_spiflash/production/_ext/29024758/logging.o
 .debug_line    0x00008e49      0x210 build/e16_encx24j600_spiflash/production/_ext/29024758/memory.o
 .debug_line    0x00009059       0x71 build/e16_encx24j600_spiflash/production/_ext/29024758/misc.o
 .debug_line    0x000090ca      0x10f build/e16_encx24j600_spiflash/production/_ext/29024758/port.o
 .debug_line    0x000091d9      0x99e build/e16_encx24j600_spiflash/production/_ext/29024758/ecc.o
 .debug_line    0x00009b77      0x328 build/e16_encx24j600_spiflash/production/_ext/29024758/pwdbased.o
 .debug_line    0x00009e9f      0xde7 build/e16_encx24j600_spiflash/production/_ext/29024758/tfm.o
 .debug_line    0x0000ac86     0x13f0 build/e16_encx24j600_spiflash/production/_ext/29024758/asn.o
 .debug_line    0x0000c076      0x528 build/e16_encx24j600_spiflash/production/_ext/29024758/des3.o
 .debug_line    0x0000c59e      0x549 build/e16_encx24j600_spiflash/production/_ext/29024758/rsa.o
 .debug_line    0x0000cae7      0x51b build/e16_encx24j600_spiflash/production/_ext/29024758/aes.o
 .debug_line    0x0000d002      0x457 build/e16_encx24j600_spiflash/production/_ext/29024758/sha256.o
 .debug_line    0x0000d459       0x71 build/e16_encx24j600_spiflash/production/_ext/29024758/sha512.o
 .debug_line    0x0000d4ca      0x1c7 build/e16_encx24j600_spiflash/production/_ext/29024758/hmac.o
 .debug_line    0x0000d691      0x20c build/e16_encx24j600_spiflash/production/_ext/29024758/hash.o
 .debug_line    0x0000d89d       0x71 build/e16_encx24j600_spiflash/production/_ext/29024758/compress.o
 .debug_line    0x0000d90e      0xc8a build/e16_encx24j600_spiflash/production/_ext/2115314394/drv_encx24j600_spi_bus.o
 .debug_line    0x0000e598      0x70d build/e16_encx24j600_spiflash/production/_ext/1455582699/drv_encx24j600_closed_state.o
 .debug_line    0x0000eca5      0x6e0 build/e16_encx24j600_spiflash/production/_ext/1730942135/drv_encx24j600_initialization_state.o
 .debug_line    0x0000f385      0x7ac build/e16_encx24j600_spiflash/production/_ext/1730942135/drv_encx24j600_configure_state.o
 .debug_line    0x0000fb31      0x704 build/e16_encx24j600_spiflash/production/_ext/1730942135/drv_encx24j600_detect_state.o
 .debug_line    0x00010235      0x734 build/e16_encx24j600_spiflash/production/_ext/1730942135/drv_encx24j600_reset_state.o
 .debug_line    0x00010969      0x82c build/e16_encx24j600_spiflash/production/_ext/1210338337/drv_encx24j600_tx_packet.o
 .debug_line    0x00011195      0x77f build/e16_encx24j600_spiflash/production/_ext/1210338337/drv_encx24j600_rx_packet.o
 .debug_line    0x00011914      0x70a build/e16_encx24j600_spiflash/production/_ext/1207282394/drv_encx24j600_running_state.o
 .debug_line    0x0001201e      0x6e9 build/e16_encx24j600_spiflash/production/_ext/1207282394/drv_encx24j600_change_duplex_state.o
 .debug_line    0x00012707      0x702 build/e16_encx24j600_spiflash/production/_ext/1207282394/drv_encx24j600_check_int_state.o
 .debug_line    0x00012e09      0x718 build/e16_encx24j600_spiflash/production/_ext/1207282394/drv_encx24j600_check_status_state.o
 .debug_line    0x00013521      0x70b build/e16_encx24j600_spiflash/production/_ext/1207282394/drv_encx24j600_check_tx_status_state.o
 .debug_line    0x00013c2c      0x6f7 build/e16_encx24j600_spiflash/production/_ext/1207282394/drv_encx24j600_reset_rx_state.o
 .debug_line    0x00014323      0xa87 build/e16_encx24j600_spiflash/production/_ext/772120936/drv_encx24j600_api.o
 .debug_line    0x00014daa      0x71f build/e16_encx24j600_spiflash/production/_ext/772120936/drv_encx24j600_main_state.o
 .debug_line    0x000154c9      0x6bc build/e16_encx24j600_spiflash/production/_ext/772120936/drv_encx24j600_utils.o
 .debug_line    0x00015b85      0xb84 build/e16_encx24j600_spiflash/production/_ext/1324760662/drv_spi.o
 .debug_line    0x00016709      0x4d4 build/e16_encx24j600_spiflash/production/_ext/1385053818/drv_spi_sys_queue_fifo.o
 .debug_line    0x00016bdd      0x7d5 build/e16_encx24j600_spiflash/production/_ext/1112873152/drv_sst25vf016b.o
 .debug_line    0x000173b2      0x3ea build/e16_encx24j600_spiflash/production/_ext/1335609251/SPIFlash.o
 .debug_line    0x0001779c     0x11cc build/e16_encx24j600_spiflash/production/_ext/941160041/drv_tmr.o
 .debug_line    0x00018968     0x1638 build/e16_encx24j600_spiflash/production/_ext/821589181/drv_usart.o
 .debug_line    0x00019fa0      0x8b3 build/e16_encx24j600_spiflash/production/_ext/821589181/drv_usart_buffer_queue.o
 .debug_line    0x0001a853      0x85e build/e16_encx24j600_spiflash/production/_ext/821589181/drv_usart_read_write.o
 .debug_line    0x0001b0b1      0x14f build/e16_encx24j600_spiflash/production/_ext/1595536294/UART.o
 .debug_line    0x0001b200      0x82b build/e16_encx24j600_spiflash/production/_ext/871719959/net_pres.o
 .debug_line    0x0001ba2b      0x88f build/e16_encx24j600_spiflash/production/_ext/1891376032/sys_command.o
 .debug_line    0x0001c2ba      0x1d5 build/e16_encx24j600_spiflash/production/_ext/598853952/sys_buffer.o
 .debug_line    0x0001c48f      0x162 build/e16_encx24j600_spiflash/production/_ext/598853952/sys_queue.o
 .debug_line    0x0001c5f1      0x3d3 build/e16_encx24j600_spiflash/production/_ext/1434663852/sys_console.o
 .debug_line    0x0001c9c4      0x4d8 build/e16_encx24j600_spiflash/production/_ext/1434663852/sys_console_uart.o
 .debug_line    0x0001ce9c      0x3be build/e16_encx24j600_spiflash/production/_ext/2137108136/sys_debug.o
 .debug_line    0x0001d25a      0x643 build/e16_encx24j600_spiflash/production/_ext/482662494/sys_devcon.o
 .debug_line    0x0001d89d      0x48f build/e16_encx24j600_spiflash/production/_ext/482662494/sys_devcon_pic32mx.o
 .debug_line    0x0001dd2c      0xc08 build/e16_encx24j600_spiflash/production/_ext/1750042194/sys_fs.o
 .debug_line    0x0001e934      0x717 build/e16_encx24j600_spiflash/production/_ext/1750042194/sys_fs_media_manager.o
 .debug_line    0x0001f04b      0x600 build/e16_encx24j600_spiflash/production/_ext/614935175/mpfs.o
 .debug_line    0x0001f64b      0x39e build/e16_encx24j600_spiflash/production/_ext/1042686532/sys_int_pic32.o
 .debug_line    0x0001f9e9      0x2eb build/e16_encx24j600_spiflash/production/_ext/470001640/sys_random.o
 .debug_line    0x0001fcd4      0x3bb build/e16_encx24j600_spiflash/production/_ext/64182180/sys_reset.o
 .debug_line    0x0002008f      0x6ac build/e16_encx24j600_spiflash/production/_ext/2110151058/sys_tmr.o
 .debug_line    0x0002073b      0x210 build/e16_encx24j600_spiflash/production/_ext/1886247299/sys_fs_wrapper.o
 .debug_line    0x0002094b      0x200 build/e16_encx24j600_spiflash/production/_ext/1886247299/helpers.o
 .debug_line    0x00020b4b     0x13eb build/e16_encx24j600_spiflash/production/_ext/1164207549/tcp.o
 .debug_line    0x00021f36      0xe42 build/e16_encx24j600_spiflash/production/_ext/1164207549/udp.o
 .debug_line    0x00022d78      0xa13 build/e16_encx24j600_spiflash/production/_ext/1164207549/arp.o
 .debug_line    0x0002378b      0xd44 build/e16_encx24j600_spiflash/production/_ext/1164207549/dhcp.o
 .debug_line    0x000244cf      0xb10 build/e16_encx24j600_spiflash/production/_ext/1164207549/dns.o
 .debug_line    0x00024fdf      0xc38 build/e16_encx24j600_spiflash/production/_ext/1164207549/http.o
 .debug_line    0x00025c17      0x4ac build/e16_encx24j600_spiflash/production/_ext/1164207549/nbns.o
 .debug_line    0x000260c3      0x860 build/e16_encx24j600_spiflash/production/_ext/1164207549/smtp.o
 .debug_line    0x00026923      0x4bf build/e16_encx24j600_spiflash/production/_ext/1164207549/tcpip_announce.o
 .debug_line    0x00026de2      0xacc build/e16_encx24j600_spiflash/production/_ext/1164207549/tcpip_commands.o
 .debug_line    0x000278ae      0x134 build/e16_encx24j600_spiflash/production/_ext/1164207549/hash_fnv.o
 .debug_line    0x000279e2      0x1e3 build/e16_encx24j600_spiflash/production/_ext/1164207549/oahash.o
 .debug_line    0x00027bc5      0x1c5 build/e16_encx24j600_spiflash/production/_ext/1164207549/tcpip_heap_alloc.o
 .debug_line    0x00027d8a      0xd18 build/e16_encx24j600_spiflash/production/_ext/1164207549/tcpip_helpers.o
 .debug_line    0x00028aa2       0xfd build/e16_encx24j600_spiflash/production/_ext/1164207549/tcpip_helper_c32.o
 .debug_line    0x00028b9f     0x145c build/e16_encx24j600_spiflash/production/_ext/1164207549/tcpip_manager.o
 .debug_line    0x00029ffb      0x27a build/e16_encx24j600_spiflash/production/_ext/1164207549/tcpip_notify.o
 .debug_line    0x0002a275      0x523 build/e16_encx24j600_spiflash/production/_ext/1164207549/tcpip_packet.o
 .debug_line    0x0002a798      0x769 build/e16_encx24j600_spiflash/production/_ext/1164207549/ipv4.o
 .debug_line    0x0002af01      0x57b build/e16_encx24j600_spiflash/production/_ext/1164207549/sntp.o
 .debug_line    0x0002b47c      0x429 build/e16_encx24j600_spiflash/production/_ext/1164207549/tcpip_heap_internal.o
 .debug_line    0x0002b8a5      0x483 build/e16_encx24j600_spiflash/production/_ext/1164207549/icmp.o
 .debug_line    0x0002bd28      0xba4 build/e16_encx24j600_spiflash/production/_ext/1164207549/dhcps.o
 .debug_line    0x0002c8cc      0x52e build/e16_encx24j600_spiflash/production/_ext/1164207549/ddns.o
 .debug_line    0x0002cdfa       0x71 build/e16_encx24j600_spiflash/production/_ext/1699919941/asm.o
 .debug_line    0x0002ce6b       0x71 build/e16_encx24j600_spiflash/production/_ext/1699919941/blake2b.o
 .debug_line    0x0002cedc       0x71 build/e16_encx24j600_spiflash/production/_ext/1699919941/camellia.o
 .debug_line    0x0002cf4d       0x71 build/e16_encx24j600_spiflash/production/_ext/1699919941/chacha.o
 .debug_line    0x0002cfbe       0x71 build/e16_encx24j600_spiflash/production/_ext/1699919941/chacha20_poly1305.o
 .debug_line    0x0002d02f       0x71 build/e16_encx24j600_spiflash/production/_ext/1699919941/curve25519.o
 .debug_line    0x0002d0a0      0x27f build/e16_encx24j600_spiflash/production/_ext/1699919941/dh.o
 .debug_line    0x0002d31f      0x336 build/e16_encx24j600_spiflash/production/_ext/1699919941/dsa.o
 .debug_line    0x0002d655        0x0 build/e16_encx24j600_spiflash/production/_ext/1699919941/ecc_fp.o
 .debug_line    0x0002d655       0x71 build/e16_encx24j600_spiflash/production/_ext/1699919941/ed25519.o
 .debug_line    0x0002d6c6       0x71 build/e16_encx24j600_spiflash/production/_ext/1699919941/fe_low_mem.o
 .debug_line    0x0002d737       0x71 build/e16_encx24j600_spiflash/production/_ext/1699919941/fe_operations.o
 .debug_line    0x0002d7a8       0x71 build/e16_encx24j600_spiflash/production/_ext/1699919941/ge_low_mem.o
 .debug_line    0x0002d819       0x71 build/e16_encx24j600_spiflash/production/_ext/1699919941/ge_operations.o
 .debug_line    0x0002d88a       0x71 build/e16_encx24j600_spiflash/production/_ext/1699919941/hc128.o
 .debug_line    0x0002d8fb       0x71 build/e16_encx24j600_spiflash/production/_ext/1699919941/md2.o
 .debug_line    0x0002d96c      0x3c2 build/e16_encx24j600_spiflash/production/_ext/1699919941/md4.o
 .debug_line    0x0002dd2e       0x71 build/e16_encx24j600_spiflash/production/_ext/1699919941/pkcs7.o
 .debug_line    0x0002dd9f       0x71 build/e16_encx24j600_spiflash/production/_ext/1699919941/poly1305.o
 .debug_line    0x0002de10      0x37d build/e16_encx24j600_spiflash/production/_ext/1699919941/rabbit.o
 .debug_line    0x0002e18d       0x71 build/e16_encx24j600_spiflash/production/_ext/1699919941/ripemd.o
 .debug_line    0x0002e1fe       0x71 build/e16_encx24j600_spiflash/production/_ext/615233400/crl.o
 .debug_line    0x0002e26f     0x283a build/e16_encx24j600_spiflash/production/_ext/615233400/internal.o
 .debug_line    0x00030aa9      0x2a6 build/e16_encx24j600_spiflash/production/_ext/615233400/io.o
 .debug_line    0x00030d4f      0x5f4 build/e16_encx24j600_spiflash/production/_ext/615233400/keys.o
 .debug_line    0x00031343       0x71 build/e16_encx24j600_spiflash/production/_ext/615233400/ocsp.o
 .debug_line    0x000313b4       0x71 build/e16_encx24j600_spiflash/production/_ext/615233400/sniffer.o
 .debug_line    0x00031425     0x137b build/e16_encx24j600_spiflash/production/_ext/615233400/ssl.o
 .debug_line    0x000327a0      0x64e build/e16_encx24j600_spiflash/production/_ext/615233400/tls.o
 .debug_line    0x00032dee       0x71 build/e16_encx24j600_spiflash/production/_ext/29024758/asm.o
 .debug_line    0x00032e5f       0xff c:/program files (x86)/microchip/xc32/v1.42/bin/bin/../../lib/gcc/pic32mx/4.8.3\libgcc.a(_udivdi3.o)
 .debug_line    0x00032f5e       0x9c c:/program files (x86)/microchip/xc32/v1.42/bin/bin/../../lib/gcc/pic32mx/4.8.3\libgcc.a(floatunsisf.o)
 .debug_line    0x00032ffa       0xa9 c:/program files (x86)/microchip/xc32/v1.42/bin/bin/../../lib/gcc/pic32mx/4.8.3/../../../../pic32mx/lib\libpic32.a(default-bootstrap-exception-handler.o)
 .debug_line    0x000330a3       0x96 c:/program files (x86)/microchip/xc32/v1.42/bin/bin/../../lib/gcc/pic32mx/4.8.3/../../../../pic32mx/lib\libpic32.a(default-on-reset.o)
 .debug_line    0x00033139       0x9a c:/program files (x86)/microchip/xc32/v1.42/bin/bin/../../lib/gcc/pic32mx/4.8.3/../../../../pic32mx/lib\libpic32.a(default-on-bootstrap.o)
 .debug_line    0x000331d3       0xa8 c:/program files (x86)/microchip/xc32/v1.42/bin/bin/../../lib/gcc/pic32mx/4.8.3/../../../../pic32mx/lib\libpic32.a(defaultinterrupt.o)
 .debug_line    0x0003327b       0x89 c:/program files (x86)/microchip/xc32/v1.42/bin/bin/../../lib/gcc/pic32mx/4.8.3/../../../../pic32mx/lib\libm.a(w_logf.o)
 .debug_line    0x00033304       0x89 c:/program files (x86)/microchip/xc32/v1.42/bin/bin/../../lib/gcc/pic32mx/4.8.3/../../../../pic32mx/lib\libm.a(w_powf.o)
 .debug_line    0x0003338d        0x0 c:/program files (x86)/microchip/xc32/v1.42/bin/bin/../../lib/gcc/pic32mx/4.8.3/../../../../pic32mx/lib\libm.a(s_lib_ver.o)
 .debug_line    0x0003338d       0x80 c:/program files (x86)/microchip/xc32/v1.42/bin/bin/../../lib/gcc/pic32mx/4.8.3/../../../../pic32mx/lib\libc.a(atoi.o)
 .debug_line    0x0003340d       0x80 c:/program files (x86)/microchip/xc32/v1.42/bin/bin/../../lib/gcc/pic32mx/4.8.3/../../../../pic32mx/lib\libc.a(atol.o)
 .debug_line    0x0003348d       0x82 c:/program files (x86)/microchip/xc32/v1.42/bin/bin/../../lib/gcc/pic32mx/4.8.3/../../../../pic32mx/lib\libc.a(calloc.o)
 .debug_line    0x0003350f       0x81 c:/program files (x86)/microchip/xc32/v1.42/bin/bin/../../lib/gcc/pic32mx/4.8.3/../../../../pic32mx/lib\libc.a(ctime.o)
 .debug_line    0x00033590        0x0 c:/program files (x86)/microchip/xc32/v1.42/bin/bin/../../lib/gcc/pic32mx/4.8.3/../../../../pic32mx/lib\libc.a(ctype.o)
 .debug_line    0x00033590       0x82 c:/program files (x86)/microchip/xc32/v1.42/bin/bin/../../lib/gcc/pic32mx/4.8.3/../../../../pic32mx/lib\libc.a(ctypef.o)
 .debug_line    0x00033612        0x0 c:/program files (x86)/microchip/xc32/v1.42/bin/bin/../../lib/gcc/pic32mx/4.8.3/../../../../pic32mx/lib\libc.a(errno.o)
 .debug_line    0x00033612       0x82 c:/program files (x86)/microchip/xc32/v1.42/bin/bin/../../lib/gcc/pic32mx/4.8.3/../../../../pic32mx/lib\libc.a(malloc.o)
 .debug_line    0x00033694       0x83 c:/program files (x86)/microchip/xc32/v1.42/bin/bin/../../lib/gcc/pic32mx/4.8.3/../../../../pic32mx/lib\libc.a(memmove.o)
 .debug_line    0x00033717       0x80 c:/program files (x86)/microchip/xc32/v1.42/bin/bin/../../lib/gcc/pic32mx/4.8.3/../../../../pic32mx/lib\libc.a(rand.o)
 .debug_line    0x00033797       0x82 c:/program files (x86)/microchip/xc32/v1.42/bin/bin/../../lib/gcc/pic32mx/4.8.3/../../../../pic32mx/lib\libc.a(strcat.o)
 .debug_line    0x00033819       0x82 c:/program files (x86)/microchip/xc32/v1.42/bin/bin/../../lib/gcc/pic32mx/4.8.3/../../../../pic32mx/lib\libc.a(strchr.o)
 .debug_line    0x0003389b       0x83 c:/program files (x86)/microchip/xc32/v1.42/bin/bin/../../lib/gcc/pic32mx/4.8.3/../../../../pic32mx/lib\libc.a(strncat.o)
 .debug_line    0x0003391e       0x83 c:/program files (x86)/microchip/xc32/v1.42/bin/bin/../../lib/gcc/pic32mx/4.8.3/../../../../pic32mx/lib\libc.a(strncmp.o)
 .debug_line    0x000339a1       0x83 c:/program files (x86)/microchip/xc32/v1.42/bin/bin/../../lib/gcc/pic32mx/4.8.3/../../../../pic32mx/lib\libc.a(strncpy.o)
 .debug_line    0x00033a24       0x82 c:/program files (x86)/microchip/xc32/v1.42/bin/bin/../../lib/gcc/pic32mx/4.8.3/../../../../pic32mx/lib\libc.a(strstr.o)
 .debug_line    0x00033aa6       0x82 c:/program files (x86)/microchip/xc32/v1.42/bin/bin/../../lib/gcc/pic32mx/4.8.3/../../../../pic32mx/lib\libc.a(strtol.o)
 .debug_line    0x00033b28       0x83 c:/program files (x86)/microchip/xc32/v1.42/bin/bin/../../lib/gcc/pic32mx/4.8.3/../../../../pic32mx/lib\libc.a(sprintf_cdnopuxX.eo)
 .debug_line    0x00033bab       0x85 c:/program files (x86)/microchip/xc32/v1.42/bin/bin/../../lib/gcc/pic32mx/4.8.3/../../../../pic32mx/lib\libc.a(vsnprintf.o)
 .debug_line    0x00033c30       0x82 c:/program files (x86)/microchip/xc32/v1.42/bin/bin/../../lib/gcc/pic32mx/4.8.3/../../../../pic32mx/lib\libc.a(doprnt_cdnopuxX.eo)
 .debug_line    0x00033cb2       0x82 c:/program files (x86)/microchip/xc32/v1.42/bin/bin/../../lib/gcc/pic32mx/4.8.3/../../../../pic32mx/lib\libc.a(doprnt.o)
 .debug_line    0x00033d34       0x81 c:/program files (x86)/microchip/xc32/v1.42/bin/bin/../../lib/gcc/pic32mx/4.8.3/../../../../pic32mx/lib\libc.a(_fputc_simple.o)
 .debug_line    0x00033db5        0x0 c:/program files (x86)/microchip/xc32/v1.42/bin/bin/../../lib/gcc/pic32mx/4.8.3/../../../../pic32mx/lib\libc.a(powersf.o)
 .debug_line    0x00033db5        0x0 c:/program files (x86)/microchip/xc32/v1.42/bin/bin/../../lib/gcc/pic32mx/4.8.3/../../../../pic32mx/lib\libc.a(_iob.o)
 .debug_line    0x00033db5       0x82 c:/program files (x86)/microchip/xc32/v1.42/bin/bin/../../lib/gcc/pic32mx/4.8.3/../../../../pic32mx/lib\libc.a(_flsbuf_simple.o)
 .debug_line    0x00033e37       0x8a c:/program files (x86)/microchip/xc32/v1.42/bin/bin/../../lib/gcc/pic32mx/4.8.3/../../../../pic32mx/lib\libpic32.a(sbrk.o)
 .debug_line    0x00033ec1       0x8b c:/program files (x86)/microchip/xc32/v1.42/bin/bin/../../lib/gcc/pic32mx/4.8.3/../../../../pic32mx/lib\libpic32.a(write.o)
 .debug_line    0x00033f4c       0x8b c:/program files (x86)/microchip/xc32/v1.42/bin/bin/../../lib/gcc/pic32mx/4.8.3/../../../../pic32mx/lib\libpic32.a(isinf.o)
 .debug_line    0x00033fd7       0x8f c:/program files (x86)/microchip/xc32/v1.42/bin/bin/../../lib/gcc/pic32mx/4.8.3/../../../../pic32mx/lib\libpic32.a(_mon_putc.o)
 .debug_line    0x00034066        0x0 c:/program files (x86)/microchip/xc32/v1.42/bin/bin/../../lib/gcc/pic32mx/4.8.3/../../../../pic32mx/lib\libpic32.a(xc32_uart.o)
 .debug_line    0x00034066       0xa5 c:/program files (x86)/microchip/xc32/v1.42/bin/bin/../../lib/gcc/pic32mx/4.8.3/../../../../pic32mx/lib\libe.a(_floatdisf.o)
 .debug_line    0x0003410b       0x91 c:/program files (x86)/microchip/xc32/v1.42/bin/bin/../../lib/gcc/pic32mx/4.8.3/../../../../pic32mx/lib\libe.a(_unorddf2.o)
 .debug_line    0x0003419c      0x111 c:/program files (x86)/microchip/xc32/v1.42/bin/bin/../../lib/gcc/pic32mx/4.8.3\libgcc.a(_umoddi3.o)

.debug_frame    0x00000000     0xc728
 *(.debug_frame)
 .debug_frame   0x00000000       0x78 build/e16_encx24j600_spiflash/production/_ext/1495834797/drv_flash_static.o
 .debug_frame   0x00000078       0x60 build/e16_encx24j600_spiflash/production/_ext/1676865386/drv_spi_tasks.o
 .debug_frame   0x000000d8       0x3c build/e16_encx24j600_spiflash/production/_ext/1676865386/drv_spi_api.o
 .debug_frame   0x00000114       0x40 build/e16_encx24j600_spiflash/production/_ext/1676865386/drv_spi_master_ebm_tasks.o
 .debug_frame   0x00000154       0x30 build/e16_encx24j600_spiflash/production/_ext/1676865386/drv_spi_master_rm_tasks.o
 .debug_frame   0x00000184      0x34c build/e16_encx24j600_spiflash/production/_ext/971131287/net_pres_enc_glue.o
 .debug_frame   0x000004d0       0x30 build/e16_encx24j600_spiflash/production/_ext/971131287/net_pres_cert_store.o
 .debug_frame   0x00000500       0xa0 build/e16_encx24j600_spiflash/production/_ext/360868340/sys_clk_static.o
 .debug_frame   0x000005a0      0x1f0 build/e16_encx24j600_spiflash/production/_ext/394705988/sys_ports_static.o
 .debug_frame   0x00000790       0x4c build/e16_encx24j600_spiflash/production/_ext/689678155/system_init.o
 .debug_frame   0x000007dc      0x164 build/e16_encx24j600_spiflash/production/_ext/689678155/system_interrupt.o
 .debug_frame   0x00000940       0x28 build/e16_encx24j600_spiflash/production/_ext/689678155/system_exceptions.o
 .debug_frame   0x00000968       0x28 build/e16_encx24j600_spiflash/production/_ext/689678155/system_tasks.o
 .debug_frame   0x00000990       0x44 build/e16_encx24j600_spiflash/production/_ext/1360937237/app.o
 .debug_frame   0x000009d4       0x28 build/e16_encx24j600_spiflash/production/_ext/1360937237/main.o
 .debug_frame   0x000009fc       0x40 build/e16_encx24j600_spiflash/production/_ext/1360937237/http_print.o
 .debug_frame   0x00000a3c      0x414 build/e16_encx24j600_spiflash/production/_ext/1360937237/custom_http_app.o
 .debug_frame   0x00000e50       0xb0 build/e16_encx24j600_spiflash/production/_ext/728775826/bsp_sys_init.o
 .debug_frame   0x00000f00      0x16c build/e16_encx24j600_spiflash/production/_ext/29024758/random.o
 .debug_frame   0x0000106c       0x30 build/e16_encx24j600_spiflash/production/_ext/29024758/arc4.o
 .debug_frame   0x0000109c      0x520 build/e16_encx24j600_spiflash/production/_ext/29024758/crypto.o
 .debug_frame   0x000015bc       0xac build/e16_encx24j600_spiflash/production/_ext/29024758/md5.o
 .debug_frame   0x00001668       0x90 build/e16_encx24j600_spiflash/production/_ext/29024758/sha.o
 .debug_frame   0x000016f8       0xdc build/e16_encx24j600_spiflash/production/_ext/29024758/coding.o
 .debug_frame   0x000017d4       0x38 build/e16_encx24j600_spiflash/production/_ext/29024758/error.o
 .debug_frame   0x0000180c       0x40 build/e16_encx24j600_spiflash/production/_ext/29024758/logging.o
 .debug_frame   0x0000184c       0x68 build/e16_encx24j600_spiflash/production/_ext/29024758/memory.o
 .debug_frame   0x000018b4       0x60 build/e16_encx24j600_spiflash/production/_ext/29024758/port.o
 .debug_frame   0x00001914      0x418 build/e16_encx24j600_spiflash/production/_ext/29024758/ecc.o
 .debug_frame   0x00001d2c       0xd4 build/e16_encx24j600_spiflash/production/_ext/29024758/pwdbased.o
 .debug_frame   0x00001e00      0x994 build/e16_encx24j600_spiflash/production/_ext/29024758/tfm.o
 .debug_frame   0x00002794      0x6f4 build/e16_encx24j600_spiflash/production/_ext/29024758/asn.o
 .debug_frame   0x00002e88      0x1a4 build/e16_encx24j600_spiflash/production/_ext/29024758/des3.o
 .debug_frame   0x0000302c      0x278 build/e16_encx24j600_spiflash/production/_ext/29024758/rsa.o
 .debug_frame   0x000032a4       0xb4 build/e16_encx24j600_spiflash/production/_ext/29024758/aes.o
 .debug_frame   0x00003358       0x84 build/e16_encx24j600_spiflash/production/_ext/29024758/sha256.o
 .debug_frame   0x000033dc       0x90 build/e16_encx24j600_spiflash/production/_ext/29024758/hmac.o
 .debug_frame   0x0000346c      0x10c build/e16_encx24j600_spiflash/production/_ext/29024758/hash.o
 .debug_frame   0x00003578      0x328 build/e16_encx24j600_spiflash/production/_ext/2115314394/drv_encx24j600_spi_bus.o
 .debug_frame   0x000038a0       0x4c build/e16_encx24j600_spiflash/production/_ext/1455582699/drv_encx24j600_closed_state.o
 .debug_frame   0x000038ec       0x48 build/e16_encx24j600_spiflash/production/_ext/1730942135/drv_encx24j600_initialization_state.o
 .debug_frame   0x00003934       0x4c build/e16_encx24j600_spiflash/production/_ext/1730942135/drv_encx24j600_configure_state.o
 .debug_frame   0x00003980       0x4c build/e16_encx24j600_spiflash/production/_ext/1730942135/drv_encx24j600_detect_state.o
 .debug_frame   0x000039cc       0x4c build/e16_encx24j600_spiflash/production/_ext/1730942135/drv_encx24j600_reset_state.o
 .debug_frame   0x00003a18       0x4c build/e16_encx24j600_spiflash/production/_ext/1210338337/drv_encx24j600_tx_packet.o
 .debug_frame   0x00003a64       0x64 build/e16_encx24j600_spiflash/production/_ext/1210338337/drv_encx24j600_rx_packet.o
 .debug_frame   0x00003ac8       0x68 build/e16_encx24j600_spiflash/production/_ext/1207282394/drv_encx24j600_running_state.o
 .debug_frame   0x00003b30       0x48 build/e16_encx24j600_spiflash/production/_ext/1207282394/drv_encx24j600_change_duplex_state.o
 .debug_frame   0x00003b78       0x4c build/e16_encx24j600_spiflash/production/_ext/1207282394/drv_encx24j600_check_int_state.o
 .debug_frame   0x00003bc4       0x4c build/e16_encx24j600_spiflash/production/_ext/1207282394/drv_encx24j600_check_status_state.o
 .debug_frame   0x00003c10       0x4c build/e16_encx24j600_spiflash/production/_ext/1207282394/drv_encx24j600_check_tx_status_state.o
 .debug_frame   0x00003c5c       0x2c build/e16_encx24j600_spiflash/production/_ext/1207282394/drv_encx24j600_reset_rx_state.o
 .debug_frame   0x00003c88      0x23c build/e16_encx24j600_spiflash/production/_ext/772120936/drv_encx24j600_api.o
 .debug_frame   0x00003ec4       0x28 build/e16_encx24j600_spiflash/production/_ext/772120936/drv_encx24j600_main_state.o
 .debug_frame   0x00003eec       0x38 build/e16_encx24j600_spiflash/production/_ext/772120936/drv_encx24j600_utils.o
 .debug_frame   0x00003f24      0x1b8 build/e16_encx24j600_spiflash/production/_ext/1324760662/drv_spi.o
 .debug_frame   0x000040dc      0x22c build/e16_encx24j600_spiflash/production/_ext/1385053818/drv_spi_sys_queue_fifo.o
 .debug_frame   0x00004308      0x1c0 build/e16_encx24j600_spiflash/production/_ext/1112873152/drv_sst25vf016b.o
 .debug_frame   0x000044c8       0xe4 build/e16_encx24j600_spiflash/production/_ext/1335609251/SPIFlash.o
 .debug_frame   0x000045ac      0x3e4 build/e16_encx24j600_spiflash/production/_ext/941160041/drv_tmr.o
 .debug_frame   0x00004990      0x274 build/e16_encx24j600_spiflash/production/_ext/821589181/drv_usart.o
 .debug_frame   0x00004c04       0x90 build/e16_encx24j600_spiflash/production/_ext/821589181/drv_usart_buffer_queue.o
 .debug_frame   0x00004c94       0x58 build/e16_encx24j600_spiflash/production/_ext/821589181/drv_usart_read_write.o
 .debug_frame   0x00004cec       0x40 build/e16_encx24j600_spiflash/production/_ext/1595536294/UART.o
 .debug_frame   0x00004d2c      0x340 build/e16_encx24j600_spiflash/production/_ext/871719959/net_pres.o
 .debug_frame   0x0000506c      0x2c8 build/e16_encx24j600_spiflash/production/_ext/1891376032/sys_command.o
 .debug_frame   0x00005334       0x80 build/e16_encx24j600_spiflash/production/_ext/598853952/sys_buffer.o
 .debug_frame   0x000053b4       0x50 build/e16_encx24j600_spiflash/production/_ext/598853952/sys_queue.o
 .debug_frame   0x00005404      0x108 build/e16_encx24j600_spiflash/production/_ext/1434663852/sys_console.o
 .debug_frame   0x0000550c       0xcc build/e16_encx24j600_spiflash/production/_ext/1434663852/sys_console_uart.o
 .debug_frame   0x000055d8       0xb4 build/e16_encx24j600_spiflash/production/_ext/2137108136/sys_debug.o
 .debug_frame   0x0000568c       0xe8 build/e16_encx24j600_spiflash/production/_ext/482662494/sys_devcon.o
 .debug_frame   0x00005774       0x28 build/e16_encx24j600_spiflash/production/_ext/482662494/sys_devcon_pic32mx.o
 .debug_frame   0x0000579c      0x4a8 build/e16_encx24j600_spiflash/production/_ext/1750042194/sys_fs.o
 .debug_frame   0x00005c44      0x1cc build/e16_encx24j600_spiflash/production/_ext/1750042194/sys_fs_media_manager.o
 .debug_frame   0x00005e10      0x2b8 build/e16_encx24j600_spiflash/production/_ext/614935175/mpfs.o
 .debug_frame   0x000060c8       0x90 build/e16_encx24j600_spiflash/production/_ext/1042686532/sys_int_pic32.o
 .debug_frame   0x00006158       0x68 build/e16_encx24j600_spiflash/production/_ext/470001640/sys_random.o
 .debug_frame   0x000061c0       0x50 build/e16_encx24j600_spiflash/production/_ext/64182180/sys_reset.o
 .debug_frame   0x00006210      0x254 build/e16_encx24j600_spiflash/production/_ext/2110151058/sys_tmr.o
 .debug_frame   0x00006464       0x90 build/e16_encx24j600_spiflash/production/_ext/1886247299/sys_fs_wrapper.o
 .debug_frame   0x000064f4       0xa4 build/e16_encx24j600_spiflash/production/_ext/1886247299/helpers.o
 .debug_frame   0x00006598      0x6b0 build/e16_encx24j600_spiflash/production/_ext/1164207549/tcp.o
 .debug_frame   0x00006c48      0x578 build/e16_encx24j600_spiflash/production/_ext/1164207549/udp.o
 .debug_frame   0x000071c0      0x3c8 build/e16_encx24j600_spiflash/production/_ext/1164207549/arp.o
 .debug_frame   0x00007588      0x4cc build/e16_encx24j600_spiflash/production/_ext/1164207549/dhcp.o
 .debug_frame   0x00007a54      0x400 build/e16_encx24j600_spiflash/production/_ext/1164207549/dns.o
 .debug_frame   0x00007e54      0x300 build/e16_encx24j600_spiflash/production/_ext/1164207549/http.o
 .debug_frame   0x00008154       0xa4 build/e16_encx24j600_spiflash/production/_ext/1164207549/nbns.o
 .debug_frame   0x000081f8      0x178 build/e16_encx24j600_spiflash/production/_ext/1164207549/smtp.o
 .debug_frame   0x00008370       0xc0 build/e16_encx24j600_spiflash/production/_ext/1164207549/tcpip_announce.o
 .debug_frame   0x00008430      0x2cc build/e16_encx24j600_spiflash/production/_ext/1164207549/tcpip_commands.o
 .debug_frame   0x000086fc       0x30 build/e16_encx24j600_spiflash/production/_ext/1164207549/hash_fnv.o
 .debug_frame   0x0000872c       0xb4 build/e16_encx24j600_spiflash/production/_ext/1164207549/oahash.o
 .debug_frame   0x000087e0       0x98 build/e16_encx24j600_spiflash/production/_ext/1164207549/tcpip_heap_alloc.o
 .debug_frame   0x00008878      0x5f8 build/e16_encx24j600_spiflash/production/_ext/1164207549/tcpip_helpers.o
 .debug_frame   0x00008e70      0x958 build/e16_encx24j600_spiflash/production/_ext/1164207549/tcpip_manager.o
 .debug_frame   0x000097c8       0x94 build/e16_encx24j600_spiflash/production/_ext/1164207549/tcpip_notify.o
 .debug_frame   0x0000985c      0x134 build/e16_encx24j600_spiflash/production/_ext/1164207549/tcpip_packet.o
 .debug_frame   0x00009990      0x164 build/e16_encx24j600_spiflash/production/_ext/1164207549/ipv4.o
 .debug_frame   0x00009af4      0x108 build/e16_encx24j600_spiflash/production/_ext/1164207549/sntp.o
 .debug_frame   0x00009bfc      0x104 build/e16_encx24j600_spiflash/production/_ext/1164207549/tcpip_heap_internal.o
 .debug_frame   0x00009d00       0xa0 build/e16_encx24j600_spiflash/production/_ext/1164207549/icmp.o
 .debug_frame   0x00009da0      0x36c build/e16_encx24j600_spiflash/production/_ext/1164207549/dhcps.o
 .debug_frame   0x0000a10c       0xcc build/e16_encx24j600_spiflash/production/_ext/1164207549/ddns.o
 .debug_frame   0x0000a1d8       0xd8 build/e16_encx24j600_spiflash/production/_ext/1699919941/dh.o
 .debug_frame   0x0000a2b0       0xc4 build/e16_encx24j600_spiflash/production/_ext/1699919941/dsa.o
 .debug_frame   0x0000a374       0x8c build/e16_encx24j600_spiflash/production/_ext/1699919941/md4.o
 .debug_frame   0x0000a400       0x88 build/e16_encx24j600_spiflash/production/_ext/1699919941/rabbit.o
 .debug_frame   0x0000a488      0xa68 build/e16_encx24j600_spiflash/production/_ext/615233400/internal.o
 .debug_frame   0x0000aef0       0xc0 build/e16_encx24j600_spiflash/production/_ext/615233400/io.o
 .debug_frame   0x0000afb0       0xf8 build/e16_encx24j600_spiflash/production/_ext/615233400/keys.o
 .debug_frame   0x0000b0a8      0xc00 build/e16_encx24j600_spiflash/production/_ext/615233400/ssl.o
 .debug_frame   0x0000bca8      0x244 build/e16_encx24j600_spiflash/production/_ext/615233400/tls.o
 .debug_frame   0x0000beec       0x20 c:/program files (x86)/microchip/xc32/v1.42/bin/bin/../../lib/gcc/pic32mx/4.8.3\libgcc.a(_udivdi3.o)
 .debug_frame   0x0000bf0c       0x28 c:/program files (x86)/microchip/xc32/v1.42/bin/bin/../../lib/gcc/pic32mx/4.8.3\libgcc.a(floatunsisf.o)
 .debug_frame   0x0000bf34       0x2c c:/program files (x86)/microchip/xc32/v1.42/bin/bin/../../lib/gcc/pic32mx/4.8.3/../../../../pic32mx/lib\libpic32.a(default-bootstrap-exception-handler.o)
 .debug_frame   0x0000bf60       0x20 c:/program files (x86)/microchip/xc32/v1.42/bin/bin/../../lib/gcc/pic32mx/4.8.3/../../../../pic32mx/lib\libpic32.a(default-on-reset.o)
 .debug_frame   0x0000bf80       0x20 c:/program files (x86)/microchip/xc32/v1.42/bin/bin/../../lib/gcc/pic32mx/4.8.3/../../../../pic32mx/lib\libpic32.a(default-on-bootstrap.o)
 .debug_frame   0x0000bfa0       0x20 c:/program files (x86)/microchip/xc32/v1.42/bin/bin/../../lib/gcc/pic32mx/4.8.3/../../../../pic32mx/lib\libpic32.a(defaultinterrupt.o)
 .debug_frame   0x0000bfc0       0x28 c:/program files (x86)/microchip/xc32/v1.42/bin/bin/../../lib/gcc/pic32mx/4.8.3/../../../../pic32mx/lib\libm.a(w_logf.o)
 .debug_frame   0x0000bfe8       0x2c c:/program files (x86)/microchip/xc32/v1.42/bin/bin/../../lib/gcc/pic32mx/4.8.3/../../../../pic32mx/lib\libm.a(w_powf.o)
 .debug_frame   0x0000c014       0x20 c:/program files (x86)/microchip/xc32/v1.42/bin/bin/../../lib/gcc/pic32mx/4.8.3/../../../../pic32mx/lib\libc.a(atoi.o)
 .debug_frame   0x0000c034       0x20 c:/program files (x86)/microchip/xc32/v1.42/bin/bin/../../lib/gcc/pic32mx/4.8.3/../../../../pic32mx/lib\libc.a(atol.o)
 .debug_frame   0x0000c054       0x28 c:/program files (x86)/microchip/xc32/v1.42/bin/bin/../../lib/gcc/pic32mx/4.8.3/../../../../pic32mx/lib\libc.a(calloc.o)
 .debug_frame   0x0000c07c       0x78 c:/program files (x86)/microchip/xc32/v1.42/bin/bin/../../lib/gcc/pic32mx/4.8.3/../../../../pic32mx/lib\libc.a(ctime.o)
 .debug_frame   0x0000c0f4      0x120 c:/program files (x86)/microchip/xc32/v1.42/bin/bin/../../lib/gcc/pic32mx/4.8.3/../../../../pic32mx/lib\libc.a(ctypef.o)
 .debug_frame   0x0000c214       0x68 c:/program files (x86)/microchip/xc32/v1.42/bin/bin/../../lib/gcc/pic32mx/4.8.3/../../../../pic32mx/lib\libc.a(malloc.o)
 .debug_frame   0x0000c27c       0x20 c:/program files (x86)/microchip/xc32/v1.42/bin/bin/../../lib/gcc/pic32mx/4.8.3/../../../../pic32mx/lib\libc.a(memmove.o)
 .debug_frame   0x0000c29c       0x30 c:/program files (x86)/microchip/xc32/v1.42/bin/bin/../../lib/gcc/pic32mx/4.8.3/../../../../pic32mx/lib\libc.a(rand.o)
 .debug_frame   0x0000c2cc       0x20 c:/program files (x86)/microchip/xc32/v1.42/bin/bin/../../lib/gcc/pic32mx/4.8.3/../../../../pic32mx/lib\libc.a(strcat.o)
 .debug_frame   0x0000c2ec       0x20 c:/program files (x86)/microchip/xc32/v1.42/bin/bin/../../lib/gcc/pic32mx/4.8.3/../../../../pic32mx/lib\libc.a(strchr.o)
 .debug_frame   0x0000c30c       0x20 c:/program files (x86)/microchip/xc32/v1.42/bin/bin/../../lib/gcc/pic32mx/4.8.3/../../../../pic32mx/lib\libc.a(strncat.o)
 .debug_frame   0x0000c32c       0x20 c:/program files (x86)/microchip/xc32/v1.42/bin/bin/../../lib/gcc/pic32mx/4.8.3/../../../../pic32mx/lib\libc.a(strncmp.o)
 .debug_frame   0x0000c34c       0x20 c:/program files (x86)/microchip/xc32/v1.42/bin/bin/../../lib/gcc/pic32mx/4.8.3/../../../../pic32mx/lib\libc.a(strncpy.o)
 .debug_frame   0x0000c36c       0x2c c:/program files (x86)/microchip/xc32/v1.42/bin/bin/../../lib/gcc/pic32mx/4.8.3/../../../../pic32mx/lib\libc.a(strstr.o)
 .debug_frame   0x0000c398       0x58 c:/program files (x86)/microchip/xc32/v1.42/bin/bin/../../lib/gcc/pic32mx/4.8.3/../../../../pic32mx/lib\libc.a(strtol.o)
 .debug_frame   0x0000c3f0       0x28 c:/program files (x86)/microchip/xc32/v1.42/bin/bin/../../lib/gcc/pic32mx/4.8.3/../../../../pic32mx/lib\libc.a(sprintf_cdnopuxX.eo)
 .debug_frame   0x0000c418       0x2c c:/program files (x86)/microchip/xc32/v1.42/bin/bin/../../lib/gcc/pic32mx/4.8.3/../../../../pic32mx/lib\libc.a(vsnprintf.o)
 .debug_frame   0x0000c444       0x38 c:/program files (x86)/microchip/xc32/v1.42/bin/bin/../../lib/gcc/pic32mx/4.8.3/../../../../pic32mx/lib\libc.a(doprnt_cdnopuxX.eo)
 .debug_frame   0x0000c47c       0x74 c:/program files (x86)/microchip/xc32/v1.42/bin/bin/../../lib/gcc/pic32mx/4.8.3/../../../../pic32mx/lib\libc.a(doprnt.o)
 .debug_frame   0x0000c4f0       0x2c c:/program files (x86)/microchip/xc32/v1.42/bin/bin/../../lib/gcc/pic32mx/4.8.3/../../../../pic32mx/lib\libc.a(_fputc_simple.o)
 .debug_frame   0x0000c51c       0x28 c:/program files (x86)/microchip/xc32/v1.42/bin/bin/../../lib/gcc/pic32mx/4.8.3/../../../../pic32mx/lib\libc.a(_flsbuf_simple.o)
 .debug_frame   0x0000c544       0x84 c:/program files (x86)/microchip/xc32/v1.42/bin/bin/../../lib/gcc/pic32mx/4.8.3/../../../../pic32mx/lib\libpic32.a(sbrk.o)
 .debug_frame   0x0000c5c8       0x38 c:/program files (x86)/microchip/xc32/v1.42/bin/bin/../../lib/gcc/pic32mx/4.8.3/../../../../pic32mx/lib\libpic32.a(write.o)
 .debug_frame   0x0000c600       0xa0 c:/program files (x86)/microchip/xc32/v1.42/bin/bin/../../lib/gcc/pic32mx/4.8.3/../../../../pic32mx/lib\libpic32.a(isinf.o)
 .debug_frame   0x0000c6a0       0x28 c:/program files (x86)/microchip/xc32/v1.42/bin/bin/../../lib/gcc/pic32mx/4.8.3/../../../../pic32mx/lib\libpic32.a(_mon_putc.o)
 .debug_frame   0x0000c6c8       0x20 c:/program files (x86)/microchip/xc32/v1.42/bin/bin/../../lib/gcc/pic32mx/4.8.3/../../../../pic32mx/lib\libe.a(_floatdisf.o)
 .debug_frame   0x0000c6e8       0x20 c:/program files (x86)/microchip/xc32/v1.42/bin/bin/../../lib/gcc/pic32mx/4.8.3/../../../../pic32mx/lib\libe.a(_unorddf2.o)
 .debug_frame   0x0000c708       0x20 c:/program files (x86)/microchip/xc32/v1.42/bin/bin/../../lib/gcc/pic32mx/4.8.3\libgcc.a(_umoddi3.o)

.debug_str      0x00000000     0x4016
 *(.debug_str)
 .debug_str     0x00000000       0x3d build/e16_encx24j600_spiflash/production/_ext/1495834797/drv_flash_static.o
 .debug_str     0x0000003d       0x7d build/e16_encx24j600_spiflash/production/_ext/1676865386/drv_spi_tasks.o
 .debug_str     0x000000ba       0xc5 build/e16_encx24j600_spiflash/production/_ext/1676865386/drv_spi_api.o
 .debug_str     0x0000017f       0x49 build/e16_encx24j600_spiflash/production/_ext/1676865386/drv_spi_master_ebm_tasks.o
 .debug_str     0x000001c8       0x1e build/e16_encx24j600_spiflash/production/_ext/1676865386/drv_spi_master_rm_tasks.o
 .debug_str     0x000001e6      0x10d build/e16_encx24j600_spiflash/production/_ext/971131287/net_pres_enc_glue.o
 .debug_str     0x000002f3        0xa build/e16_encx24j600_spiflash/production/_ext/971131287/net_pres_cert_store.o
 .debug_str     0x000002fd       0x39 build/e16_encx24j600_spiflash/production/_ext/360868340/sys_clk_static.o
 .debug_str     0x00000336       0x55 build/e16_encx24j600_spiflash/production/_ext/394705988/sys_ports_static.o
 .debug_str     0x0000038b       0xa4 build/e16_encx24j600_spiflash/production/_ext/689678155/system_init.o
 .debug_str     0x0000042f        0x0 build/e16_encx24j600_spiflash/production/_ext/689678155/system_interrupt.o
 .debug_str     0x0000042f        0x0 build/e16_encx24j600_spiflash/production/_ext/689678155/system_exceptions.o
 .debug_str     0x0000042f        0x0 build/e16_encx24j600_spiflash/production/_ext/689678155/system_tasks.o
 .debug_str     0x0000042f        0x0 build/e16_encx24j600_spiflash/production/_ext/1360937237/app.o
 .debug_str     0x0000042f        0x0 build/e16_encx24j600_spiflash/production/_ext/1360937237/main.o
 .debug_str     0x0000042f        0xb build/e16_encx24j600_spiflash/production/_ext/1360937237/http_print.o
 .debug_str     0x0000043a       0x83 build/e16_encx24j600_spiflash/production/_ext/1360937237/custom_http_app.o
 .debug_str     0x000004bd        0x0 build/e16_encx24j600_spiflash/production/_ext/1360937237/mpfs_img2.o
 .debug_str     0x000004bd       0x15 build/e16_encx24j600_spiflash/production/_ext/728775826/bsp_sys_init.o
 .debug_str     0x000004d2       0x42 build/e16_encx24j600_spiflash/production/_ext/29024758/random.o
 .debug_str     0x00000514        0x0 build/e16_encx24j600_spiflash/production/_ext/29024758/arc4.o
 .debug_str     0x00000514       0xbf build/e16_encx24j600_spiflash/production/_ext/29024758/crypto.o
 .debug_str     0x000005d3        0x0 build/e16_encx24j600_spiflash/production/_ext/29024758/md5.o
 .debug_str     0x000005d3        0x0 build/e16_encx24j600_spiflash/production/_ext/29024758/sha.o
 .debug_str     0x000005d3       0x17 build/e16_encx24j600_spiflash/production/_ext/29024758/coding.o
 .debug_str     0x000005ea        0x0 build/e16_encx24j600_spiflash/production/_ext/29024758/error.o
 .debug_str     0x000005ea        0x0 build/e16_encx24j600_spiflash/production/_ext/29024758/integer.o
 .debug_str     0x000005ea        0x0 build/e16_encx24j600_spiflash/production/_ext/29024758/logging.o
 .debug_str     0x000005ea        0x0 build/e16_encx24j600_spiflash/production/_ext/29024758/memory.o
 .debug_str     0x000005ea        0x0 build/e16_encx24j600_spiflash/production/_ext/29024758/misc.o
 .debug_str     0x000005ea        0x0 build/e16_encx24j600_spiflash/production/_ext/29024758/port.o
 .debug_str     0x000005ea       0x54 build/e16_encx24j600_spiflash/production/_ext/29024758/ecc.o
 .debug_str     0x0000063e       0x4c build/e16_encx24j600_spiflash/production/_ext/29024758/pwdbased.o
 .debug_str     0x0000068a        0xe build/e16_encx24j600_spiflash/production/_ext/29024758/tfm.o
 .debug_str     0x00000698      0x14e build/e16_encx24j600_spiflash/production/_ext/29024758/asn.o
 .debug_str     0x000007e6        0x7 build/e16_encx24j600_spiflash/production/_ext/29024758/des3.o
 .debug_str     0x000007ed       0x64 build/e16_encx24j600_spiflash/production/_ext/29024758/rsa.o
 .debug_str     0x00000851        0x9 build/e16_encx24j600_spiflash/production/_ext/29024758/aes.o
 .debug_str     0x0000085a        0x7 build/e16_encx24j600_spiflash/production/_ext/29024758/sha256.o
 .debug_str     0x00000861        0x0 build/e16_encx24j600_spiflash/production/_ext/29024758/sha512.o
 .debug_str     0x00000861       0x16 build/e16_encx24j600_spiflash/production/_ext/29024758/hmac.o
 .debug_str     0x00000877       0x2e build/e16_encx24j600_spiflash/production/_ext/29024758/hash.o
 .debug_str     0x000008a5        0x0 build/e16_encx24j600_spiflash/production/_ext/29024758/compress.o
 .debug_str     0x000008a5       0xbb build/e16_encx24j600_spiflash/production/_ext/2115314394/drv_encx24j600_spi_bus.o
 .debug_str     0x00000960       0x55 build/e16_encx24j600_spiflash/production/_ext/1455582699/drv_encx24j600_closed_state.o
 .debug_str     0x000009b5       0x55 build/e16_encx24j600_spiflash/production/_ext/1730942135/drv_encx24j600_initialization_state.o
 .debug_str     0x00000a0a       0x55 build/e16_encx24j600_spiflash/production/_ext/1730942135/drv_encx24j600_configure_state.o
 .debug_str     0x00000a5f       0x55 build/e16_encx24j600_spiflash/production/_ext/1730942135/drv_encx24j600_detect_state.o
 .debug_str     0x00000ab4       0x55 build/e16_encx24j600_spiflash/production/_ext/1730942135/drv_encx24j600_reset_state.o
 .debug_str     0x00000b09       0x55 build/e16_encx24j600_spiflash/production/_ext/1210338337/drv_encx24j600_tx_packet.o
 .debug_str     0x00000b5e       0x55 build/e16_encx24j600_spiflash/production/_ext/1210338337/drv_encx24j600_rx_packet.o
 .debug_str     0x00000bb3       0x55 build/e16_encx24j600_spiflash/production/_ext/1207282394/drv_encx24j600_running_state.o
 .debug_str     0x00000c08       0x55 build/e16_encx24j600_spiflash/production/_ext/1207282394/drv_encx24j600_change_duplex_state.o
 .debug_str     0x00000c5d       0x55 build/e16_encx24j600_spiflash/production/_ext/1207282394/drv_encx24j600_check_int_state.o
 .debug_str     0x00000cb2       0x55 build/e16_encx24j600_spiflash/production/_ext/1207282394/drv_encx24j600_check_status_state.o
 .debug_str     0x00000d07       0x55 build/e16_encx24j600_spiflash/production/_ext/1207282394/drv_encx24j600_check_tx_status_state.o
 .debug_str     0x00000d5c       0x55 build/e16_encx24j600_spiflash/production/_ext/1207282394/drv_encx24j600_reset_rx_state.o
 .debug_str     0x00000db1       0xaa build/e16_encx24j600_spiflash/production/_ext/772120936/drv_encx24j600_api.o
 .debug_str     0x00000e5b       0x55 build/e16_encx24j600_spiflash/production/_ext/772120936/drv_encx24j600_main_state.o
 .debug_str     0x00000eb0       0x61 build/e16_encx24j600_spiflash/production/_ext/772120936/drv_encx24j600_utils.o
 .debug_str     0x00000f11      0x168 build/e16_encx24j600_spiflash/production/_ext/1324760662/drv_spi.o
 .debug_str     0x00001079      0x147 build/e16_encx24j600_spiflash/production/_ext/1385053818/drv_spi_sys_queue_fifo.o
 .debug_str     0x000011c0       0xcc build/e16_encx24j600_spiflash/production/_ext/1112873152/drv_sst25vf016b.o
 .debug_str     0x0000128c       0x1d build/e16_encx24j600_spiflash/production/_ext/1335609251/SPIFlash.o
 .debug_str     0x000012a9       0xb9 build/e16_encx24j600_spiflash/production/_ext/941160041/drv_tmr.o
 .debug_str     0x00001362      0x1b5 build/e16_encx24j600_spiflash/production/_ext/821589181/drv_usart.o
 .debug_str     0x00001517       0x74 build/e16_encx24j600_spiflash/production/_ext/821589181/drv_usart_buffer_queue.o
 .debug_str     0x0000158b       0x65 build/e16_encx24j600_spiflash/production/_ext/821589181/drv_usart_read_write.o
 .debug_str     0x000015f0       0x15 build/e16_encx24j600_spiflash/production/_ext/1595536294/UART.o
 .debug_str     0x00001605       0x95 build/e16_encx24j600_spiflash/production/_ext/871719959/net_pres.o
 .debug_str     0x0000169a       0x46 build/e16_encx24j600_spiflash/production/_ext/1891376032/sys_command.o
 .debug_str     0x000016e0       0x34 build/e16_encx24j600_spiflash/production/_ext/598853952/sys_buffer.o
 .debug_str     0x00001714       0x14 build/e16_encx24j600_spiflash/production/_ext/598853952/sys_queue.o
 .debug_str     0x00001728        0xd build/e16_encx24j600_spiflash/production/_ext/1434663852/sys_console.o
 .debug_str     0x00001735       0x18 build/e16_encx24j600_spiflash/production/_ext/1434663852/sys_console_uart.o
 .debug_str     0x0000174d       0x12 build/e16_encx24j600_spiflash/production/_ext/2137108136/sys_debug.o
 .debug_str     0x0000175f       0x16 build/e16_encx24j600_spiflash/production/_ext/482662494/sys_devcon.o
 .debug_str     0x00001775        0x6 build/e16_encx24j600_spiflash/production/_ext/482662494/sys_devcon_pic32mx.o
 .debug_str     0x0000177b       0x9a build/e16_encx24j600_spiflash/production/_ext/1750042194/sys_fs.o
 .debug_str     0x00001815       0xd2 build/e16_encx24j600_spiflash/production/_ext/1750042194/sys_fs_media_manager.o
 .debug_str     0x000018e7       0x35 build/e16_encx24j600_spiflash/production/_ext/614935175/mpfs.o
 .debug_str     0x0000191c       0x2d build/e16_encx24j600_spiflash/production/_ext/1042686532/sys_int_pic32.o
 .debug_str     0x00001949       0x1d build/e16_encx24j600_spiflash/production/_ext/470001640/sys_random.o
 .debug_str     0x00001966        0xd build/e16_encx24j600_spiflash/production/_ext/64182180/sys_reset.o
 .debug_str     0x00001973       0x7d build/e16_encx24j600_spiflash/production/_ext/2110151058/sys_tmr.o
 .debug_str     0x000019f0       0x1d build/e16_encx24j600_spiflash/production/_ext/1886247299/sys_fs_wrapper.o
 .debug_str     0x00001a0d        0x0 build/e16_encx24j600_spiflash/production/_ext/1886247299/helpers.o
 .debug_str     0x00001a0d      0x1cb build/e16_encx24j600_spiflash/production/_ext/1164207549/tcp.o
 .debug_str     0x00001bd8      0x15f build/e16_encx24j600_spiflash/production/_ext/1164207549/udp.o
 .debug_str     0x00001d37      0x104 build/e16_encx24j600_spiflash/production/_ext/1164207549/arp.o
 .debug_str     0x00001e3b       0xe1 build/e16_encx24j600_spiflash/production/_ext/1164207549/dhcp.o
 .debug_str     0x00001f1c      0x15a build/e16_encx24j600_spiflash/production/_ext/1164207549/dns.o
 .debug_str     0x00002076       0xa1 build/e16_encx24j600_spiflash/production/_ext/1164207549/http.o
 .debug_str     0x00002117       0x24 build/e16_encx24j600_spiflash/production/_ext/1164207549/nbns.o
 .debug_str     0x0000213b       0x30 build/e16_encx24j600_spiflash/production/_ext/1164207549/smtp.o
 .debug_str     0x0000216b       0x24 build/e16_encx24j600_spiflash/production/_ext/1164207549/tcpip_announce.o
 .debug_str     0x0000218f      0x115 build/e16_encx24j600_spiflash/production/_ext/1164207549/tcpip_commands.o
 .debug_str     0x000022a4        0x0 build/e16_encx24j600_spiflash/production/_ext/1164207549/hash_fnv.o
 .debug_str     0x000022a4        0xa build/e16_encx24j600_spiflash/production/_ext/1164207549/oahash.o
 .debug_str     0x000022ae       0x70 build/e16_encx24j600_spiflash/production/_ext/1164207549/tcpip_heap_alloc.o
 .debug_str     0x0000231e       0xa6 build/e16_encx24j600_spiflash/production/_ext/1164207549/tcpip_helpers.o
 .debug_str     0x000023c4      0x2ec build/e16_encx24j600_spiflash/production/_ext/1164207549/tcpip_manager.o
 .debug_str     0x000026b0       0x33 build/e16_encx24j600_spiflash/production/_ext/1164207549/tcpip_notify.o
 .debug_str     0x000026e3       0x2c build/e16_encx24j600_spiflash/production/_ext/1164207549/tcpip_packet.o
 .debug_str     0x0000270f       0x62 build/e16_encx24j600_spiflash/production/_ext/1164207549/ipv4.o
 .debug_str     0x00002771       0x24 build/e16_encx24j600_spiflash/production/_ext/1164207549/sntp.o
 .debug_str     0x00002795       0x59 build/e16_encx24j600_spiflash/production/_ext/1164207549/tcpip_heap_internal.o
 .debug_str     0x000027ee       0x36 build/e16_encx24j600_spiflash/production/_ext/1164207549/icmp.o
 .debug_str     0x00002824      0x1c4 build/e16_encx24j600_spiflash/production/_ext/1164207549/dhcps.o
 .debug_str     0x000029e8       0x56 build/e16_encx24j600_spiflash/production/_ext/1164207549/ddns.o
 .debug_str     0x00002a3e        0x0 build/e16_encx24j600_spiflash/production/_ext/1699919941/asm.o
 .debug_str     0x00002a3e        0x0 build/e16_encx24j600_spiflash/production/_ext/1699919941/blake2b.o
 .debug_str     0x00002a3e        0x0 build/e16_encx24j600_spiflash/production/_ext/1699919941/camellia.o
 .debug_str     0x00002a3e        0x0 build/e16_encx24j600_spiflash/production/_ext/1699919941/chacha.o
 .debug_str     0x00002a3e        0x0 build/e16_encx24j600_spiflash/production/_ext/1699919941/chacha20_poly1305.o
 .debug_str     0x00002a3e        0x0 build/e16_encx24j600_spiflash/production/_ext/1699919941/curve25519.o
 .debug_str     0x00002a3e        0x7 build/e16_encx24j600_spiflash/production/_ext/1699919941/dh.o
 .debug_str     0x00002a45        0x0 build/e16_encx24j600_spiflash/production/_ext/1699919941/dsa.o
 .debug_str     0x00002a45        0x0 build/e16_encx24j600_spiflash/production/_ext/1699919941/ecc_fp.o
 .debug_str     0x00002a45        0x0 build/e16_encx24j600_spiflash/production/_ext/1699919941/ed25519.o
 .debug_str     0x00002a45        0x0 build/e16_encx24j600_spiflash/production/_ext/1699919941/fe_low_mem.o
 .debug_str     0x00002a45        0x0 build/e16_encx24j600_spiflash/production/_ext/1699919941/fe_operations.o
 .debug_str     0x00002a45        0x0 build/e16_encx24j600_spiflash/production/_ext/1699919941/ge_low_mem.o
 .debug_str     0x00002a45        0x0 build/e16_encx24j600_spiflash/production/_ext/1699919941/ge_operations.o
 .debug_str     0x00002a45        0x0 build/e16_encx24j600_spiflash/production/_ext/1699919941/hc128.o
 .debug_str     0x00002a45        0x0 build/e16_encx24j600_spiflash/production/_ext/1699919941/md2.o
 .debug_str     0x00002a45        0x0 build/e16_encx24j600_spiflash/production/_ext/1699919941/md4.o
 .debug_str     0x00002a45        0x0 build/e16_encx24j600_spiflash/production/_ext/1699919941/pkcs7.o
 .debug_str     0x00002a45        0x0 build/e16_encx24j600_spiflash/production/_ext/1699919941/poly1305.o
 .debug_str     0x00002a45        0xa build/e16_encx24j600_spiflash/production/_ext/1699919941/rabbit.o
 .debug_str     0x00002a4f        0x0 build/e16_encx24j600_spiflash/production/_ext/1699919941/ripemd.o
 .debug_str     0x00002a4f        0x0 build/e16_encx24j600_spiflash/production/_ext/615233400/crl.o
 .debug_str     0x00002a4f      0x670 build/e16_encx24j600_spiflash/production/_ext/615233400/internal.o
 .debug_str     0x000030bf      0x380 build/e16_encx24j600_spiflash/production/_ext/615233400/io.o
 .debug_str     0x0000343f      0x38f build/e16_encx24j600_spiflash/production/_ext/615233400/keys.o
 .debug_str     0x000037ce        0x0 build/e16_encx24j600_spiflash/production/_ext/615233400/ocsp.o
 .debug_str     0x000037ce        0x0 build/e16_encx24j600_spiflash/production/_ext/615233400/sniffer.o
 .debug_str     0x000037ce      0x48d build/e16_encx24j600_spiflash/production/_ext/615233400/ssl.o
 .debug_str     0x00003c5b      0x3bb build/e16_encx24j600_spiflash/production/_ext/615233400/tls.o
 .debug_str     0x00004016        0x0 build/e16_encx24j600_spiflash/production/_ext/29024758/asm.o
 .debug_str     0x00004016        0x0 c:/program files (x86)/microchip/xc32/v1.42/bin/bin/../../lib/gcc/pic32mx/4.8.3\libgcc.a(_udivdi3.o)
 .debug_str     0x00004016        0x0 c:/program files (x86)/microchip/xc32/v1.42/bin/bin/../../lib/gcc/pic32mx/4.8.3\libgcc.a(floatunsisf.o)
 .debug_str     0x00004016        0x0 c:/program files (x86)/microchip/xc32/v1.42/bin/bin/../../lib/gcc/pic32mx/4.8.3/../../../../pic32mx/lib\libpic32.a(default-bootstrap-exception-handler.o)
 .debug_str     0x00004016        0x0 c:/program files (x86)/microchip/xc32/v1.42/bin/bin/../../lib/gcc/pic32mx/4.8.3/../../../../pic32mx/lib\libpic32.a(default-on-reset.o)
 .debug_str     0x00004016        0x0 c:/program files (x86)/microchip/xc32/v1.42/bin/bin/../../lib/gcc/pic32mx/4.8.3/../../../../pic32mx/lib\libpic32.a(default-on-bootstrap.o)
 .debug_str     0x00004016        0x0 c:/program files (x86)/microchip/xc32/v1.42/bin/bin/../../lib/gcc/pic32mx/4.8.3/../../../../pic32mx/lib\libpic32.a(defaultinterrupt.o)
 .debug_str     0x00004016        0x0 c:/program files (x86)/microchip/xc32/v1.42/bin/bin/../../lib/gcc/pic32mx/4.8.3/../../../../pic32mx/lib\libm.a(w_logf.o)
 .debug_str     0x00004016        0x0 c:/program files (x86)/microchip/xc32/v1.42/bin/bin/../../lib/gcc/pic32mx/4.8.3/../../../../pic32mx/lib\libm.a(w_powf.o)
 .debug_str     0x00004016        0x0 c:/program files (x86)/microchip/xc32/v1.42/bin/bin/../../lib/gcc/pic32mx/4.8.3/../../../../pic32mx/lib\libm.a(s_lib_ver.o)
 .debug_str     0x00004016        0x0 c:/program files (x86)/microchip/xc32/v1.42/bin/bin/../../lib/gcc/pic32mx/4.8.3/../../../../pic32mx/lib\libc.a(atoi.o)
 .debug_str     0x00004016        0x0 c:/program files (x86)/microchip/xc32/v1.42/bin/bin/../../lib/gcc/pic32mx/4.8.3/../../../../pic32mx/lib\libc.a(atol.o)
 .debug_str     0x00004016        0x0 c:/program files (x86)/microchip/xc32/v1.42/bin/bin/../../lib/gcc/pic32mx/4.8.3/../../../../pic32mx/lib\libc.a(calloc.o)
 .debug_str     0x00004016        0x0 c:/program files (x86)/microchip/xc32/v1.42/bin/bin/../../lib/gcc/pic32mx/4.8.3/../../../../pic32mx/lib\libc.a(ctime.o)
 .debug_str     0x00004016        0x0 c:/program files (x86)/microchip/xc32/v1.42/bin/bin/../../lib/gcc/pic32mx/4.8.3/../../../../pic32mx/lib\libc.a(ctype.o)
 .debug_str     0x00004016        0x0 c:/program files (x86)/microchip/xc32/v1.42/bin/bin/../../lib/gcc/pic32mx/4.8.3/../../../../pic32mx/lib\libc.a(ctypef.o)
 .debug_str     0x00004016        0x0 c:/program files (x86)/microchip/xc32/v1.42/bin/bin/../../lib/gcc/pic32mx/4.8.3/../../../../pic32mx/lib\libc.a(errno.o)
 .debug_str     0x00004016        0x0 c:/program files (x86)/microchip/xc32/v1.42/bin/bin/../../lib/gcc/pic32mx/4.8.3/../../../../pic32mx/lib\libc.a(malloc.o)
 .debug_str     0x00004016        0x0 c:/program files (x86)/microchip/xc32/v1.42/bin/bin/../../lib/gcc/pic32mx/4.8.3/../../../../pic32mx/lib\libc.a(memmove.o)
 .debug_str     0x00004016        0x0 c:/program files (x86)/microchip/xc32/v1.42/bin/bin/../../lib/gcc/pic32mx/4.8.3/../../../../pic32mx/lib\libc.a(rand.o)
 .debug_str     0x00004016        0x0 c:/program files (x86)/microchip/xc32/v1.42/bin/bin/../../lib/gcc/pic32mx/4.8.3/../../../../pic32mx/lib\libc.a(strcat.o)
 .debug_str     0x00004016        0x0 c:/program files (x86)/microchip/xc32/v1.42/bin/bin/../../lib/gcc/pic32mx/4.8.3/../../../../pic32mx/lib\libc.a(strchr.o)
 .debug_str     0x00004016        0x0 c:/program files (x86)/microchip/xc32/v1.42/bin/bin/../../lib/gcc/pic32mx/4.8.3/../../../../pic32mx/lib\libc.a(strncat.o)
 .debug_str     0x00004016        0x0 c:/program files (x86)/microchip/xc32/v1.42/bin/bin/../../lib/gcc/pic32mx/4.8.3/../../../../pic32mx/lib\libc.a(strncmp.o)
 .debug_str     0x00004016        0x0 c:/program files (x86)/microchip/xc32/v1.42/bin/bin/../../lib/gcc/pic32mx/4.8.3/../../../../pic32mx/lib\libc.a(strncpy.o)
 .debug_str     0x00004016        0x0 c:/program files (x86)/microchip/xc32/v1.42/bin/bin/../../lib/gcc/pic32mx/4.8.3/../../../../pic32mx/lib\libc.a(strstr.o)
 .debug_str     0x00004016        0x0 c:/program files (x86)/microchip/xc32/v1.42/bin/bin/../../lib/gcc/pic32mx/4.8.3/../../../../pic32mx/lib\libc.a(strtol.o)
 .debug_str     0x00004016        0x0 c:/program files (x86)/microchip/xc32/v1.42/bin/bin/../../lib/gcc/pic32mx/4.8.3/../../../../pic32mx/lib\libc.a(sprintf_cdnopuxX.eo)
 .debug_str     0x00004016        0x0 c:/program files (x86)/microchip/xc32/v1.42/bin/bin/../../lib/gcc/pic32mx/4.8.3/../../../../pic32mx/lib\libc.a(vsnprintf.o)
 .debug_str     0x00004016        0x0 c:/program files (x86)/microchip/xc32/v1.42/bin/bin/../../lib/gcc/pic32mx/4.8.3/../../../../pic32mx/lib\libc.a(doprnt_cdnopuxX.eo)
 .debug_str     0x00004016        0x0 c:/program files (x86)/microchip/xc32/v1.42/bin/bin/../../lib/gcc/pic32mx/4.8.3/../../../../pic32mx/lib\libc.a(doprnt.o)
 .debug_str     0x00004016        0x0 c:/program files (x86)/microchip/xc32/v1.42/bin/bin/../../lib/gcc/pic32mx/4.8.3/../../../../pic32mx/lib\libc.a(_fputc_simple.o)
 .debug_str     0x00004016        0x0 c:/program files (x86)/microchip/xc32/v1.42/bin/bin/../../lib/gcc/pic32mx/4.8.3/../../../../pic32mx/lib\libc.a(powersf.o)
 .debug_str     0x00004016        0x0 c:/program files (x86)/microchip/xc32/v1.42/bin/bin/../../lib/gcc/pic32mx/4.8.3/../../../../pic32mx/lib\libc.a(_iob.o)
 .debug_str     0x00004016        0x0 c:/program files (x86)/microchip/xc32/v1.42/bin/bin/../../lib/gcc/pic32mx/4.8.3/../../../../pic32mx/lib\libc.a(_flsbuf_simple.o)
 .debug_str     0x00004016        0x0 c:/program files (x86)/microchip/xc32/v1.42/bin/bin/../../lib/gcc/pic32mx/4.8.3/../../../../pic32mx/lib\libpic32.a(sbrk.o)
 .debug_str     0x00004016        0x0 c:/program files (x86)/microchip/xc32/v1.42/bin/bin/../../lib/gcc/pic32mx/4.8.3/../../../../pic32mx/lib\libpic32.a(write.o)
 .debug_str     0x00004016        0x0 c:/program files (x86)/microchip/xc32/v1.42/bin/bin/../../lib/gcc/pic32mx/4.8.3/../../../../pic32mx/lib\libpic32.a(isinf.o)
 .debug_str     0x00004016        0x0 c:/program files (x86)/microchip/xc32/v1.42/bin/bin/../../lib/gcc/pic32mx/4.8.3/../../../../pic32mx/lib\libpic32.a(_mon_putc.o)
 .debug_str     0x00004016        0x0 c:/program files (x86)/microchip/xc32/v1.42/bin/bin/../../lib/gcc/pic32mx/4.8.3/../../../../pic32mx/lib\libpic32.a(xc32_uart.o)
 .debug_str     0x00004016        0x0 c:/program files (x86)/microchip/xc32/v1.42/bin/bin/../../lib/gcc/pic32mx/4.8.3/../../../../pic32mx/lib\libe.a(_floatdisf.o)
 .debug_str     0x00004016        0x0 c:/program files (x86)/microchip/xc32/v1.42/bin/bin/../../lib/gcc/pic32mx/4.8.3/../../../../pic32mx/lib\libe.a(_unorddf2.o)
 .debug_str     0x00004016        0x0 c:/program files (x86)/microchip/xc32/v1.42/bin/bin/../../lib/gcc/pic32mx/4.8.3\libgcc.a(_umoddi3.o)

.debug_loc      0x00000000    0xa5583
 *(.debug_loc)
 .debug_loc     0x00000000      0x177 build/e16_encx24j600_spiflash/production/_ext/1495834797/drv_flash_static.o
 .debug_loc     0x00000177     0x13ec build/e16_encx24j600_spiflash/production/_ext/1676865386/drv_spi_tasks.o
 .debug_loc     0x00001563     0x2a75 build/e16_encx24j600_spiflash/production/_ext/1676865386/drv_spi_api.o
 .debug_loc     0x00003fd8      0x92b build/e16_encx24j600_spiflash/production/_ext/1676865386/drv_spi_master_ebm_tasks.o
 .debug_loc     0x00004903      0x655 build/e16_encx24j600_spiflash/production/_ext/1676865386/drv_spi_master_rm_tasks.o
 .debug_loc     0x00004f58      0xbea build/e16_encx24j600_spiflash/production/_ext/971131287/net_pres_enc_glue.o
 .debug_loc     0x00005b42       0x49 build/e16_encx24j600_spiflash/production/_ext/360868340/sys_clk_static.o
 .debug_loc     0x00005b8b      0xecf build/e16_encx24j600_spiflash/production/_ext/394705988/sys_ports_static.o
 .debug_loc     0x00006a5a       0x21 build/e16_encx24j600_spiflash/production/_ext/689678155/system_init.o
 .debug_loc     0x00006a7b       0xed build/e16_encx24j600_spiflash/production/_ext/1360937237/app.o
 .debug_loc     0x00006b68      0x584 build/e16_encx24j600_spiflash/production/_ext/1360937237/http_print.o
 .debug_loc     0x000070ec     0x1032 build/e16_encx24j600_spiflash/production/_ext/1360937237/custom_http_app.o
 .debug_loc     0x0000811e      0x10e build/e16_encx24j600_spiflash/production/_ext/728775826/bsp_sys_init.o
 .debug_loc     0x0000822c     0x1231 build/e16_encx24j600_spiflash/production/_ext/29024758/random.o
 .debug_loc     0x0000945d      0x1b5 build/e16_encx24j600_spiflash/production/_ext/29024758/arc4.o
 .debug_loc     0x00009612     0x1c51 build/e16_encx24j600_spiflash/production/_ext/29024758/crypto.o
 .debug_loc     0x0000b263     0x20a0 build/e16_encx24j600_spiflash/production/_ext/29024758/md5.o
 .debug_loc     0x0000d303    0x2f790 build/e16_encx24j600_spiflash/production/_ext/29024758/sha.o
 .debug_loc     0x0003ca93     0x1042 build/e16_encx24j600_spiflash/production/_ext/29024758/coding.o
 .debug_loc     0x0003dad5       0x7c build/e16_encx24j600_spiflash/production/_ext/29024758/error.o
 .debug_loc     0x0003db51      0x173 build/e16_encx24j600_spiflash/production/_ext/29024758/memory.o
 .debug_loc     0x0003dcc4     0x3259 build/e16_encx24j600_spiflash/production/_ext/29024758/ecc.o
 .debug_loc     0x00040f1d      0xf41 build/e16_encx24j600_spiflash/production/_ext/29024758/pwdbased.o
 .debug_loc     0x00041e5e     0x43d1 build/e16_encx24j600_spiflash/production/_ext/29024758/tfm.o
 .debug_loc     0x0004622f     0x74ad build/e16_encx24j600_spiflash/production/_ext/29024758/asn.o
 .debug_loc     0x0004d6dc     0x2be4 build/e16_encx24j600_spiflash/production/_ext/29024758/des3.o
 .debug_loc     0x000502c0     0x2840 build/e16_encx24j600_spiflash/production/_ext/29024758/rsa.o
 .debug_loc     0x00052b00      0xcf5 build/e16_encx24j600_spiflash/production/_ext/29024758/aes.o
 .debug_loc     0x000537f5      0xc0c build/e16_encx24j600_spiflash/production/_ext/29024758/sha256.o
 .debug_loc     0x00054401      0x559 build/e16_encx24j600_spiflash/production/_ext/29024758/hmac.o
 .debug_loc     0x0005495a      0x53f build/e16_encx24j600_spiflash/production/_ext/29024758/hash.o
 .debug_loc     0x00054e99     0x119f build/e16_encx24j600_spiflash/production/_ext/2115314394/drv_encx24j600_spi_bus.o
 .debug_loc     0x00056038       0x34 build/e16_encx24j600_spiflash/production/_ext/1455582699/drv_encx24j600_closed_state.o
 .debug_loc     0x0005606c       0x78 build/e16_encx24j600_spiflash/production/_ext/1730942135/drv_encx24j600_initialization_state.o
 .debug_loc     0x000560e4      0x36d build/e16_encx24j600_spiflash/production/_ext/1730942135/drv_encx24j600_configure_state.o
 .debug_loc     0x00056451       0xf6 build/e16_encx24j600_spiflash/production/_ext/1730942135/drv_encx24j600_detect_state.o
 .debug_loc     0x00056547       0xa4 build/e16_encx24j600_spiflash/production/_ext/1730942135/drv_encx24j600_reset_state.o
 .debug_loc     0x000565eb      0x198 build/e16_encx24j600_spiflash/production/_ext/1210338337/drv_encx24j600_tx_packet.o
 .debug_loc     0x00056783      0x1a3 build/e16_encx24j600_spiflash/production/_ext/1210338337/drv_encx24j600_rx_packet.o
 .debug_loc     0x00056926      0x25f build/e16_encx24j600_spiflash/production/_ext/1207282394/drv_encx24j600_running_state.o
 .debug_loc     0x00056b85       0xc7 build/e16_encx24j600_spiflash/production/_ext/1207282394/drv_encx24j600_change_duplex_state.o
 .debug_loc     0x00056c4c       0xdb build/e16_encx24j600_spiflash/production/_ext/1207282394/drv_encx24j600_check_int_state.o
 .debug_loc     0x00056d27       0xe6 build/e16_encx24j600_spiflash/production/_ext/1207282394/drv_encx24j600_check_status_state.o
 .debug_loc     0x00056e0d      0x14b build/e16_encx24j600_spiflash/production/_ext/1207282394/drv_encx24j600_check_tx_status_state.o
 .debug_loc     0x00056f58      0x148 build/e16_encx24j600_spiflash/production/_ext/1207282394/drv_encx24j600_reset_rx_state.o
 .debug_loc     0x000570a0      0xa64 build/e16_encx24j600_spiflash/production/_ext/772120936/drv_encx24j600_api.o
 .debug_loc     0x00057b04       0x52 build/e16_encx24j600_spiflash/production/_ext/772120936/drv_encx24j600_main_state.o
 .debug_loc     0x00057b56       0xaa build/e16_encx24j600_spiflash/production/_ext/772120936/drv_encx24j600_utils.o
 .debug_loc     0x00057c00     0x1fd3 build/e16_encx24j600_spiflash/production/_ext/1324760662/drv_spi.o
 .debug_loc     0x00059bd3      0xb87 build/e16_encx24j600_spiflash/production/_ext/1385053818/drv_spi_sys_queue_fifo.o
 .debug_loc     0x0005a75a      0xc6d build/e16_encx24j600_spiflash/production/_ext/1112873152/drv_sst25vf016b.o
 .debug_loc     0x0005b3c7      0x2a5 build/e16_encx24j600_spiflash/production/_ext/1335609251/SPIFlash.o
 .debug_loc     0x0005b66c     0x2d5b build/e16_encx24j600_spiflash/production/_ext/941160041/drv_tmr.o
 .debug_loc     0x0005e3c7     0x5d07 build/e16_encx24j600_spiflash/production/_ext/821589181/drv_usart.o
 .debug_loc     0x000640ce      0xd03 build/e16_encx24j600_spiflash/production/_ext/821589181/drv_usart_buffer_queue.o
 .debug_loc     0x00064dd1      0xf3b build/e16_encx24j600_spiflash/production/_ext/821589181/drv_usart_read_write.o
 .debug_loc     0x00065d0c      0x14f build/e16_encx24j600_spiflash/production/_ext/1595536294/UART.o
 .debug_loc     0x00065e5b     0x17f7 build/e16_encx24j600_spiflash/production/_ext/871719959/net_pres.o
 .debug_loc     0x00067652     0x109e build/e16_encx24j600_spiflash/production/_ext/1891376032/sys_command.o
 .debug_loc     0x000686f0      0x118 build/e16_encx24j600_spiflash/production/_ext/598853952/sys_buffer.o
 .debug_loc     0x00068808      0x149 build/e16_encx24j600_spiflash/production/_ext/598853952/sys_queue.o
 .debug_loc     0x00068951      0x3a6 build/e16_encx24j600_spiflash/production/_ext/1434663852/sys_console.o
 .debug_loc     0x00068cf7      0x2ad build/e16_encx24j600_spiflash/production/_ext/1434663852/sys_console_uart.o
 .debug_loc     0x00068fa4       0xe3 build/e16_encx24j600_spiflash/production/_ext/2137108136/sys_debug.o
 .debug_loc     0x00069087       0xf0 build/e16_encx24j600_spiflash/production/_ext/482662494/sys_devcon.o
 .debug_loc     0x00069177       0xec build/e16_encx24j600_spiflash/production/_ext/482662494/sys_devcon_pic32mx.o
 .debug_loc     0x00069263     0x262e build/e16_encx24j600_spiflash/production/_ext/1750042194/sys_fs.o
 .debug_loc     0x0006b891      0xd51 build/e16_encx24j600_spiflash/production/_ext/1750042194/sys_fs_media_manager.o
 .debug_loc     0x0006c5e2      0xa35 build/e16_encx24j600_spiflash/production/_ext/614935175/mpfs.o
 .debug_loc     0x0006d017       0x8d build/e16_encx24j600_spiflash/production/_ext/1042686532/sys_int_pic32.o
 .debug_loc     0x0006d0a4       0x90 build/e16_encx24j600_spiflash/production/_ext/470001640/sys_random.o
 .debug_loc     0x0006d134       0x21 build/e16_encx24j600_spiflash/production/_ext/64182180/sys_reset.o
 .debug_loc     0x0006d155     0x1057 build/e16_encx24j600_spiflash/production/_ext/2110151058/sys_tmr.o
 .debug_loc     0x0006e1ac      0x1e3 build/e16_encx24j600_spiflash/production/_ext/1886247299/sys_fs_wrapper.o
 .debug_loc     0x0006e38f      0x4c3 build/e16_encx24j600_spiflash/production/_ext/1886247299/helpers.o
 .debug_loc     0x0006e852     0x4b64 build/e16_encx24j600_spiflash/production/_ext/1164207549/tcp.o
 .debug_loc     0x000733b6     0x2f2b build/e16_encx24j600_spiflash/production/_ext/1164207549/udp.o
 .debug_loc     0x000762e1     0x1e89 build/e16_encx24j600_spiflash/production/_ext/1164207549/arp.o
 .debug_loc     0x0007816a     0x2152 build/e16_encx24j600_spiflash/production/_ext/1164207549/dhcp.o
 .debug_loc     0x0007a2bc     0x21b4 build/e16_encx24j600_spiflash/production/_ext/1164207549/dns.o
 .debug_loc     0x0007c470     0x189a build/e16_encx24j600_spiflash/production/_ext/1164207549/http.o
 .debug_loc     0x0007dd0a      0x440 build/e16_encx24j600_spiflash/production/_ext/1164207549/nbns.o
 .debug_loc     0x0007e14a      0x6ed build/e16_encx24j600_spiflash/production/_ext/1164207549/smtp.o
 .debug_loc     0x0007e837      0x3fe build/e16_encx24j600_spiflash/production/_ext/1164207549/tcpip_announce.o
 .debug_loc     0x0007ec35     0x1cc2 build/e16_encx24j600_spiflash/production/_ext/1164207549/tcpip_commands.o
 .debug_loc     0x000808f7      0x137 build/e16_encx24j600_spiflash/production/_ext/1164207549/hash_fnv.o
 .debug_loc     0x00080a2e      0x2b1 build/e16_encx24j600_spiflash/production/_ext/1164207549/oahash.o
 .debug_loc     0x00080cdf      0x15b build/e16_encx24j600_spiflash/production/_ext/1164207549/tcpip_heap_alloc.o
 .debug_loc     0x00080e3a     0x3265 build/e16_encx24j600_spiflash/production/_ext/1164207549/tcpip_helpers.o
 .debug_loc     0x0008409f     0x311b build/e16_encx24j600_spiflash/production/_ext/1164207549/tcpip_manager.o
 .debug_loc     0x000871ba      0x27a build/e16_encx24j600_spiflash/production/_ext/1164207549/tcpip_notify.o
 .debug_loc     0x00087434      0x8f9 build/e16_encx24j600_spiflash/production/_ext/1164207549/tcpip_packet.o
 .debug_loc     0x00087d2d      0xc47 build/e16_encx24j600_spiflash/production/_ext/1164207549/ipv4.o
 .debug_loc     0x00088974      0x3a1 build/e16_encx24j600_spiflash/production/_ext/1164207549/sntp.o
 .debug_loc     0x00088d15      0xa78 build/e16_encx24j600_spiflash/production/_ext/1164207549/tcpip_heap_internal.o
 .debug_loc     0x0008978d      0x316 build/e16_encx24j600_spiflash/production/_ext/1164207549/icmp.o
 .debug_loc     0x00089aa3     0x2177 build/e16_encx24j600_spiflash/production/_ext/1164207549/dhcps.o
 .debug_loc     0x0008bc1a      0x353 build/e16_encx24j600_spiflash/production/_ext/1164207549/ddns.o
 .debug_loc     0x0008bf6d      0x57c build/e16_encx24j600_spiflash/production/_ext/1699919941/dh.o
 .debug_loc     0x0008c4e9      0x7ee build/e16_encx24j600_spiflash/production/_ext/1699919941/dsa.o
 .debug_loc     0x0008ccd7     0x2c8c build/e16_encx24j600_spiflash/production/_ext/1699919941/md4.o
 .debug_loc     0x0008f963      0xe03 build/e16_encx24j600_spiflash/production/_ext/1699919941/rabbit.o
 .debug_loc     0x00090766     0xdb13 build/e16_encx24j600_spiflash/production/_ext/615233400/internal.o
 .debug_loc     0x0009e279      0x90b build/e16_encx24j600_spiflash/production/_ext/615233400/keys.o
 .debug_loc     0x0009eb84     0x44c2 build/e16_encx24j600_spiflash/production/_ext/615233400/ssl.o
 .debug_loc     0x000a3046     0x1022 build/e16_encx24j600_spiflash/production/_ext/615233400/tls.o
 .debug_loc     0x000a4068      0xa6a c:/program files (x86)/microchip/xc32/v1.42/bin/bin/../../lib/gcc/pic32mx/4.8.3\libgcc.a(_udivdi3.o)
 .debug_loc     0x000a4ad2       0x74 c:/program files (x86)/microchip/xc32/v1.42/bin/bin/../../lib/gcc/pic32mx/4.8.3\libgcc.a(floatunsisf.o)
 .debug_loc     0x000a4b46      0xa3d c:/program files (x86)/microchip/xc32/v1.42/bin/bin/../../lib/gcc/pic32mx/4.8.3\libgcc.a(_umoddi3.o)

.debug_macinfo
 *(.debug_macinfo)

.debug_weaknames
 *(.debug_weaknames)

.debug_funcnames
 *(.debug_funcnames)

.debug_typenames
 *(.debug_typenames)

.debug_varnames
 *(.debug_varnames)

.debug_pubtypes
 *(.debug_pubtypes)

.debug_ranges   0x00000000     0xafb0
 *(.debug_ranges)
 .debug_ranges  0x00000000       0x30 build/e16_encx24j600_spiflash/production/_ext/1495834797/drv_flash_static.o
 .debug_ranges  0x00000030      0x358 build/e16_encx24j600_spiflash/production/_ext/1676865386/drv_spi_tasks.o
 .debug_ranges  0x00000388      0x978 build/e16_encx24j600_spiflash/production/_ext/1676865386/drv_spi_api.o
 .debug_ranges  0x00000d00      0x340 build/e16_encx24j600_spiflash/production/_ext/1676865386/drv_spi_master_ebm_tasks.o
 .debug_ranges  0x00001040      0x138 build/e16_encx24j600_spiflash/production/_ext/1676865386/drv_spi_master_rm_tasks.o
 .debug_ranges  0x00001178      0x110 build/e16_encx24j600_spiflash/production/_ext/971131287/net_pres_enc_glue.o
 .debug_ranges  0x00001288       0x18 build/e16_encx24j600_spiflash/production/_ext/971131287/net_pres_cert_store.o
 .debug_ranges  0x000012a0       0x40 build/e16_encx24j600_spiflash/production/_ext/360868340/sys_clk_static.o
 .debug_ranges  0x000012e0       0xf8 build/e16_encx24j600_spiflash/production/_ext/394705988/sys_ports_static.o
 .debug_ranges  0x000013d8       0x18 build/e16_encx24j600_spiflash/production/_ext/689678155/system_init.o
 .debug_ranges  0x000013f0       0x28 build/e16_encx24j600_spiflash/production/_ext/689678155/system_interrupt.o
 .debug_ranges  0x00001418       0x10 build/e16_encx24j600_spiflash/production/_ext/689678155/system_exceptions.o
 .debug_ranges  0x00001428       0x10 build/e16_encx24j600_spiflash/production/_ext/689678155/system_tasks.o
 .debug_ranges  0x00001438       0x18 build/e16_encx24j600_spiflash/production/_ext/1360937237/app.o
 .debug_ranges  0x00001450       0x10 build/e16_encx24j600_spiflash/production/_ext/1360937237/main.o
 .debug_ranges  0x00001460       0x18 build/e16_encx24j600_spiflash/production/_ext/1360937237/http_print.o
 .debug_ranges  0x00001478      0x288 build/e16_encx24j600_spiflash/production/_ext/1360937237/custom_http_app.o
 .debug_ranges  0x00001700       0x58 build/e16_encx24j600_spiflash/production/_ext/728775826/bsp_sys_init.o
 .debug_ranges  0x00001758      0x128 build/e16_encx24j600_spiflash/production/_ext/29024758/random.o
 .debug_ranges  0x00001880       0x18 build/e16_encx24j600_spiflash/production/_ext/29024758/arc4.o
 .debug_ranges  0x00001898      0x170 build/e16_encx24j600_spiflash/production/_ext/29024758/crypto.o
 .debug_ranges  0x00001a08       0x30 build/e16_encx24j600_spiflash/production/_ext/29024758/md5.o
 .debug_ranges  0x00001a38       0xa0 build/e16_encx24j600_spiflash/production/_ext/29024758/sha.o
 .debug_ranges  0x00001ad8       0xb0 build/e16_encx24j600_spiflash/production/_ext/29024758/coding.o
 .debug_ranges  0x00001b88       0x18 build/e16_encx24j600_spiflash/production/_ext/29024758/error.o
 .debug_ranges  0x00001ba0       0x20 build/e16_encx24j600_spiflash/production/_ext/29024758/logging.o
 .debug_ranges  0x00001bc0       0x28 build/e16_encx24j600_spiflash/production/_ext/29024758/memory.o
 .debug_ranges  0x00001be8       0x30 build/e16_encx24j600_spiflash/production/_ext/29024758/port.o
 .debug_ranges  0x00001c18      0x188 build/e16_encx24j600_spiflash/production/_ext/29024758/ecc.o
 .debug_ranges  0x00001da0       0xe8 build/e16_encx24j600_spiflash/production/_ext/29024758/pwdbased.o
 .debug_ranges  0x00001e88      0x400 build/e16_encx24j600_spiflash/production/_ext/29024758/tfm.o
 .debug_ranges  0x00002288      0x990 build/e16_encx24j600_spiflash/production/_ext/29024758/asn.o
 .debug_ranges  0x00002c18      0x150 build/e16_encx24j600_spiflash/production/_ext/29024758/des3.o
 .debug_ranges  0x00002d68      0x158 build/e16_encx24j600_spiflash/production/_ext/29024758/rsa.o
 .debug_ranges  0x00002ec0      0x168 build/e16_encx24j600_spiflash/production/_ext/29024758/aes.o
 .debug_ranges  0x00003028       0xb8 build/e16_encx24j600_spiflash/production/_ext/29024758/sha256.o
 .debug_ranges  0x000030e0       0x48 build/e16_encx24j600_spiflash/production/_ext/29024758/hmac.o
 .debug_ranges  0x00003128       0x60 build/e16_encx24j600_spiflash/production/_ext/29024758/hash.o
 .debug_ranges  0x00003188      0x108 build/e16_encx24j600_spiflash/production/_ext/2115314394/drv_encx24j600_spi_bus.o
 .debug_ranges  0x00003290       0x20 build/e16_encx24j600_spiflash/production/_ext/1455582699/drv_encx24j600_closed_state.o
 .debug_ranges  0x000032b0       0x20 build/e16_encx24j600_spiflash/production/_ext/1730942135/drv_encx24j600_initialization_state.o
 .debug_ranges  0x000032d0       0x20 build/e16_encx24j600_spiflash/production/_ext/1730942135/drv_encx24j600_configure_state.o
 .debug_ranges  0x000032f0       0x20 build/e16_encx24j600_spiflash/production/_ext/1730942135/drv_encx24j600_detect_state.o
 .debug_ranges  0x00003310       0x20 build/e16_encx24j600_spiflash/production/_ext/1730942135/drv_encx24j600_reset_state.o
 .debug_ranges  0x00003330       0x68 build/e16_encx24j600_spiflash/production/_ext/1210338337/drv_encx24j600_tx_packet.o
 .debug_ranges  0x00003398       0x28 build/e16_encx24j600_spiflash/production/_ext/1210338337/drv_encx24j600_rx_packet.o
 .debug_ranges  0x000033c0       0x48 build/e16_encx24j600_spiflash/production/_ext/1207282394/drv_encx24j600_running_state.o
 .debug_ranges  0x00003408       0x20 build/e16_encx24j600_spiflash/production/_ext/1207282394/drv_encx24j600_change_duplex_state.o
 .debug_ranges  0x00003428       0x20 build/e16_encx24j600_spiflash/production/_ext/1207282394/drv_encx24j600_check_int_state.o
 .debug_ranges  0x00003448       0x20 build/e16_encx24j600_spiflash/production/_ext/1207282394/drv_encx24j600_check_status_state.o
 .debug_ranges  0x00003468       0x50 build/e16_encx24j600_spiflash/production/_ext/1207282394/drv_encx24j600_check_tx_status_state.o
 .debug_ranges  0x000034b8       0x10 build/e16_encx24j600_spiflash/production/_ext/1207282394/drv_encx24j600_reset_rx_state.o
 .debug_ranges  0x000034c8       0xc8 build/e16_encx24j600_spiflash/production/_ext/772120936/drv_encx24j600_api.o
 .debug_ranges  0x00003590       0x10 build/e16_encx24j600_spiflash/production/_ext/772120936/drv_encx24j600_main_state.o
 .debug_ranges  0x000035a0       0x18 build/e16_encx24j600_spiflash/production/_ext/772120936/drv_encx24j600_utils.o
 .debug_ranges  0x000035b8      0x250 build/e16_encx24j600_spiflash/production/_ext/1324760662/drv_spi.o
 .debug_ranges  0x00003808       0xe0 build/e16_encx24j600_spiflash/production/_ext/1385053818/drv_spi_sys_queue_fifo.o
 .debug_ranges  0x000038e8       0x90 build/e16_encx24j600_spiflash/production/_ext/1112873152/drv_sst25vf016b.o
 .debug_ranges  0x00003978       0xa8 build/e16_encx24j600_spiflash/production/_ext/1335609251/SPIFlash.o
 .debug_ranges  0x00003a20      0x620 build/e16_encx24j600_spiflash/production/_ext/941160041/drv_tmr.o
 .debug_ranges  0x00004040      0xf08 build/e16_encx24j600_spiflash/production/_ext/821589181/drv_usart.o
 .debug_ranges  0x00004f48      0x168 build/e16_encx24j600_spiflash/production/_ext/821589181/drv_usart_buffer_queue.o
 .debug_ranges  0x000050b0      0x3d0 build/e16_encx24j600_spiflash/production/_ext/821589181/drv_usart_read_write.o
 .debug_ranges  0x00005480       0x18 build/e16_encx24j600_spiflash/production/_ext/1595536294/UART.o
 .debug_ranges  0x00005498      0x178 build/e16_encx24j600_spiflash/production/_ext/871719959/net_pres.o
 .debug_ranges  0x00005610      0x1f8 build/e16_encx24j600_spiflash/production/_ext/1891376032/sys_command.o
 .debug_ranges  0x00005808       0x40 build/e16_encx24j600_spiflash/production/_ext/598853952/sys_buffer.o
 .debug_ranges  0x00005848       0x28 build/e16_encx24j600_spiflash/production/_ext/598853952/sys_queue.o
 .debug_ranges  0x00005870       0x50 build/e16_encx24j600_spiflash/production/_ext/1434663852/sys_console.o
 .debug_ranges  0x000058c0       0x80 build/e16_encx24j600_spiflash/production/_ext/1434663852/sys_console_uart.o
 .debug_ranges  0x00005940       0x50 build/e16_encx24j600_spiflash/production/_ext/2137108136/sys_debug.o
 .debug_ranges  0x00005990       0x68 build/e16_encx24j600_spiflash/production/_ext/482662494/sys_devcon.o
 .debug_ranges  0x000059f8       0x10 build/e16_encx24j600_spiflash/production/_ext/482662494/sys_devcon_pic32mx.o
 .debug_ranges  0x00005a08      0x178 build/e16_encx24j600_spiflash/production/_ext/1750042194/sys_fs.o
 .debug_ranges  0x00005b80      0x130 build/e16_encx24j600_spiflash/production/_ext/1750042194/sys_fs_media_manager.o
 .debug_ranges  0x00005cb0       0xd0 build/e16_encx24j600_spiflash/production/_ext/614935175/mpfs.o
 .debug_ranges  0x00005d80       0x50 build/e16_encx24j600_spiflash/production/_ext/1042686532/sys_int_pic32.o
 .debug_ranges  0x00005dd0       0x28 build/e16_encx24j600_spiflash/production/_ext/470001640/sys_random.o
 .debug_ranges  0x00005df8       0x28 build/e16_encx24j600_spiflash/production/_ext/64182180/sys_reset.o
 .debug_ranges  0x00005e20      0x168 build/e16_encx24j600_spiflash/production/_ext/2110151058/sys_tmr.o
 .debug_ranges  0x00005f88       0x30 build/e16_encx24j600_spiflash/production/_ext/1886247299/sys_fs_wrapper.o
 .debug_ranges  0x00005fb8       0x48 build/e16_encx24j600_spiflash/production/_ext/1886247299/helpers.o
 .debug_ranges  0x00006000      0x8c8 build/e16_encx24j600_spiflash/production/_ext/1164207549/tcp.o
 .debug_ranges  0x000068c8      0x500 build/e16_encx24j600_spiflash/production/_ext/1164207549/udp.o
 .debug_ranges  0x00006dc8      0x178 build/e16_encx24j600_spiflash/production/_ext/1164207549/arp.o
 .debug_ranges  0x00006f40      0x380 build/e16_encx24j600_spiflash/production/_ext/1164207549/dhcp.o
 .debug_ranges  0x000072c0      0x238 build/e16_encx24j600_spiflash/production/_ext/1164207549/dns.o
 .debug_ranges  0x000074f8      0x308 build/e16_encx24j600_spiflash/production/_ext/1164207549/http.o
 .debug_ranges  0x00007800       0xc8 build/e16_encx24j600_spiflash/production/_ext/1164207549/nbns.o
 .debug_ranges  0x000078c8      0x490 build/e16_encx24j600_spiflash/production/_ext/1164207549/smtp.o
 .debug_ranges  0x00007d58       0x60 build/e16_encx24j600_spiflash/production/_ext/1164207549/tcpip_announce.o
 .debug_ranges  0x00007db8      0x1f0 build/e16_encx24j600_spiflash/production/_ext/1164207549/tcpip_commands.o
 .debug_ranges  0x00007fa8       0x18 build/e16_encx24j600_spiflash/production/_ext/1164207549/hash_fnv.o
 .debug_ranges  0x00007fc0       0x58 build/e16_encx24j600_spiflash/production/_ext/1164207549/oahash.o
 .debug_ranges  0x00008018       0x38 build/e16_encx24j600_spiflash/production/_ext/1164207549/tcpip_heap_alloc.o
 .debug_ranges  0x00008050      0x2f8 build/e16_encx24j600_spiflash/production/_ext/1164207549/tcpip_helpers.o
 .debug_ranges  0x00008348      0x678 build/e16_encx24j600_spiflash/production/_ext/1164207549/tcpip_manager.o
 .debug_ranges  0x000089c0       0x30 build/e16_encx24j600_spiflash/production/_ext/1164207549/tcpip_notify.o
 .debug_ranges  0x000089f0       0x68 build/e16_encx24j600_spiflash/production/_ext/1164207549/tcpip_packet.o
 .debug_ranges  0x00008a58      0x170 build/e16_encx24j600_spiflash/production/_ext/1164207549/ipv4.o
 .debug_ranges  0x00008bc8      0x130 build/e16_encx24j600_spiflash/production/_ext/1164207549/sntp.o
 .debug_ranges  0x00008cf8       0x98 build/e16_encx24j600_spiflash/production/_ext/1164207549/tcpip_heap_internal.o
 .debug_ranges  0x00008d90       0x98 build/e16_encx24j600_spiflash/production/_ext/1164207549/icmp.o
 .debug_ranges  0x00008e28      0x330 build/e16_encx24j600_spiflash/production/_ext/1164207549/dhcps.o
 .debug_ranges  0x00009158      0x200 build/e16_encx24j600_spiflash/production/_ext/1164207549/ddns.o
 .debug_ranges  0x00009358       0x70 build/e16_encx24j600_spiflash/production/_ext/1699919941/dh.o
 .debug_ranges  0x000093c8       0x50 build/e16_encx24j600_spiflash/production/_ext/1699919941/dsa.o
 .debug_ranges  0x00009418       0x28 build/e16_encx24j600_spiflash/production/_ext/1699919941/md4.o
 .debug_ranges  0x00009440       0x60 build/e16_encx24j600_spiflash/production/_ext/1699919941/rabbit.o
 .debug_ranges  0x000094a0      0xde8 build/e16_encx24j600_spiflash/production/_ext/615233400/internal.o
 .debug_ranges  0x0000a288       0x60 build/e16_encx24j600_spiflash/production/_ext/615233400/io.o
 .debug_ranges  0x0000a2e8       0xf8 build/e16_encx24j600_spiflash/production/_ext/615233400/keys.o
 .debug_ranges  0x0000a3e0      0x628 build/e16_encx24j600_spiflash/production/_ext/615233400/ssl.o
 .debug_ranges  0x0000aa08      0x110 build/e16_encx24j600_spiflash/production/_ext/615233400/tls.o
 .debug_ranges  0x0000ab18       0x98 c:/program files (x86)/microchip/xc32/v1.42/bin/bin/../../lib/gcc/pic32mx/4.8.3\libgcc.a(_udivdi3.o)
 .debug_ranges  0x0000abb0       0x10 c:/program files (x86)/microchip/xc32/v1.42/bin/bin/../../lib/gcc/pic32mx/4.8.3/../../../../pic32mx/lib\libpic32.a(default-bootstrap-exception-handler.o)
 .debug_ranges  0x0000abc0       0x10 c:/program files (x86)/microchip/xc32/v1.42/bin/bin/../../lib/gcc/pic32mx/4.8.3/../../../../pic32mx/lib\libpic32.a(default-on-reset.o)
 .debug_ranges  0x0000abd0       0x10 c:/program files (x86)/microchip/xc32/v1.42/bin/bin/../../lib/gcc/pic32mx/4.8.3/../../../../pic32mx/lib\libpic32.a(default-on-bootstrap.o)
 .debug_ranges  0x0000abe0       0x10 c:/program files (x86)/microchip/xc32/v1.42/bin/bin/../../lib/gcc/pic32mx/4.8.3/../../../../pic32mx/lib\libpic32.a(defaultinterrupt.o)
 .debug_ranges  0x0000abf0       0x10 c:/program files (x86)/microchip/xc32/v1.42/bin/bin/../../lib/gcc/pic32mx/4.8.3/../../../../pic32mx/lib\libm.a(w_logf.o)
 .debug_ranges  0x0000ac00       0x10 c:/program files (x86)/microchip/xc32/v1.42/bin/bin/../../lib/gcc/pic32mx/4.8.3/../../../../pic32mx/lib\libm.a(w_powf.o)
 .debug_ranges  0x0000ac10       0x10 c:/program files (x86)/microchip/xc32/v1.42/bin/bin/../../lib/gcc/pic32mx/4.8.3/../../../../pic32mx/lib\libc.a(atoi.o)
 .debug_ranges  0x0000ac20       0x10 c:/program files (x86)/microchip/xc32/v1.42/bin/bin/../../lib/gcc/pic32mx/4.8.3/../../../../pic32mx/lib\libc.a(atol.o)
 .debug_ranges  0x0000ac30       0x10 c:/program files (x86)/microchip/xc32/v1.42/bin/bin/../../lib/gcc/pic32mx/4.8.3/../../../../pic32mx/lib\libc.a(calloc.o)
 .debug_ranges  0x0000ac40       0x30 c:/program files (x86)/microchip/xc32/v1.42/bin/bin/../../lib/gcc/pic32mx/4.8.3/../../../../pic32mx/lib\libc.a(ctime.o)
 .debug_ranges  0x0000ac70       0x90 c:/program files (x86)/microchip/xc32/v1.42/bin/bin/../../lib/gcc/pic32mx/4.8.3/../../../../pic32mx/lib\libc.a(ctypef.o)
 .debug_ranges  0x0000ad00       0x20 c:/program files (x86)/microchip/xc32/v1.42/bin/bin/../../lib/gcc/pic32mx/4.8.3/../../../../pic32mx/lib\libc.a(malloc.o)
 .debug_ranges  0x0000ad20       0x10 c:/program files (x86)/microchip/xc32/v1.42/bin/bin/../../lib/gcc/pic32mx/4.8.3/../../../../pic32mx/lib\libc.a(memmove.o)
 .debug_ranges  0x0000ad30       0x18 c:/program files (x86)/microchip/xc32/v1.42/bin/bin/../../lib/gcc/pic32mx/4.8.3/../../../../pic32mx/lib\libc.a(rand.o)
 .debug_ranges  0x0000ad48       0x10 c:/program files (x86)/microchip/xc32/v1.42/bin/bin/../../lib/gcc/pic32mx/4.8.3/../../../../pic32mx/lib\libc.a(strcat.o)
 .debug_ranges  0x0000ad58       0x10 c:/program files (x86)/microchip/xc32/v1.42/bin/bin/../../lib/gcc/pic32mx/4.8.3/../../../../pic32mx/lib\libc.a(strchr.o)
 .debug_ranges  0x0000ad68       0x10 c:/program files (x86)/microchip/xc32/v1.42/bin/bin/../../lib/gcc/pic32mx/4.8.3/../../../../pic32mx/lib\libc.a(strncat.o)
 .debug_ranges  0x0000ad78       0x10 c:/program files (x86)/microchip/xc32/v1.42/bin/bin/../../lib/gcc/pic32mx/4.8.3/../../../../pic32mx/lib\libc.a(strncmp.o)
 .debug_ranges  0x0000ad88       0x10 c:/program files (x86)/microchip/xc32/v1.42/bin/bin/../../lib/gcc/pic32mx/4.8.3/../../../../pic32mx/lib\libc.a(strncpy.o)
 .debug_ranges  0x0000ad98       0x10 c:/program files (x86)/microchip/xc32/v1.42/bin/bin/../../lib/gcc/pic32mx/4.8.3/../../../../pic32mx/lib\libc.a(strstr.o)
 .debug_ranges  0x0000ada8       0x18 c:/program files (x86)/microchip/xc32/v1.42/bin/bin/../../lib/gcc/pic32mx/4.8.3/../../../../pic32mx/lib\libc.a(strtol.o)
 .debug_ranges  0x0000adc0       0x10 c:/program files (x86)/microchip/xc32/v1.42/bin/bin/../../lib/gcc/pic32mx/4.8.3/../../../../pic32mx/lib\libc.a(sprintf_cdnopuxX.eo)
 .debug_ranges  0x0000add0       0x10 c:/program files (x86)/microchip/xc32/v1.42/bin/bin/../../lib/gcc/pic32mx/4.8.3/../../../../pic32mx/lib\libc.a(vsnprintf.o)
 .debug_ranges  0x0000ade0       0x10 c:/program files (x86)/microchip/xc32/v1.42/bin/bin/../../lib/gcc/pic32mx/4.8.3/../../../../pic32mx/lib\libc.a(doprnt_cdnopuxX.eo)
 .debug_ranges  0x0000adf0       0x20 c:/program files (x86)/microchip/xc32/v1.42/bin/bin/../../lib/gcc/pic32mx/4.8.3/../../../../pic32mx/lib\libc.a(doprnt.o)
 .debug_ranges  0x0000ae10       0x10 c:/program files (x86)/microchip/xc32/v1.42/bin/bin/../../lib/gcc/pic32mx/4.8.3/../../../../pic32mx/lib\libc.a(_fputc_simple.o)
 .debug_ranges  0x0000ae20       0x10 c:/program files (x86)/microchip/xc32/v1.42/bin/bin/../../lib/gcc/pic32mx/4.8.3/../../../../pic32mx/lib\libc.a(_flsbuf_simple.o)
 .debug_ranges  0x0000ae30       0x30 c:/program files (x86)/microchip/xc32/v1.42/bin/bin/../../lib/gcc/pic32mx/4.8.3/../../../../pic32mx/lib\libpic32.a(sbrk.o)
 .debug_ranges  0x0000ae60       0x10 c:/program files (x86)/microchip/xc32/v1.42/bin/bin/../../lib/gcc/pic32mx/4.8.3/../../../../pic32mx/lib\libpic32.a(write.o)
 .debug_ranges  0x0000ae70       0x38 c:/program files (x86)/microchip/xc32/v1.42/bin/bin/../../lib/gcc/pic32mx/4.8.3/../../../../pic32mx/lib\libpic32.a(isinf.o)
 .debug_ranges  0x0000aea8       0x10 c:/program files (x86)/microchip/xc32/v1.42/bin/bin/../../lib/gcc/pic32mx/4.8.3/../../../../pic32mx/lib\libpic32.a(_mon_putc.o)
 .debug_ranges  0x0000aeb8       0x10 c:/program files (x86)/microchip/xc32/v1.42/bin/bin/../../lib/gcc/pic32mx/4.8.3/../../../../pic32mx/lib\libe.a(_floatdisf.o)
 .debug_ranges  0x0000aec8       0x10 c:/program files (x86)/microchip/xc32/v1.42/bin/bin/../../lib/gcc/pic32mx/4.8.3/../../../../pic32mx/lib\libe.a(_unorddf2.o)
 .debug_ranges  0x0000aed8       0xd8 c:/program files (x86)/microchip/xc32/v1.42/bin/bin/../../lib/gcc/pic32mx/4.8.3\libgcc.a(_umoddi3.o)

.gnu.attributes
                0x00000000       0x10
 *(.gnu.attributes)
 .gnu.attributes
                0x00000000       0x10 build/e16_encx24j600_spiflash/production/_ext/1495834797/drv_flash_static.o
 .gnu.attributes
                0x00000010       0x10 build/e16_encx24j600_spiflash/production/_ext/1676865386/drv_spi_tasks.o
 .gnu.attributes
                0x00000020       0x10 build/e16_encx24j600_spiflash/production/_ext/1676865386/drv_spi_api.o
 .gnu.attributes
                0x00000030       0x10 build/e16_encx24j600_spiflash/production/_ext/1676865386/drv_spi_master_ebm_tasks.o
 .gnu.attributes
                0x00000040       0x10 build/e16_encx24j600_spiflash/production/_ext/1676865386/drv_spi_master_rm_tasks.o
 .gnu.attributes
                0x00000050       0x10 build/e16_encx24j600_spiflash/production/_ext/971131287/net_pres_enc_glue.o
 .gnu.attributes
                0x00000060       0x10 build/e16_encx24j600_spiflash/production/_ext/971131287/net_pres_cert_store.o
 .gnu.attributes
                0x00000070       0x10 build/e16_encx24j600_spiflash/production/_ext/360868340/sys_clk_static.o
 .gnu.attributes
                0x00000080       0x10 build/e16_encx24j600_spiflash/production/_ext/394705988/sys_ports_static.o
 .gnu.attributes
                0x00000090       0x10 build/e16_encx24j600_spiflash/production/_ext/689678155/system_init.o
 .gnu.attributes
                0x000000a0       0x10 build/e16_encx24j600_spiflash/production/_ext/689678155/system_interrupt.o
 .gnu.attributes
                0x000000b0       0x10 build/e16_encx24j600_spiflash/production/_ext/689678155/system_exceptions.o
 .gnu.attributes
                0x000000c0       0x10 build/e16_encx24j600_spiflash/production/_ext/689678155/system_tasks.o
 .gnu.attributes
                0x000000d0       0x10 build/e16_encx24j600_spiflash/production/_ext/1360937237/app.o
 .gnu.attributes
                0x000000e0       0x10 build/e16_encx24j600_spiflash/production/_ext/1360937237/main.o
 .gnu.attributes
                0x000000f0       0x10 build/e16_encx24j600_spiflash/production/_ext/1360937237/http_print.o
 .gnu.attributes
                0x00000100       0x10 build/e16_encx24j600_spiflash/production/_ext/1360937237/custom_http_app.o
 .gnu.attributes
                0x00000110       0x10 build/e16_encx24j600_spiflash/production/_ext/1360937237/mpfs_img2.o
 .gnu.attributes
                0x00000120       0x10 build/e16_encx24j600_spiflash/production/_ext/728775826/bsp_sys_init.o
 .gnu.attributes
                0x00000130       0x10 build/e16_encx24j600_spiflash/production/_ext/29024758/random.o
 .gnu.attributes
                0x00000140       0x10 build/e16_encx24j600_spiflash/production/_ext/29024758/arc4.o
 .gnu.attributes
                0x00000150       0x10 build/e16_encx24j600_spiflash/production/_ext/29024758/crypto.o
 .gnu.attributes
                0x00000160       0x10 build/e16_encx24j600_spiflash/production/_ext/29024758/md5.o
 .gnu.attributes
                0x00000170       0x10 build/e16_encx24j600_spiflash/production/_ext/29024758/sha.o
 .gnu.attributes
                0x00000180       0x10 build/e16_encx24j600_spiflash/production/_ext/29024758/coding.o
 .gnu.attributes
                0x00000190       0x10 build/e16_encx24j600_spiflash/production/_ext/29024758/error.o
 .gnu.attributes
                0x000001a0       0x10 build/e16_encx24j600_spiflash/production/_ext/29024758/integer.o
 .gnu.attributes
                0x000001b0       0x10 build/e16_encx24j600_spiflash/production/_ext/29024758/logging.o
 .gnu.attributes
                0x000001c0       0x10 build/e16_encx24j600_spiflash/production/_ext/29024758/memory.o
 .gnu.attributes
                0x000001d0       0x10 build/e16_encx24j600_spiflash/production/_ext/29024758/misc.o
 .gnu.attributes
                0x000001e0       0x10 build/e16_encx24j600_spiflash/production/_ext/29024758/port.o
 .gnu.attributes
                0x000001f0       0x10 build/e16_encx24j600_spiflash/production/_ext/29024758/ecc.o
 .gnu.attributes
                0x00000200       0x10 build/e16_encx24j600_spiflash/production/_ext/29024758/pwdbased.o
 .gnu.attributes
                0x00000210       0x10 build/e16_encx24j600_spiflash/production/_ext/29024758/tfm.o
 .gnu.attributes
                0x00000220       0x10 build/e16_encx24j600_spiflash/production/_ext/29024758/asn.o
 .gnu.attributes
                0x00000230       0x10 build/e16_encx24j600_spiflash/production/_ext/29024758/des3.o
 .gnu.attributes
                0x00000240       0x10 build/e16_encx24j600_spiflash/production/_ext/29024758/rsa.o
 .gnu.attributes
                0x00000250       0x10 build/e16_encx24j600_spiflash/production/_ext/29024758/aes.o
 .gnu.attributes
                0x00000260       0x10 build/e16_encx24j600_spiflash/production/_ext/29024758/sha256.o
 .gnu.attributes
                0x00000270       0x10 build/e16_encx24j600_spiflash/production/_ext/29024758/sha512.o
 .gnu.attributes
                0x00000280       0x10 build/e16_encx24j600_spiflash/production/_ext/29024758/hmac.o
 .gnu.attributes
                0x00000290       0x10 build/e16_encx24j600_spiflash/production/_ext/29024758/hash.o
 .gnu.attributes
                0x000002a0       0x10 build/e16_encx24j600_spiflash/production/_ext/29024758/compress.o
 .gnu.attributes
                0x000002b0       0x10 build/e16_encx24j600_spiflash/production/_ext/2115314394/drv_encx24j600_spi_bus.o
 .gnu.attributes
                0x000002c0       0x10 build/e16_encx24j600_spiflash/production/_ext/1455582699/drv_encx24j600_closed_state.o
 .gnu.attributes
                0x000002d0       0x10 build/e16_encx24j600_spiflash/production/_ext/1730942135/drv_encx24j600_initialization_state.o
 .gnu.attributes
                0x000002e0       0x10 build/e16_encx24j600_spiflash/production/_ext/1730942135/drv_encx24j600_configure_state.o
 .gnu.attributes
                0x000002f0       0x10 build/e16_encx24j600_spiflash/production/_ext/1730942135/drv_encx24j600_detect_state.o
 .gnu.attributes
                0x00000300       0x10 build/e16_encx24j600_spiflash/production/_ext/1730942135/drv_encx24j600_reset_state.o
 .gnu.attributes
                0x00000310       0x10 build/e16_encx24j600_spiflash/production/_ext/1210338337/drv_encx24j600_tx_packet.o
 .gnu.attributes
                0x00000320       0x10 build/e16_encx24j600_spiflash/production/_ext/1210338337/drv_encx24j600_rx_packet.o
 .gnu.attributes
                0x00000330       0x10 build/e16_encx24j600_spiflash/production/_ext/1207282394/drv_encx24j600_running_state.o
 .gnu.attributes
                0x00000340       0x10 build/e16_encx24j600_spiflash/production/_ext/1207282394/drv_encx24j600_change_duplex_state.o
 .gnu.attributes
                0x00000350       0x10 build/e16_encx24j600_spiflash/production/_ext/1207282394/drv_encx24j600_check_int_state.o
 .gnu.attributes
                0x00000360       0x10 build/e16_encx24j600_spiflash/production/_ext/1207282394/drv_encx24j600_check_status_state.o
 .gnu.attributes
                0x00000370       0x10 build/e16_encx24j600_spiflash/production/_ext/1207282394/drv_encx24j600_check_tx_status_state.o
 .gnu.attributes
                0x00000380       0x10 build/e16_encx24j600_spiflash/production/_ext/1207282394/drv_encx24j600_reset_rx_state.o
 .gnu.attributes
                0x00000390       0x10 build/e16_encx24j600_spiflash/production/_ext/772120936/drv_encx24j600_api.o
 .gnu.attributes
                0x000003a0       0x10 build/e16_encx24j600_spiflash/production/_ext/772120936/drv_encx24j600_main_state.o
 .gnu.attributes
                0x000003b0       0x10 build/e16_encx24j600_spiflash/production/_ext/772120936/drv_encx24j600_utils.o
 .gnu.attributes
                0x000003c0       0x10 build/e16_encx24j600_spiflash/production/_ext/1324760662/drv_spi.o
 .gnu.attributes
                0x000003d0       0x10 build/e16_encx24j600_spiflash/production/_ext/1385053818/drv_spi_sys_queue_fifo.o
 .gnu.attributes
                0x000003e0       0x10 build/e16_encx24j600_spiflash/production/_ext/1112873152/drv_sst25vf016b.o
 .gnu.attributes
                0x000003f0       0x10 build/e16_encx24j600_spiflash/production/_ext/1335609251/SPIFlash.o
 .gnu.attributes
                0x00000400       0x10 build/e16_encx24j600_spiflash/production/_ext/941160041/drv_tmr.o
 .gnu.attributes
                0x00000410       0x10 build/e16_encx24j600_spiflash/production/_ext/821589181/drv_usart.o
 .gnu.attributes
                0x00000420       0x10 build/e16_encx24j600_spiflash/production/_ext/821589181/drv_usart_buffer_queue.o
 .gnu.attributes
                0x00000430       0x10 build/e16_encx24j600_spiflash/production/_ext/821589181/drv_usart_read_write.o
 .gnu.attributes
                0x00000440       0x10 build/e16_encx24j600_spiflash/production/_ext/1595536294/UART.o
 .gnu.attributes
                0x00000450       0x10 build/e16_encx24j600_spiflash/production/_ext/871719959/net_pres.o
 .gnu.attributes
                0x00000460       0x10 build/e16_encx24j600_spiflash/production/_ext/1891376032/sys_command.o
 .gnu.attributes
                0x00000470       0x10 build/e16_encx24j600_spiflash/production/_ext/598853952/sys_buffer.o
 .gnu.attributes
                0x00000480       0x10 build/e16_encx24j600_spiflash/production/_ext/598853952/sys_queue.o
 .gnu.attributes
                0x00000490       0x10 build/e16_encx24j600_spiflash/production/_ext/1434663852/sys_console.o
 .gnu.attributes
                0x000004a0       0x10 build/e16_encx24j600_spiflash/production/_ext/1434663852/sys_console_uart.o
 .gnu.attributes
                0x000004b0       0x10 build/e16_encx24j600_spiflash/production/_ext/2137108136/sys_debug.o
 .gnu.attributes
                0x000004c0       0x10 build/e16_encx24j600_spiflash/production/_ext/482662494/sys_devcon.o
 .gnu.attributes
                0x000004d0       0x10 build/e16_encx24j600_spiflash/production/_ext/482662494/sys_devcon_pic32mx.o
 .gnu.attributes
                0x000004e0       0x10 build/e16_encx24j600_spiflash/production/_ext/1750042194/sys_fs.o
 .gnu.attributes
                0x000004f0       0x10 build/e16_encx24j600_spiflash/production/_ext/1750042194/sys_fs_media_manager.o
 .gnu.attributes
                0x00000500       0x10 build/e16_encx24j600_spiflash/production/_ext/614935175/mpfs.o
 .gnu.attributes
                0x00000510       0x10 build/e16_encx24j600_spiflash/production/_ext/1042686532/sys_int_pic32.o
 .gnu.attributes
                0x00000520       0x10 build/e16_encx24j600_spiflash/production/_ext/470001640/sys_random.o
 .gnu.attributes
                0x00000530       0x10 build/e16_encx24j600_spiflash/production/_ext/64182180/sys_reset.o
 .gnu.attributes
                0x00000540       0x10 build/e16_encx24j600_spiflash/production/_ext/2110151058/sys_tmr.o
 .gnu.attributes
                0x00000550       0x10 build/e16_encx24j600_spiflash/production/_ext/1886247299/sys_fs_wrapper.o
 .gnu.attributes
                0x00000560       0x10 build/e16_encx24j600_spiflash/production/_ext/1886247299/helpers.o
 .gnu.attributes
                0x00000570       0x10 build/e16_encx24j600_spiflash/production/_ext/1164207549/tcp.o
 .gnu.attributes
                0x00000580       0x10 build/e16_encx24j600_spiflash/production/_ext/1164207549/udp.o
 .gnu.attributes
                0x00000590       0x10 build/e16_encx24j600_spiflash/production/_ext/1164207549/arp.o
 .gnu.attributes
                0x000005a0       0x10 build/e16_encx24j600_spiflash/production/_ext/1164207549/dhcp.o
 .gnu.attributes
                0x000005b0       0x10 build/e16_encx24j600_spiflash/production/_ext/1164207549/dns.o
 .gnu.attributes
                0x000005c0       0x10 build/e16_encx24j600_spiflash/production/_ext/1164207549/http.o
 .gnu.attributes
                0x000005d0       0x10 build/e16_encx24j600_spiflash/production/_ext/1164207549/nbns.o
 .gnu.attributes
                0x000005e0       0x10 build/e16_encx24j600_spiflash/production/_ext/1164207549/smtp.o
 .gnu.attributes
                0x000005f0       0x10 build/e16_encx24j600_spiflash/production/_ext/1164207549/tcpip_announce.o
 .gnu.attributes
                0x00000600       0x10 build/e16_encx24j600_spiflash/production/_ext/1164207549/tcpip_commands.o
 .gnu.attributes
                0x00000610       0x10 build/e16_encx24j600_spiflash/production/_ext/1164207549/hash_fnv.o
 .gnu.attributes
                0x00000620       0x10 build/e16_encx24j600_spiflash/production/_ext/1164207549/oahash.o
 .gnu.attributes
                0x00000630       0x10 build/e16_encx24j600_spiflash/production/_ext/1164207549/tcpip_heap_alloc.o
 .gnu.attributes
                0x00000640       0x10 build/e16_encx24j600_spiflash/production/_ext/1164207549/tcpip_helpers.o
 .gnu.attributes
                0x00000650       0x10 build/e16_encx24j600_spiflash/production/_ext/1164207549/tcpip_manager.o
 .gnu.attributes
                0x00000660       0x10 build/e16_encx24j600_spiflash/production/_ext/1164207549/tcpip_notify.o
 .gnu.attributes
                0x00000670       0x10 build/e16_encx24j600_spiflash/production/_ext/1164207549/tcpip_packet.o
 .gnu.attributes
                0x00000680       0x10 build/e16_encx24j600_spiflash/production/_ext/1164207549/ipv4.o
 .gnu.attributes
                0x00000690       0x10 build/e16_encx24j600_spiflash/production/_ext/1164207549/sntp.o
 .gnu.attributes
                0x000006a0       0x10 build/e16_encx24j600_spiflash/production/_ext/1164207549/tcpip_heap_internal.o
 .gnu.attributes
                0x000006b0       0x10 build/e16_encx24j600_spiflash/production/_ext/1164207549/icmp.o
 .gnu.attributes
                0x000006c0       0x10 build/e16_encx24j600_spiflash/production/_ext/1164207549/dhcps.o
 .gnu.attributes
                0x000006d0       0x10 build/e16_encx24j600_spiflash/production/_ext/1164207549/ddns.o
 .gnu.attributes
                0x000006e0       0x10 build/e16_encx24j600_spiflash/production/_ext/1699919941/asm.o
 .gnu.attributes
                0x000006f0       0x10 build/e16_encx24j600_spiflash/production/_ext/1699919941/blake2b.o
 .gnu.attributes
                0x00000700       0x10 build/e16_encx24j600_spiflash/production/_ext/1699919941/camellia.o
 .gnu.attributes
                0x00000710       0x10 build/e16_encx24j600_spiflash/production/_ext/1699919941/chacha.o
 .gnu.attributes
                0x00000720       0x10 build/e16_encx24j600_spiflash/production/_ext/1699919941/chacha20_poly1305.o
 .gnu.attributes
                0x00000730       0x10 build/e16_encx24j600_spiflash/production/_ext/1699919941/curve25519.o
 .gnu.attributes
                0x00000740       0x10 build/e16_encx24j600_spiflash/production/_ext/1699919941/dh.o
 .gnu.attributes
                0x00000750       0x10 build/e16_encx24j600_spiflash/production/_ext/1699919941/dsa.o
 .gnu.attributes
                0x00000760       0x10 build/e16_encx24j600_spiflash/production/_ext/1699919941/ecc_fp.o
 .gnu.attributes
                0x00000770       0x10 build/e16_encx24j600_spiflash/production/_ext/1699919941/ed25519.o
 .gnu.attributes
                0x00000780       0x10 build/e16_encx24j600_spiflash/production/_ext/1699919941/fe_low_mem.o
 .gnu.attributes
                0x00000790       0x10 build/e16_encx24j600_spiflash/production/_ext/1699919941/fe_operations.o
 .gnu.attributes
                0x000007a0       0x10 build/e16_encx24j600_spiflash/production/_ext/1699919941/ge_low_mem.o
 .gnu.attributes
                0x000007b0       0x10 build/e16_encx24j600_spiflash/production/_ext/1699919941/ge_operations.o
 .gnu.attributes
                0x000007c0       0x10 build/e16_encx24j600_spiflash/production/_ext/1699919941/hc128.o
 .gnu.attributes
                0x000007d0       0x10 build/e16_encx24j600_spiflash/production/_ext/1699919941/md2.o
 .gnu.attributes
                0x000007e0       0x10 build/e16_encx24j600_spiflash/production/_ext/1699919941/md4.o
 .gnu.attributes
                0x000007f0       0x10 build/e16_encx24j600_spiflash/production/_ext/1699919941/pkcs7.o
 .gnu.attributes
                0x00000800       0x10 build/e16_encx24j600_spiflash/production/_ext/1699919941/poly1305.o
 .gnu.attributes
                0x00000810       0x10 build/e16_encx24j600_spiflash/production/_ext/1699919941/rabbit.o
 .gnu.attributes
                0x00000820       0x10 build/e16_encx24j600_spiflash/production/_ext/1699919941/ripemd.o
 .gnu.attributes
                0x00000830       0x10 build/e16_encx24j600_spiflash/production/_ext/615233400/crl.o
 .gnu.attributes
                0x00000840       0x10 build/e16_encx24j600_spiflash/production/_ext/615233400/internal.o
 .gnu.attributes
                0x00000850       0x10 build/e16_encx24j600_spiflash/production/_ext/615233400/io.o
 .gnu.attributes
                0x00000860       0x10 build/e16_encx24j600_spiflash/production/_ext/615233400/keys.o
 .gnu.attributes
                0x00000870       0x10 build/e16_encx24j600_spiflash/production/_ext/615233400/ocsp.o
 .gnu.attributes
                0x00000880       0x10 build/e16_encx24j600_spiflash/production/_ext/615233400/sniffer.o
 .gnu.attributes
                0x00000890       0x10 build/e16_encx24j600_spiflash/production/_ext/615233400/ssl.o
 .gnu.attributes
                0x000008a0       0x10 build/e16_encx24j600_spiflash/production/_ext/615233400/tls.o
 .gnu.attributes
                0x000008b0       0x10 build/e16_encx24j600_spiflash/production/_ext/29024758/asm.o
 .gnu.attributes
                0x000008c0       0x10 c:/program files (x86)/microchip/xc32/v1.42/bin/bin/../../lib/gcc/pic32mx/4.8.3\libgcc.a(_udivdi3.o)
 .gnu.attributes
                0x000008d0       0x10 c:/program files (x86)/microchip/xc32/v1.42/bin/bin/../../lib/gcc/pic32mx/4.8.3\libgcc.a(floatunsisf.o)
 .gnu.attributes
                0x000008e0       0x10 c:/program files (x86)/microchip/xc32/v1.42/bin/bin/../../lib/gcc/pic32mx/4.8.3/../../../../pic32mx/lib\libpic32.a(default-bootstrap-exception-handler.o)
 .gnu.attributes
                0x000008f0       0x10 c:/program files (x86)/microchip/xc32/v1.42/bin/bin/../../lib/gcc/pic32mx/4.8.3/../../../../pic32mx/lib\libpic32.a(default-on-reset.o)
 .gnu.attributes
                0x00000900       0x10 c:/program files (x86)/microchip/xc32/v1.42/bin/bin/../../lib/gcc/pic32mx/4.8.3/../../../../pic32mx/lib\libpic32.a(default-on-bootstrap.o)
 .gnu.attributes
                0x00000910       0x10 c:/program files (x86)/microchip/xc32/v1.42/bin/bin/../../lib/gcc/pic32mx/4.8.3/../../../../pic32mx/lib\libpic32.a(defaultinterrupt.o)
 .gnu.attributes
                0x00000920       0x10 c:/program files (x86)/microchip/xc32/v1.42/bin/bin/../../lib/gcc/pic32mx/4.8.3/../../../../pic32mx/lib\libm.a(w_logf.o)
 .gnu.attributes
                0x00000930       0x10 c:/program files (x86)/microchip/xc32/v1.42/bin/bin/../../lib/gcc/pic32mx/4.8.3/../../../../pic32mx/lib\libm.a(w_powf.o)
 .gnu.attributes
                0x00000940       0x10 c:/program files (x86)/microchip/xc32/v1.42/bin/bin/../../lib/gcc/pic32mx/4.8.3/../../../../pic32mx/lib\libm.a(s_lib_ver.o)
 .gnu.attributes
                0x00000950       0x10 c:/program files (x86)/microchip/xc32/v1.42/bin/bin/../../lib/gcc/pic32mx/4.8.3/../../../../pic32mx/lib\libc.a(atoi.o)
 .gnu.attributes
                0x00000960       0x10 c:/program files (x86)/microchip/xc32/v1.42/bin/bin/../../lib/gcc/pic32mx/4.8.3/../../../../pic32mx/lib\libc.a(atol.o)
 .gnu.attributes
                0x00000970       0x10 c:/program files (x86)/microchip/xc32/v1.42/bin/bin/../../lib/gcc/pic32mx/4.8.3/../../../../pic32mx/lib\libc.a(calloc.o)
 .gnu.attributes
                0x00000980       0x10 c:/program files (x86)/microchip/xc32/v1.42/bin/bin/../../lib/gcc/pic32mx/4.8.3/../../../../pic32mx/lib\libc.a(ctime.o)
 .gnu.attributes
                0x00000990       0x10 c:/program files (x86)/microchip/xc32/v1.42/bin/bin/../../lib/gcc/pic32mx/4.8.3/../../../../pic32mx/lib\libc.a(ctype.o)
 .gnu.attributes
                0x000009a0       0x10 c:/program files (x86)/microchip/xc32/v1.42/bin/bin/../../lib/gcc/pic32mx/4.8.3/../../../../pic32mx/lib\libc.a(ctypef.o)
 .gnu.attributes
                0x000009b0       0x10 c:/program files (x86)/microchip/xc32/v1.42/bin/bin/../../lib/gcc/pic32mx/4.8.3/../../../../pic32mx/lib\libc.a(errno.o)
 .gnu.attributes
                0x000009c0       0x10 c:/program files (x86)/microchip/xc32/v1.42/bin/bin/../../lib/gcc/pic32mx/4.8.3/../../../../pic32mx/lib\libc.a(malloc.o)
 .gnu.attributes
                0x000009d0       0x10 c:/program files (x86)/microchip/xc32/v1.42/bin/bin/../../lib/gcc/pic32mx/4.8.3/../../../../pic32mx/lib\libc.a(memmove.o)
 .gnu.attributes
                0x000009e0       0x10 c:/program files (x86)/microchip/xc32/v1.42/bin/bin/../../lib/gcc/pic32mx/4.8.3/../../../../pic32mx/lib\libc.a(rand.o)
 .gnu.attributes
                0x000009f0       0x10 c:/program files (x86)/microchip/xc32/v1.42/bin/bin/../../lib/gcc/pic32mx/4.8.3/../../../../pic32mx/lib\libc.a(strcat.o)
 .gnu.attributes
                0x00000a00       0x10 c:/program files (x86)/microchip/xc32/v1.42/bin/bin/../../lib/gcc/pic32mx/4.8.3/../../../../pic32mx/lib\libc.a(strchr.o)
 .gnu.attributes
                0x00000a10       0x10 c:/program files (x86)/microchip/xc32/v1.42/bin/bin/../../lib/gcc/pic32mx/4.8.3/../../../../pic32mx/lib\libc.a(strncat.o)
 .gnu.attributes
                0x00000a20       0x10 c:/program files (x86)/microchip/xc32/v1.42/bin/bin/../../lib/gcc/pic32mx/4.8.3/../../../../pic32mx/lib\libc.a(strncmp.o)
 .gnu.attributes
                0x00000a30       0x10 c:/program files (x86)/microchip/xc32/v1.42/bin/bin/../../lib/gcc/pic32mx/4.8.3/../../../../pic32mx/lib\libc.a(strncpy.o)
 .gnu.attributes
                0x00000a40       0x10 c:/program files (x86)/microchip/xc32/v1.42/bin/bin/../../lib/gcc/pic32mx/4.8.3/../../../../pic32mx/lib\libc.a(strstr.o)
 .gnu.attributes
                0x00000a50       0x10 c:/program files (x86)/microchip/xc32/v1.42/bin/bin/../../lib/gcc/pic32mx/4.8.3/../../../../pic32mx/lib\libc.a(strtol.o)
 .gnu.attributes
                0x00000a60       0x10 c:/program files (x86)/microchip/xc32/v1.42/bin/bin/../../lib/gcc/pic32mx/4.8.3/../../../../pic32mx/lib\libc.a(sprintf_cdnopuxX.eo)
 .gnu.attributes
                0x00000a70       0x10 c:/program files (x86)/microchip/xc32/v1.42/bin/bin/../../lib/gcc/pic32mx/4.8.3/../../../../pic32mx/lib\libc.a(vsnprintf.o)
 .gnu.attributes
                0x00000a80       0x10 c:/program files (x86)/microchip/xc32/v1.42/bin/bin/../../lib/gcc/pic32mx/4.8.3/../../../../pic32mx/lib\libc.a(doprnt_cdnopuxX.eo)
 .gnu.attributes
                0x00000a90       0x10 c:/program files (x86)/microchip/xc32/v1.42/bin/bin/../../lib/gcc/pic32mx/4.8.3/../../../../pic32mx/lib\libc.a(doprnt.o)
 .gnu.attributes
                0x00000aa0       0x10 c:/program files (x86)/microchip/xc32/v1.42/bin/bin/../../lib/gcc/pic32mx/4.8.3/../../../../pic32mx/lib\libc.a(_fputc_simple.o)
 .gnu.attributes
                0x00000ab0       0x10 c:/program files (x86)/microchip/xc32/v1.42/bin/bin/../../lib/gcc/pic32mx/4.8.3/../../../../pic32mx/lib\libc.a(powersf.o)
 .gnu.attributes
                0x00000ac0       0x10 c:/program files (x86)/microchip/xc32/v1.42/bin/bin/../../lib/gcc/pic32mx/4.8.3/../../../../pic32mx/lib\libc.a(_iob.o)
 .gnu.attributes
                0x00000ad0       0x10 c:/program files (x86)/microchip/xc32/v1.42/bin/bin/../../lib/gcc/pic32mx/4.8.3/../../../../pic32mx/lib\libc.a(_flsbuf_simple.o)
 .gnu.attributes
                0x00000ae0       0x10 c:/program files (x86)/microchip/xc32/v1.42/bin/bin/../../lib/gcc/pic32mx/4.8.3/../../../../pic32mx/lib\libpic32.a(sbrk.o)
 .gnu.attributes
                0x00000af0       0x10 c:/program files (x86)/microchip/xc32/v1.42/bin/bin/../../lib/gcc/pic32mx/4.8.3/../../../../pic32mx/lib\libpic32.a(write.o)
 .gnu.attributes
                0x00000b00       0x10 c:/program files (x86)/microchip/xc32/v1.42/bin/bin/../../lib/gcc/pic32mx/4.8.3/../../../../pic32mx/lib\libpic32.a(isinf.o)
 .gnu.attributes
                0x00000b10       0x10 c:/program files (x86)/microchip/xc32/v1.42/bin/bin/../../lib/gcc/pic32mx/4.8.3/../../../../pic32mx/lib\libpic32.a(_mon_putc.o)
 .gnu.attributes
                0x00000b20       0x10 c:/program files (x86)/microchip/xc32/v1.42/bin/bin/../../lib/gcc/pic32mx/4.8.3/../../../../pic32mx/lib\libpic32.a(xc32_uart.o)
 .gnu.attributes
                0x00000b30       0x10 c:/program files (x86)/microchip/xc32/v1.42/bin/bin/../../lib/gcc/pic32mx/4.8.3/../../../../pic32mx/lib\libe.a(_floatdisf.o)
 .gnu.attributes
                0x00000b40       0x10 c:/program files (x86)/microchip/xc32/v1.42/bin/bin/../../lib/gcc/pic32mx/4.8.3/../../../../pic32mx/lib\libe.a(_unorddf2.o)
 .gnu.attributes
                0x00000b50       0x10 c:/program files (x86)/microchip/xc32/v1.42/bin/bin/../../lib/gcc/pic32mx/4.8.3\libgcc.a(_umoddi3.o)
LOAD c:/program files (x86)/microchip/xc32/v1.42/bin/bin/../../lib/gcc/pic32mx/4.8.3\libgcc.a
START GROUP
LOAD c:/program files (x86)/microchip/xc32/v1.42/bin/bin/../../lib/gcc/pic32mx/4.8.3/../../../../pic32mx/lib\libpic32.a
LOAD c:/program files (x86)/microchip/xc32/v1.42/bin/bin/../../lib/gcc/pic32mx/4.8.3/../../../../pic32mx/lib\libdebug.a
LOAD c:/program files (x86)/microchip/xc32/v1.42/bin/bin/../../lib/gcc/pic32mx/4.8.3/../../../../pic32mx/lib\libpic32.a
LOAD c:/program files (x86)/microchip/xc32/v1.42/bin/bin/../../lib/gcc/pic32mx/4.8.3/../../../../pic32mx/lib\libm.a
LOAD c:/program files (x86)/microchip/xc32/v1.42/bin/bin/../../lib/gcc/pic32mx/4.8.3/../../../../pic32mx/lib\libe.a
LOAD c:/program files (x86)/microchip/xc32/v1.42/bin/bin/../../lib/gcc/pic32mx/4.8.3/../../../../pic32mx/lib\libdsp.a
LOAD c:/program files (x86)/microchip/xc32/v1.42/bin/bin/../../lib/gcc/pic32mx/4.8.3\libgcc.a
LOAD c:/program files (x86)/microchip/xc32/v1.42/bin/bin/../../lib/gcc/pic32mx/4.8.3/../../../../pic32mx/lib\libc.a
LOAD c:/program files (x86)/microchip/xc32/v1.42/bin/bin/../../lib/gcc/pic32mx/4.8.3/../../../../pic32mx/lib\libc.a
LOAD c:/program files (x86)/microchip/xc32/v1.42/bin/bin/../../lib/gcc/pic32mx/4.8.3/../../../../pic32mx/lib\libpic32.a
END GROUP
LOAD c:/program files (x86)/microchip/xc32/v1.42/bin/bin/../../lib/gcc/pic32mx/4.8.3\libgcc.a
OUTPUT(dist/e16_encx24j600_spiflash/production/pic32_eth_web_server.X.production.elf elf32-tradlittlemips)
LOAD stack
LOAD data_init

.reginfo        0x00000000       0x18
 .reginfo       0x00000000       0x18 c:/program files (x86)/microchip/xc32/v1.42/bin/bin/../../lib/gcc/pic32mx/4.8.3/../../../../pic32mx/lib/./proc/32MX795F512L/crt0_mips32r2.o

.stack          0xa00193a8      0x400
 .stack         0xa00193a8      0x400 stack

.bss.gSYSFSMediaBuffer.gSYSFSMediaBuffer
                0xa00048b0     0x1000
 .bss.gSYSFSMediaBuffer.gSYSFSMediaBuffer
                0xa00048b0     0x1000 build/e16_encx24j600_spiflash/production/_ext/1750042194/sys_fs_media_manager.o
                0xa00048b0                gSYSFSMediaBuffer

.bss.gSYSFSMediaBlockBuffer.gSYSFSMediaBlockBuffer
                0xa00058b0     0x1000
 .bss.gSYSFSMediaBlockBuffer.gSYSFSMediaBlockBuffer
                0xa00058b0     0x1000 build/e16_encx24j600_spiflash/production/_ext/1750042194/sys_fs_media_manager.o
                0xa00058b0                gSYSFSMediaBlockBuffer

.bss            0xa00068b0     0x1f30
 .bss           0xa00068b0      0x9a8 build/e16_encx24j600_spiflash/production/_ext/1891376032/sys_command.o
 .bss           0xa0007258      0x67c build/e16_encx24j600_spiflash/production/_ext/1324760662/drv_spi.o
 .bss           0xa00078d4      0x400 build/e16_encx24j600_spiflash/production/_ext/1434663852/sys_console_uart.o
 .bss           0xa0007cd4      0x318 build/e16_encx24j600_spiflash/production/_ext/1360937237/custom_http_app.o
 .bss           0xa0007fec      0x2ec build/e16_encx24j600_spiflash/production/_ext/1164207549/tcpip_manager.o
 .bss           0xa00082d8      0x2e8 build/e16_encx24j600_spiflash/production/_ext/615233400/ssl.o
 .bss           0xa00085c0      0x220 build/e16_encx24j600_spiflash/production/_ext/614935175/mpfs.o

.bss.drvEncX24J600DrvInst.drvEncX24J600DrvInst
                0xa00087e0      0x1c0
 .bss.drvEncX24J600DrvInst.drvEncX24J600DrvInst
                0xa00087e0      0x1c0 build/e16_encx24j600_spiflash/production/_ext/772120936/drv_encx24j600_api.o

.data           0xa00089a0      0x2c8
 .data          0xa00089a0      0x164 build/e16_encx24j600_spiflash/production/_ext/689678155/system_init.o
                0xa00089a0                tcpipHeapConfig
                0xa00089bc                DHCP_POOL_CONFIG
                0xa00089d8                drvSpi1InitData
                0xa0008a50                drvSpi0InitData
                0xa0008ac8                drvEncX24j600InitDataIdx0
 .data          0xa0008b04       0xb4 build/e16_encx24j600_spiflash/production/_ext/1434663852/sys_console_uart.o
                0xa0008b04                consUartData
                0xa0008b94                consUsartDevDesc
 .data          0xa0008bb8       0xb0 build/e16_encx24j600_spiflash/production/_ext/971131287/net_pres_enc_glue.o
                0xa0008bb8                net_pres_EncProviderDataGramClient0
                0xa0008be4                net_pres_EncProviderDataGramServer0
                0xa0008c10                net_pres_EncProviderStreamClient0
                0xa0008c3c                net_pres_EncProviderStreamServer0

.bss            0xa0008c68       0x90
 .bss           0xa0008c68       0x90 build/e16_encx24j600_spiflash/production/_ext/2110151058/sys_tmr.o

.data           0xa0008cf8       0x8c
 .data          0xa0008cf8       0x8c c:/program files (x86)/microchip/xc32/v1.42/bin/bin/../../lib/gcc/pic32mx/4.8.3/../../../../pic32mx/lib\libm.a(fpexlog.o)

.bss            0xa0008d88      0x170
 .bss           0xa0008d88       0x48 c:/program files (x86)/microchip/xc32/v1.42/bin/bin/../../lib/gcc/pic32mx/4.8.3/../../../../pic32mx/lib\libc.a(ctime.o)
                0xa0008dc8                time_zone
 .bss           0xa0008dd0       0x44 build/e16_encx24j600_spiflash/production/_ext/1164207549/arp.o
 .bss           0xa0008e14       0x44 c:/program files (x86)/microchip/xc32/v1.42/bin/bin/../../lib/gcc/pic32mx/4.8.3/../../../../pic32mx/lib\libc.a(_iob.o)
                0xa0008e14                _sobuf
                0xa0008e34                _sibuf
                0xa0008e54                _outdone
 .bss           0xa0008e58       0x3c build/e16_encx24j600_spiflash/production/_ext/941160041/drv_tmr.o
 .bss           0xa0008e94       0x34 build/e16_encx24j600_spiflash/production/_ext/1164207549/tcpip_commands.o
 .bss           0xa0008ec8       0x30 build/e16_encx24j600_spiflash/production/_ext/1164207549/sntp.o

.data           0xa0008ef8       0x2c
 .data          0xa0008ef8       0x2c build/e16_encx24j600_spiflash/production/_ext/1750042194/sys_fs_media_manager.o
                0xa0008ef8                gSYSFSMediaManagerObj
                0xa0008f10                gSYSFSVolumeName

.bss            0xa0008f24       0x2c
 .bss           0xa0008f24       0x2c build/e16_encx24j600_spiflash/production/_ext/1164207549/smtp.o

.data           0xa0008f50       0x28
 .data          0xa0008f50       0x28 build/e16_encx24j600_spiflash/production/_ext/1324760662/drv_spi.o

.bss            0xa0008f78       0x28
 .bss           0xa0008f78       0x28 build/e16_encx24j600_spiflash/production/_ext/1164207549/dns.o

.data           0xa0008fa0       0x28
 .data          0xa0008fa0       0x28 build/e16_encx24j600_spiflash/production/_ext/1164207549/tcpip_helpers.o

.bss            0xa0008fc8       0x64
 .bss           0xa0008fc8       0x24 c:/program files (x86)/microchip/xc32/v1.42/bin/bin/../../lib/gcc/pic32mx/4.8.3/../../../../pic32mx/lib\libpic32.a(sbrk.o)
                0xa0008fe4                _maxbrk
                0xa0008fe8                _minbrk
 .bss           0xa0008fec       0x20 build/e16_encx24j600_spiflash/production/_ext/1164207549/ipv4.o
 .bss           0xa000900c       0x20 c:/program files (x86)/microchip/xc32/v1.42/bin/bin/../../lib/gcc/pic32mx/4.8.3/../../../../pic32mx/lib\libc.a(malloc.o)
                0xa000900c                __allocx
                0xa0009014                __alloct
                0xa0009018                __allocp
                0xa000901c                __allocs

.data           0xa000902c       0x1c
 .data          0xa000902c       0x1c c:/program files (x86)/microchip/xc32/v1.42/bin/bin/../../lib/gcc/pic32mx/4.8.3/../../../../pic32mx/lib\libm.a(fpexp32.o)

.bss            0xa0009048       0x64
 .bss           0xa0009048       0x18 build/e16_encx24j600_spiflash/production/_ext/1434663852/sys_console.o
 .bss           0xa0009060       0x18 build/e16_encx24j600_spiflash/production/_ext/470001640/sys_random.o
 .bss           0xa0009078       0x14 build/e16_encx24j600_spiflash/production/_ext/1164207549/dhcps.o
 .bss           0xa000908c       0x10 build/e16_encx24j600_spiflash/production/_ext/1164207549/dhcp.o
 .bss           0xa000909c       0x10 build/e16_encx24j600_spiflash/production/_ext/1164207549/ddns.o

.bss            0xa00090b0       0x10
 .bss           0xa00090b0       0x10 c:/program files (x86)/microchip/xc32/v1.42/bin/bin/../../lib/gcc/pic32mx/4.8.3/../../../../pic32mx/lib\libc.a(rand.o)

.bss            0xa00048a4        0xc
 .bss           0xa00048a4        0xc build/e16_encx24j600_spiflash/production/_ext/689678155/system_init.o
                0xa00048a4                debugInit

.data.math_errhandling_flag
                0xa0008d84        0x4
 .data.math_errhandling_flag
                0xa0008d84        0x4 c:/program files (x86)/microchip/xc32/v1.42/bin/bin/../../lib/gcc/pic32mx/4.8.3/../../../../pic32mx/lib\libm.a(s_lib_ver.o)
                0xa0008d84                math_errhandling

.bss.errno      0xa00090ac        0x4
 .bss.errno     0xa00090ac        0x4 c:/program files (x86)/microchip/xc32/v1.42/bin/bin/../../lib/gcc/pic32mx/4.8.3/../../../../pic32mx/lib\libc.a(errno.o)
                0xa00090ac                errno

._debug_exception
                0xbfc00480       0x2c
 ._debug_exception
                0xbfc00480       0x2c c:/program files (x86)/microchip/xc32/v1.42/bin/bin/../../lib/gcc/pic32mx/4.8.3/../../../../pic32mx/lib\debug-exception-return.o
                0xbfc00480                __DbgExecReturn

.rodata         0x9d000000     0x2828
 .rodata        0x9d000000     0x2828 build/e16_encx24j600_spiflash/production/_ext/29024758/aes.o

.text.vfprintf  0x9d002828     0x1c0c
 .text.vfprintf
                0x9d002828     0x1c0c c:/program files (x86)/microchip/xc32/v1.42/bin/bin/../../lib/gcc/pic32mx/4.8.3/../../../../pic32mx/lib\libc.a(doprnt.o)
                0x9d002828                vfprintf

.text.TCPIP_HTTP_ProcessConnection
                0x9d004434     0x1a68
 .text.TCPIP_HTTP_ProcessConnection
                0x9d004434     0x1a68 build/e16_encx24j600_spiflash/production/_ext/1164207549/http.o

.text.DRV_SPI_SetupHardware
                0x9d005e9c     0x1778
 .text.DRV_SPI_SetupHardware
                0x9d005e9c     0x1778 build/e16_encx24j600_spiflash/production/_ext/1676865386/drv_spi_api.o
                0x9d005e9c                DRV_SPI_SetupHardware

.rodata         0x9d007614     0x1710
 .rodata        0x9d007614     0x1710 build/e16_encx24j600_spiflash/production/_ext/1164207549/tcpip_commands.o

.text.TCPIP_TCP_Task
                0x9d008d24     0x14bc
 .text.TCPIP_TCP_Task
                0x9d008d24     0x14bc build/e16_encx24j600_spiflash/production/_ext/1164207549/tcp.o
                0x9d008d24                TCPIP_TCP_Task

.text.ProcessReply
                0x9d00a1e0     0x1348
 .text.ProcessReply
                0x9d00a1e0     0x1348 build/e16_encx24j600_spiflash/production/_ext/615233400/internal.o
                0x9d00a1e0                ProcessReply

.text.ParseCertRelative
                0x9d00b528     0x1328
 .text.ParseCertRelative
                0x9d00b528     0x1328 build/e16_encx24j600_spiflash/production/_ext/29024758/asn.o
                0x9d00b528                ParseCertRelative

.text.SendServerKeyExchange
                0x9d00c850     0x1200
 .text.SendServerKeyExchange
                0x9d00c850     0x1200 build/e16_encx24j600_spiflash/production/_ext/615233400/internal.o
                0x9d00c850                SendServerKeyExchange

.text.TCPIP_SMTP_ClientTask
                0x9d00da50     0x117c
 .text.TCPIP_SMTP_ClientTask
                0x9d00da50     0x117c build/e16_encx24j600_spiflash/production/_ext/1164207549/smtp.o
                0x9d00da50                TCPIP_SMTP_ClientTask

.text.TCPIP_HTTP_PostExecute
                0x9d00ebcc     0x1148
 .text.TCPIP_HTTP_PostExecute
                0x9d00ebcc     0x1148 build/e16_encx24j600_spiflash/production/_ext/1360937237/custom_http_app.o
                0x9d00ebcc                TCPIP_HTTP_PostExecute

.text._DRV_USART_HardwareSetup
                0x9d00fd14     0x1138
 .text._DRV_USART_HardwareSetup
                0x9d00fd14     0x1138 build/e16_encx24j600_spiflash/production/_ext/821589181/drv_usart.o
                0x9d00fd14                _DRV_USART_HardwareSetup

.text.TCPIP_DDNS_Task
                0x9d010e4c     0x10c8
 .text.TCPIP_DDNS_Task
                0x9d010e4c     0x10c8 build/e16_encx24j600_spiflash/production/_ext/1164207549/ddns.o
                0x9d010e4c                TCPIP_DDNS_Task

.text.Transform
                0x9d011f14     0x1018
 .text.Transform
                0x9d011f14     0x1018 build/e16_encx24j600_spiflash/production/_ext/29024758/sha.o

.text.DoHandShakeMsgType
                0x9d012f2c      0xfbc
 .text.DoHandShakeMsgType
                0x9d012f2c      0xfbc build/e16_encx24j600_spiflash/production/_ext/615233400/internal.o

.rodata         0x9d013ee8      0xf6c
 .rodata        0x9d013ee8      0xf6c build/e16_encx24j600_spiflash/production/_ext/615233400/internal.o

.text._DHCPS_ProcessGetPktandSendResponse
                0x9d014e54      0xf18
 .text._DHCPS_ProcessGetPktandSendResponse
                0x9d014e54      0xf18 build/e16_encx24j600_spiflash/production/_ext/1164207549/dhcps.o

.rodata         0x9d015d6c     0x1c68
 .rodata        0x9d015d6c      0xe88 build/e16_encx24j600_spiflash/production/_ext/971131287/net_pres_cert_store.o
 .rodata        0x9d016bf4      0xde0 build/e16_encx24j600_spiflash/production/_ext/29024758/ecc.o
                0x9d017890                ecc_sets

.text.DoServerKeyExchange
                0x9d0179d4      0xbe8
 .text.DoServerKeyExchange
                0x9d0179d4      0xbe8 build/e16_encx24j600_spiflash/production/_ext/615233400/internal.o

.text.CipherRequires
                0x9d0185bc      0xbc8
 .text.CipherRequires
                0x9d0185bc      0xbc8 build/e16_encx24j600_spiflash/production/_ext/615233400/internal.o

.text.DoClientKeyExchange
                0x9d019184      0xbb8
 .text.DoClientKeyExchange
                0x9d019184      0xbb8 build/e16_encx24j600_spiflash/production/_ext/615233400/internal.o

.text._vfprintf_cdnopuxX
                0x9d019d3c      0xad4
 .text._vfprintf_cdnopuxX
                0x9d019d3c      0xad4 c:/program files (x86)/microchip/xc32/v1.42/bin/bin/../../lib/gcc/pic32mx/4.8.3/../../../../pic32mx/lib\libc.a(doprnt_cdnopuxX.eo)
                0x9d019d3c                _vfprintf_cdnopuxX

.rodata         0x9d01a810      0xabc
 .rodata        0x9d01a810      0xabc build/e16_encx24j600_spiflash/production/_ext/1164207549/http.o

.text.SendClientKeyExchange
                0x9d01b2cc      0xab8
 .text.SendClientKeyExchange
                0x9d01b2cc      0xab8 build/e16_encx24j600_spiflash/production/_ext/615233400/internal.o
                0x9d01b2cc                SendClientKeyExchange

.text.Transform
                0x9d01bd84      0xa88
 .text.Transform
                0x9d01bd84      0xa88 build/e16_encx24j600_spiflash/production/_ext/29024758/md5.o

.text.SetCipherSpecs
                0x9d01c80c      0xa44
 .text.SetCipherSpecs
                0x9d01c80c      0xa44 build/e16_encx24j600_spiflash/production/_ext/615233400/keys.o
                0x9d01c80c                SetCipherSpecs

.text.DoClientHello
                0x9d01d250      0x940
 .text.DoClientHello
                0x9d01d250      0x940 build/e16_encx24j600_spiflash/production/_ext/615233400/internal.o

.text.fp_invmod
                0x9d01db90      0x8fc
 .text.fp_invmod
                0x9d01db90      0x8fc build/e16_encx24j600_spiflash/production/_ext/29024758/tfm.o
                0x9d01db90                fp_invmod

.dinit          0x9d01e48c      0x8f0
 .dinit         0x9d01e48c      0x8f0 data_init

.text.TCPIP_STACK_Task
                0x9d01ed7c      0x8e4
 .text.TCPIP_STACK_Task
                0x9d01ed7c      0x8e4 build/e16_encx24j600_spiflash/production/_ext/1164207549/tcpip_manager.o
                0x9d01ed7c                TCPIP_STACK_Task

.text._Command_DNS_Service
                0x9d01f660      0x8a0
 .text._Command_DNS_Service
                0x9d01f660      0x8a0 build/e16_encx24j600_spiflash/production/_ext/1164207549/tcpip_commands.o

.rodata         0x9d01ff00      0x898
 .rodata        0x9d01ff00      0x898 build/e16_encx24j600_spiflash/production/_ext/29024758/des3.o

.text.TCPIP_DHCP_Task
                0x9d020798      0x874
 .text.TCPIP_DHCP_Task
                0x9d020798      0x874 build/e16_encx24j600_spiflash/production/_ext/1164207549/dhcp.o
                0x9d020798                TCPIP_DHCP_Task

.text.ecc_projective_add_point
                0x9d02100c      0x848
 .text.ecc_projective_add_point
                0x9d02100c      0x848 build/e16_encx24j600_spiflash/production/_ext/29024758/ecc.o
                0x9d02100c                ecc_projective_add_point

.text._TcpSend  0x9d021854      0x7f4
 .text._TcpSend
                0x9d021854      0x7f4 build/e16_encx24j600_spiflash/production/_ext/1164207549/tcp.o

.text.OidFromId
                0x9d022048      0x7d0
 .text.OidFromId
                0x9d022048      0x7d0 build/e16_encx24j600_spiflash/production/_ext/29024758/asn.o

.text.wc_AesCbcDecrypt
                0x9d022818      0x7b8
 .text.wc_AesCbcDecrypt
                0x9d022818      0x7b8 build/e16_encx24j600_spiflash/production/_ext/29024758/aes.o
                0x9d022818                wc_AesCbcDecrypt

.text.fp_div    0x9d022fd0      0x768
 .text.fp_div   0x9d022fd0      0x768 build/e16_encx24j600_spiflash/production/_ext/29024758/tfm.o
                0x9d022fd0                fp_div

.text.wc_AesSetKey
                0x9d023738      0x768
 .text.wc_AesSetKey
                0x9d023738      0x768 build/e16_encx24j600_spiflash/production/_ext/29024758/aes.o
                0x9d023738                wc_AesSetKey

.text.wc_AesCbcEncrypt
                0x9d023ea0      0x768
 .text.wc_AesCbcEncrypt
                0x9d023ea0      0x768 build/e16_encx24j600_spiflash/production/_ext/29024758/aes.o
                0x9d023ea0                wc_AesCbcEncrypt

.text.SYS_FS_MEDIA_MANAGER_Tasks
                0x9d024608      0x758
 .text.SYS_FS_MEDIA_MANAGER_Tasks
                0x9d024608      0x758 build/e16_encx24j600_spiflash/production/_ext/1750042194/sys_fs_media_manager.o
                0x9d024608                SYS_FS_MEDIA_MANAGER_Tasks

.text.ProcessBuffer
                0x9d024d60      0x6b4
 .text.ProcessBuffer
                0x9d024d60      0x6b4 build/e16_encx24j600_spiflash/production/_ext/615233400/ssl.o

.text.DRV_SPI_ISRMasterEBM8BitTasks
                0x9d025414      0x6a4
 .text.DRV_SPI_ISRMasterEBM8BitTasks
                0x9d025414      0x6a4 build/e16_encx24j600_spiflash/production/_ext/1676865386/drv_spi_tasks.o
                0x9d025414                DRV_SPI_ISRMasterEBM8BitTasks

.text.DoCertificate
                0x9d025ab8      0x6a0
 .text.DoCertificate
                0x9d025ab8      0x6a0 build/e16_encx24j600_spiflash/production/_ext/615233400/internal.o

.text.InitSuites
                0x9d026158      0x668
 .text.InitSuites
                0x9d026158      0x668 build/e16_encx24j600_spiflash/production/_ext/615233400/internal.o
                0x9d026158                InitSuites

.text.GetName   0x9d0267c0      0x664
 .text.GetName  0x9d0267c0      0x664 build/e16_encx24j600_spiflash/production/_ext/29024758/asn.o

.text.DRV_ENCX24J600_ConfigStateTask
                0x9d026e24      0x61c
 .text.DRV_ENCX24J600_ConfigStateTask
                0x9d026e24      0x61c build/e16_encx24j600_spiflash/production/_ext/1730942135/drv_encx24j600_configure_state.o
                0x9d026e24                DRV_ENCX24J600_ConfigStateTask

.text.SendCertificate
                0x9d027440      0x5fc
 .text.SendCertificate
                0x9d027440      0x5fc build/e16_encx24j600_spiflash/production/_ext/615233400/internal.o
                0x9d027440                SendCertificate

.text.wc_ecc_mulmod
                0x9d027a3c      0x5f8
 .text.wc_ecc_mulmod
                0x9d027a3c      0x5f8 build/e16_encx24j600_spiflash/production/_ext/29024758/ecc.o
                0x9d027a3c                wc_ecc_mulmod

.text.ecc_projective_dbl_point
                0x9d028034      0x550
 .text.ecc_projective_dbl_point
                0x9d028034      0x550 build/e16_encx24j600_spiflash/production/_ext/29024758/ecc.o
                0x9d028034                ecc_projective_dbl_point

.text.DRV_SPI_ISRMasterRM8BitTasks
                0x9d028584      0x548
 .text.DRV_SPI_ISRMasterRM8BitTasks
                0x9d028584      0x548 build/e16_encx24j600_spiflash/production/_ext/1676865386/drv_spi_tasks.o
                0x9d028584                DRV_SPI_ISRMasterRM8BitTasks

.text._DRV_USART_BufferQueueTxTasks
                0x9d028acc      0x530
 .text._DRV_USART_BufferQueueTxTasks
                0x9d028acc      0x530 build/e16_encx24j600_spiflash/production/_ext/821589181/drv_usart.o
                0x9d028acc                _DRV_USART_BufferQueueTxTasks

.text.SetKeysSide
                0x9d028ffc      0x520
 .text.SetKeysSide
                0x9d028ffc      0x520 build/e16_encx24j600_spiflash/production/_ext/615233400/keys.o
                0x9d028ffc                SetKeysSide

.text.NET_PRES_Initialize
                0x9d02951c      0x514
 .text.NET_PRES_Initialize
                0x9d02951c      0x514 build/e16_encx24j600_spiflash/production/_ext/871719959/net_pres.o
                0x9d02951c                NET_PRES_Initialize

.text.SendClientHello
                0x9d029a30      0x514
 .text.SendClientHello
                0x9d029a30      0x514 build/e16_encx24j600_spiflash/production/_ext/615233400/internal.o
                0x9d029a30                SendClientHello

.rodata         0x9d029f44      0x4f0
 .rodata        0x9d029f44      0x4f0 build/e16_encx24j600_spiflash/production/_ext/1360937237/custom_http_app.o
                0x9d02a42c                HTML_DOWN_ARROW
                0x9d02a430                HTML_UP_ARROW

.text.SYS_CMD_Tasks
                0x9d02a434      0x4f0
 .text.SYS_CMD_Tasks
                0x9d02a434      0x4f0 build/e16_encx24j600_spiflash/production/_ext/1891376032/sys_command.o
                0x9d02a434                SYS_CMD_Tasks

.text.TCPIP_TCP_FifoSizeAdjust
                0x9d02a924      0x4cc
 .text.TCPIP_TCP_FifoSizeAdjust
                0x9d02a924      0x4cc build/e16_encx24j600_spiflash/production/_ext/1164207549/tcp.o
                0x9d02a924                TCPIP_TCP_FifoSizeAdjust

.text.TCPIP_SNTP_Task
                0x9d02adf0      0x4c8
 .text.TCPIP_SNTP_Task
                0x9d02adf0      0x4c8 build/e16_encx24j600_spiflash/production/_ext/1164207549/sntp.o
                0x9d02adf0                TCPIP_SNTP_Task

.text.DRV_SPI_Open
                0x9d02b2b8      0x4b4
 .text.DRV_SPI_Open
                0x9d02b2b8      0x4b4 build/e16_encx24j600_spiflash/production/_ext/1324760662/drv_spi.o
                0x9d02b2b8                DRV_SPI_Open

.text.DRV_USART_BaudSet
                0x9d02b76c      0x4b0
 .text.DRV_USART_BaudSet
                0x9d02b76c      0x4b0 build/e16_encx24j600_spiflash/production/_ext/821589181/drv_usart.o
                0x9d02b76c                DRV_USART_BaudSet

.rodata         0x9d02bc1c      0x4b0
 .rodata        0x9d02bc1c      0x4b0 build/e16_encx24j600_spiflash/production/_ext/1164207549/tcpip_manager.o

.text.TCPIP_DHCPS_Initialize
                0x9d02c0cc      0x4a8
 .text.TCPIP_DHCPS_Initialize
                0x9d02c0cc      0x4a8 build/e16_encx24j600_spiflash/production/_ext/1164207549/dhcps.o
                0x9d02c0cc                TCPIP_DHCPS_Initialize

.rodata         0x9d02c574      0x4a4
 .rodata        0x9d02c574      0x4a4 build/e16_encx24j600_spiflash/production/_ext/29024758/tfm.o

.text.TCPIP_STACK_Initialize
                0x9d02ca18      0x490
 .text.TCPIP_STACK_Initialize
                0x9d02ca18      0x490 build/e16_encx24j600_spiflash/production/_ext/1164207549/tcpip_manager.o
                0x9d02ca18                TCPIP_STACK_Initialize

.rodata         0x9d02cea8      0x484
 .rodata        0x9d02cea8      0x484 build/e16_encx24j600_spiflash/production/_ext/29024758/asn.o

.text.Transform
                0x9d02d32c      0x470
 .text.Transform
                0x9d02d32c      0x470 build/e16_encx24j600_spiflash/production/_ext/29024758/sha256.o

.text.TCPIP_ARP_Task
                0x9d02d79c      0x468
 .text.TCPIP_ARP_Task
                0x9d02d79c      0x468 build/e16_encx24j600_spiflash/production/_ext/1164207549/arp.o
                0x9d02d79c                TCPIP_ARP_Task

.text.SendCertificateVerify
                0x9d02dc04      0x468
 .text.SendCertificateVerify
                0x9d02dc04      0x468 build/e16_encx24j600_spiflash/production/_ext/615233400/internal.o
                0x9d02dc04                SendCertificateVerify

.text           0x9d02e06c      0x8bc
 .text          0x9d02e06c      0x464 c:/program files (x86)/microchip/xc32/v1.42/bin/bin/../../lib/gcc/pic32mx/4.8.3\libgcc.a(_umoddi3.o)
                0x9d02e06c                __umoddi3
 .text          0x9d02e4d0      0x458 c:/program files (x86)/microchip/xc32/v1.42/bin/bin/../../lib/gcc/pic32mx/4.8.3\libgcc.a(_udivdi3.o)
                0x9d02e4d0                __udivdi3

.text.TCPIP_HTTP_Print
                0x9d02e928      0x454
 .text.TCPIP_HTTP_Print
                0x9d02e928      0x454 build/e16_encx24j600_spiflash/production/_ext/1360937237/http_print.o
                0x9d02e928                TCPIP_HTTP_Print

.text.wc_ecc_verify_hash_ex
                0x9d02ed7c      0x454
 .text.wc_ecc_verify_hash_ex
                0x9d02ed7c      0x454 build/e16_encx24j600_spiflash/production/_ext/29024758/ecc.o
                0x9d02ed7c                wc_ecc_verify_hash_ex

.text._CommandArp
                0x9d02f1d0      0x434
 .text._CommandArp
                0x9d02f1d0      0x434 build/e16_encx24j600_spiflash/production/_ext/1164207549/tcpip_commands.o

.text.Hash_DRBG_Generate
                0x9d02f604      0x42c
 .text.Hash_DRBG_Generate
                0x9d02f604      0x42c build/e16_encx24j600_spiflash/production/_ext/29024758/random.o

.rodata         0x9d02fa30      0x428
 .rodata        0x9d02fa30      0x428 build/e16_encx24j600_spiflash/production/_ext/689678155/system_init.o
                0x9d02fa30                TCPIP_STACK_MODULE_CONFIG_TBL
                0x9d02fb14                TCPIP_HOSTS_CONFIGURATION
                0x9d02fb4c                tcpipDNSClientInitData
                0x9d02fb64                tcpipDHCPSInitData
                0x9d02fb90                tcpipDHCPInitData
                0x9d02fb90                tcpipNBNSInitData
                0x9d02fb90                tcpipDDNSInitData
                0x9d02fb90                tcpipICMPInitData
                0x9d02fba0                tcpipSMTPInitData
                0x9d02fbb0                tcpipSNTPInitData
                0x9d02fbcc                tcpipHTTPInitData
                0x9d02fbdc                tcpipTCPInitData
                0x9d02fbe4                tcpipUDPInitData
                0x9d02fbec                tcpipARPInitData
                0x9d02fbec                tcpipAnnounceInitData
                0x9d02fc14                sysTmrInitData
                0x9d02fc1c                sysFSInit
                0x9d02fc40                sysfsMountTable
                0x9d02fc50                sysDevconInit
                0x9d02fdcc                drvUsart0InitData
                0x9d02fe14                drvTmr0InitData
                0x9d02fe30                drvSst25vf016b0InitData

.text.wolfSSL_connect
                0x9d02fe58      0x424
 .text.wolfSSL_connect
                0x9d02fe58      0x424 build/e16_encx24j600_spiflash/production/_ext/615233400/ssl.o
                0x9d02fe58                wolfSSL_connect

.text.libm      0x9d03027c      0x408
 .text.libm     0x9d03027c      0x408 c:/program files (x86)/microchip/xc32/v1.42/bin/bin/../../lib/gcc/pic32mx/4.8.3/../../../../pic32mx/lib\libm.a(fppow32.o)
                0x9d03027c                __mchp_powf
                0x9d03027c                fppow

.text.wc_RabbitProcess
                0x9d030684      0x400
 .text.wc_RabbitProcess
                0x9d030684      0x400 build/e16_encx24j600_spiflash/production/_ext/1699919941/rabbit.o
                0x9d030684                wc_RabbitProcess

.text.DRV_USART_Read
                0x9d030a84      0x3f8
 .text.DRV_USART_Read
                0x9d030a84      0x3f8 build/e16_encx24j600_spiflash/production/_ext/821589181/drv_usart_read_write.o
                0x9d030a84                DRV_USART_Read

.text.TCPIP_Helper_StringToIPv6Address
                0x9d030e7c      0x3f0
 .text.TCPIP_Helper_StringToIPv6Address
                0x9d030e7c      0x3f0 build/e16_encx24j600_spiflash/production/_ext/1164207549/tcpip_helpers.o
                0x9d030e7c                TCPIP_Helper_StringToIPv6Address

.text.DRV_USART_BufferAddWrite
                0x9d03126c      0x3e8
 .text.DRV_USART_BufferAddWrite
                0x9d03126c      0x3e8 build/e16_encx24j600_spiflash/production/_ext/821589181/drv_usart_buffer_queue.o
                0x9d03126c                DRV_USART_BufferAddWrite

.text._DRV_SST25VF016B_ProcessBufferTask
                0x9d031654      0x3e4
 .text._DRV_SST25VF016B_ProcessBufferTask
                0x9d031654      0x3e4 build/e16_encx24j600_spiflash/production/_ext/1112873152/drv_sst25vf016b.o
                0x9d031654                _DRV_SST25VF016B_ProcessBufferTask

.text.SetSSL_CTX
                0x9d031a38      0x3e4
 .text.SetSSL_CTX
                0x9d031a38      0x3e4 build/e16_encx24j600_spiflash/production/_ext/615233400/internal.o
                0x9d031a38                SetSSL_CTX

.text.AddSession
                0x9d031e1c      0x3e0
 .text.AddSession
                0x9d031e1c      0x3e0 build/e16_encx24j600_spiflash/production/_ext/615233400/ssl.o
                0x9d031e1c                AddSession

.text.SendServerHello
                0x9d0321fc      0x3d8
 .text.SendServerHello
                0x9d0321fc      0x3d8 build/e16_encx24j600_spiflash/production/_ext/615233400/internal.o
                0x9d0321fc                SendServerHello

.text.wolfSSL_accept
                0x9d0325d4      0x3cc
 .text.wolfSSL_accept
                0x9d0325d4      0x3cc build/e16_encx24j600_spiflash/production/_ext/615233400/ssl.o
                0x9d0325d4                wolfSSL_accept

.rodata         0x9d0329a0      0x3c0
 .rodata        0x9d0329a0      0x3c0 build/e16_encx24j600_spiflash/production/_ext/1112873152/drv_sst25vf016b.o
                0x9d032d2c                spiflashMediaFunctions

.text._DNS_Send_Query
                0x9d032d60      0x3c0
 .text._DNS_Send_Query
                0x9d032d60      0x3c0 build/e16_encx24j600_spiflash/production/_ext/1164207549/dns.o

.text.TCPIP_TCP_ArrayFind
                0x9d033120      0x3a0
 .text.TCPIP_TCP_ArrayFind
                0x9d033120      0x3a0 build/e16_encx24j600_spiflash/production/_ext/1164207549/tcp.o
                0x9d033120                TCPIP_TCP_ArrayFind

.text.DRV_ENCX24J600_RxPacketTask
                0x9d0334c0      0x390
 .text.DRV_ENCX24J600_RxPacketTask
                0x9d0334c0      0x390 build/e16_encx24j600_spiflash/production/_ext/1210338337/drv_encx24j600_rx_packet.o
                0x9d0334c0                DRV_ENCX24J600_RxPacketTask

.text.Console_UART_Tasks
                0x9d033850      0x390
 .text.Console_UART_Tasks
                0x9d033850      0x390 build/e16_encx24j600_spiflash/production/_ext/1434663852/sys_console_uart.o
                0x9d033850                Console_UART_Tasks

.text.PemToDer  0x9d033be0      0x390
 .text.PemToDer
                0x9d033be0      0x390 build/e16_encx24j600_spiflash/production/_ext/615233400/ssl.o
                0x9d033be0                PemToDer

.text._CommandDhcpOptions
                0x9d033f70      0x388
 .text._CommandDhcpOptions
                0x9d033f70      0x388 build/e16_encx24j600_spiflash/production/_ext/1164207549/tcpip_commands.o

.text.DRV_ENCX24J600_TxPacketTask
                0x9d0342f8      0x380
 .text.DRV_ENCX24J600_TxPacketTask
                0x9d0342f8      0x380 build/e16_encx24j600_spiflash/production/_ext/1210338337/drv_encx24j600_tx_packet.o
                0x9d0342f8                DRV_ENCX24J600_TxPacketTask

.text.TCPIP_STACK_BringNetUp
                0x9d034678      0x380
 .text.TCPIP_STACK_BringNetUp
                0x9d034678      0x380 build/e16_encx24j600_spiflash/production/_ext/1164207549/tcpip_manager.o

.text.TCPIP_DNS_ClientInitialize
                0x9d0349f8      0x37c
 .text.TCPIP_DNS_ClientInitialize
                0x9d0349f8      0x37c build/e16_encx24j600_spiflash/production/_ext/1164207549/dns.o
                0x9d0349f8                TCPIP_DNS_ClientInitialize

.text.SYS_FS_MEDIA_MANAGER_SectorWrite
                0x9d034d74      0x370
 .text.SYS_FS_MEDIA_MANAGER_SectorWrite
                0x9d034d74      0x370 build/e16_encx24j600_spiflash/production/_ext/1750042194/sys_fs_media_manager.o
                0x9d034d74                SYS_FS_MEDIA_MANAGER_SectorWrite

.text.SPIFlashWriteArray
                0x9d0350e4      0x36c
 .text.SPIFlashWriteArray
                0x9d0350e4      0x36c build/e16_encx24j600_spiflash/production/_ext/1335609251/SPIFlash.o
                0x9d0350e4                SPIFlashWriteArray

.text.TCPIP_ARP_Initialize
                0x9d035450      0x36c
 .text.TCPIP_ARP_Initialize
                0x9d035450      0x36c build/e16_encx24j600_spiflash/production/_ext/1164207549/arp.o
                0x9d035450                TCPIP_ARP_Initialize

.text._Command_NetInfo
                0x9d0357bc      0x36c
 .text._Command_NetInfo
                0x9d0357bc      0x36c build/e16_encx24j600_spiflash/production/_ext/1164207549/tcpip_commands.o

.text._TCP_Open
                0x9d035b28      0x364
 .text._TCP_Open
                0x9d035b28      0x364 build/e16_encx24j600_spiflash/production/_ext/1164207549/tcp.o

.text.DRV_USART_Initialize
                0x9d035e8c      0x360
 .text.DRV_USART_Initialize
                0x9d035e8c      0x360 build/e16_encx24j600_spiflash/production/_ext/821589181/drv_usart.o
                0x9d035e8c                DRV_USART_Initialize

.text.NET_PRES_SocketOpen
                0x9d0361ec      0x35c
 .text.NET_PRES_SocketOpen
                0x9d0361ec      0x35c build/e16_encx24j600_spiflash/production/_ext/871719959/net_pres.o
                0x9d0361ec                NET_PRES_SocketOpen

.text.DecodeToKey
                0x9d036548      0x358
 .text.DecodeToKey
                0x9d036548      0x358 build/e16_encx24j600_spiflash/production/_ext/29024758/asn.o
                0x9d036548                DecodeToKey

.text.TCPIP_ANNOUNCE_Task
                0x9d0368a0      0x344
 .text.TCPIP_ANNOUNCE_Task
                0x9d0368a0      0x344 build/e16_encx24j600_spiflash/production/_ext/1164207549/tcpip_announce.o
                0x9d0368a0                TCPIP_ANNOUNCE_Task

.text.TCPIP_NBNS_Task
                0x9d036be4      0x340
 .text.TCPIP_NBNS_Task
                0x9d036be4      0x340 build/e16_encx24j600_spiflash/production/_ext/1164207549/nbns.o
                0x9d036be4                TCPIP_NBNS_Task

.text.DRV_SPI_MasterEBMSend8BitISR
                0x9d036f24      0x334
 .text.DRV_SPI_MasterEBMSend8BitISR
                0x9d036f24      0x334 build/e16_encx24j600_spiflash/production/_ext/1676865386/drv_spi_master_ebm_tasks.o
                0x9d036f24                DRV_SPI_MasterEBMSend8BitISR

.text.wc_RabbitSetKey
                0x9d037258      0x314
 .text.wc_RabbitSetKey
                0x9d037258      0x314 build/e16_encx24j600_spiflash/production/_ext/1699919941/rabbit.o
                0x9d037258                wc_RabbitSetKey

.text.ParseCmdBuffer
                0x9d03756c      0x30c
 .text.ParseCmdBuffer
                0x9d03756c      0x30c build/e16_encx24j600_spiflash/production/_ext/1891376032/sys_command.o

.text.TCPIP_COMMAND_Task
                0x9d037878      0x30c
 .text.TCPIP_COMMAND_Task
                0x9d037878      0x30c build/e16_encx24j600_spiflash/production/_ext/1164207549/tcpip_commands.o
                0x9d037878                TCPIP_COMMAND_Task

.text.TCPIP_UDP_Task
                0x9d037b84      0x304
 .text.TCPIP_UDP_Task
                0x9d037b84      0x304 build/e16_encx24j600_spiflash/production/_ext/1164207549/udp.o
                0x9d037b84                TCPIP_UDP_Task

.text.wc_EccPrivateKeyDecode
                0x9d037e88      0x300
 .text.wc_EccPrivateKeyDecode
                0x9d037e88      0x300 build/e16_encx24j600_spiflash/production/_ext/29024758/asn.o
                0x9d037e88                wc_EccPrivateKeyDecode

.text.TCPIP_IPV4_PacketTransmit
                0x9d038188      0x300
 .text.TCPIP_IPV4_PacketTransmit
                0x9d038188      0x300 build/e16_encx24j600_spiflash/production/_ext/1164207549/ipv4.o
                0x9d038188                TCPIP_IPV4_PacketTransmit

.text._DHCPSend
                0x9d038488      0x2ec
 .text._DHCPSend
                0x9d038488      0x2ec build/e16_encx24j600_spiflash/production/_ext/1164207549/dhcp.o

.text._DNS_ProcessPacket
                0x9d038774      0x2e4
 .text._DNS_ProcessPacket
                0x9d038774      0x2e4 build/e16_encx24j600_spiflash/production/_ext/1164207549/dns.o

.text.DeriveKeys
                0x9d038a58      0x2e4
 .text.DeriveKeys
                0x9d038a58      0x2e4 build/e16_encx24j600_spiflash/production/_ext/615233400/keys.o
                0x9d038a58                DeriveKeys

.text.ValidateDate
                0x9d038d3c      0x2e0
 .text.ValidateDate
                0x9d038d3c      0x2e0 build/e16_encx24j600_spiflash/production/_ext/29024758/asn.o
                0x9d038d3c                ValidateDate

.text.BuildMessage
                0x9d03901c      0x2e0
 .text.BuildMessage
                0x9d03901c      0x2e0 build/e16_encx24j600_spiflash/production/_ext/615233400/internal.o

.text.CommandHelp
                0x9d0392fc      0x2dc
 .text.CommandHelp
                0x9d0392fc      0x2dc build/e16_encx24j600_spiflash/production/_ext/1891376032/sys_command.o

.text.DRV_USART_LineControlSet
                0x9d0395d8      0x2d8
 .text.DRV_USART_LineControlSet
                0x9d0395d8      0x2d8 build/e16_encx24j600_spiflash/production/_ext/821589181/drv_usart.o
                0x9d0395d8                DRV_USART_LineControlSet

.text.AddCA     0x9d0398b0      0x2d8
 .text.AddCA    0x9d0398b0      0x2d8 build/e16_encx24j600_spiflash/production/_ext/615233400/ssl.o
                0x9d0398b0                AddCA

.text.MakeSslMasterSecret
                0x9d039b88      0x2d0
 .text.MakeSslMasterSecret
                0x9d039b88      0x2d0 build/e16_encx24j600_spiflash/production/_ext/615233400/keys.o

.text._DRV_ENCX24J600_MapSfrToSpi
                0x9d039e58      0x2cc
 .text._DRV_ENCX24J600_MapSfrToSpi
                0x9d039e58      0x2cc build/e16_encx24j600_spiflash/production/_ext/2115314394/drv_encx24j600_spi_bus.o

.text.Base64_Decode
                0x9d03a124      0x2bc
 .text.Base64_Decode
                0x9d03a124      0x2bc build/e16_encx24j600_spiflash/production/_ext/29024758/coding.o
                0x9d03a124                Base64_Decode

.text.fp_sqr_comba
                0x9d03a3e0      0x2b8
 .text.fp_sqr_comba
                0x9d03a3e0      0x2b8 build/e16_encx24j600_spiflash/production/_ext/29024758/tfm.o
                0x9d03a3e0                fp_sqr_comba

.text.DRV_ENCX24J600_ResetStateTask
                0x9d03a698      0x2b8
 .text.DRV_ENCX24J600_ResetStateTask
                0x9d03a698      0x2b8 build/e16_encx24j600_spiflash/production/_ext/1730942135/drv_encx24j600_reset_state.o
                0x9d03a698                DRV_ENCX24J600_ResetStateTask

.text.MatchSuite
                0x9d03a950      0x2b8
 .text.MatchSuite
                0x9d03a950      0x2b8 build/e16_encx24j600_spiflash/production/_ext/615233400/internal.o

.text.DtlsMsgSet
                0x9d03ac08      0x2b4
 .text.DtlsMsgSet
                0x9d03ac08      0x2b4 build/e16_encx24j600_spiflash/production/_ext/615233400/internal.o
                0x9d03ac08                DtlsMsgSet

.text.libm      0x9d03aebc      0x2b4
 .text.libm     0x9d03aebc      0x2b4 c:/program files (x86)/microchip/xc32/v1.42/bin/bin/../../lib/gcc/pic32mx/4.8.3/../../../../pic32mx/lib\libm.a(fpexlog.o)
                0x9d03aebc                fpexlog

.text.DRV_SPI_MasterEBMReceive8BitISR
                0x9d03b170      0x2b0
 .text.DRV_SPI_MasterEBMReceive8BitISR
                0x9d03b170      0x2b0 build/e16_encx24j600_spiflash/production/_ext/1676865386/drv_spi_master_ebm_tasks.o
                0x9d03b170                DRV_SPI_MasterEBMReceive8BitISR

.text.DRV_SPI_Initialize
                0x9d03b420      0x2b0
 .text.DRV_SPI_Initialize
                0x9d03b420      0x2b0 build/e16_encx24j600_spiflash/production/_ext/1324760662/drv_spi.o
                0x9d03b420                DRV_SPI_Initialize

.text.MPFS_Open
                0x9d03b6d0      0x2b0
 .text.MPFS_Open
                0x9d03b6d0      0x2b0 build/e16_encx24j600_spiflash/production/_ext/614935175/mpfs.o
                0x9d03b6d0                MPFS_Open

.text.TCPIP_UDP_Flush
                0x9d03b980      0x2a8
 .text.TCPIP_UDP_Flush
                0x9d03b980      0x2a8 build/e16_encx24j600_spiflash/production/_ext/1164207549/udp.o
                0x9d03b980                TCPIP_UDP_Flush

.text.wc_ecc_make_key_ex
                0x9d03bc28      0x2a4
 .text.wc_ecc_make_key_ex
                0x9d03bc28      0x2a4 build/e16_encx24j600_spiflash/production/_ext/29024758/ecc.o

.text.TCPIP_TCP_ArrayPut
                0x9d03becc      0x2a0
 .text.TCPIP_TCP_ArrayPut
                0x9d03becc      0x2a0 build/e16_encx24j600_spiflash/production/_ext/1164207549/tcp.o
                0x9d03becc                TCPIP_TCP_ArrayPut

.text.wc_ecc_sign_hash_ex
                0x9d03c16c      0x29c
 .text.wc_ecc_sign_hash_ex
                0x9d03c16c      0x29c build/e16_encx24j600_spiflash/production/_ext/29024758/ecc.o
                0x9d03c16c                wc_ecc_sign_hash_ex

.text.fp_div_2d
                0x9d03c408      0x294
 .text.fp_div_2d
                0x9d03c408      0x294 build/e16_encx24j600_spiflash/production/_ext/29024758/tfm.o
                0x9d03c408                fp_div_2d

.text.wc_Sha256Final
                0x9d03c69c      0x290
 .text.wc_Sha256Final
                0x9d03c69c      0x290 build/e16_encx24j600_spiflash/production/_ext/29024758/sha256.o
                0x9d03c69c                wc_Sha256Final

.text.SPIFlashInit
                0x9d03c92c      0x28c
 .text.SPIFlashInit
                0x9d03c92c      0x28c build/e16_encx24j600_spiflash/production/_ext/1335609251/SPIFlash.o
                0x9d03c92c                SPIFlashInit

.text.DRV_SPI_Close
                0x9d03cbb8      0x288
 .text.DRV_SPI_Close
                0x9d03cbb8      0x288 build/e16_encx24j600_spiflash/production/_ext/1324760662/drv_spi.o
                0x9d03cbb8                DRV_SPI_Close

.text.malloc    0x9d03ce40      0x288
 .text.malloc   0x9d03ce40      0x288 c:/program files (x86)/microchip/xc32/v1.42/bin/bin/../../lib/gcc/pic32mx/4.8.3/../../../../pic32mx/lib\libc.a(malloc.o)
                0x9d03ce40                malloc

.text._fp_exptmod
                0x9d03d0c8      0x284
 .text._fp_exptmod
                0x9d03d0c8      0x284 build/e16_encx24j600_spiflash/production/_ext/29024758/tfm.o

.text.SYS_FS_FileOpen
                0x9d03d34c      0x280
 .text.SYS_FS_FileOpen
                0x9d03d34c      0x280 build/e16_encx24j600_spiflash/production/_ext/1750042194/sys_fs.o
                0x9d03d34c                SYS_FS_FileOpen

.text._DRV_USART_BufferQueueRxTasks
                0x9d03d5cc      0x27c
 .text._DRV_USART_BufferQueueRxTasks
                0x9d03d5cc      0x27c build/e16_encx24j600_spiflash/production/_ext/821589181/drv_usart.o
                0x9d03d5cc                _DRV_USART_BufferQueueRxTasks

.text.TCPIP_HTTP_Initialize
                0x9d03d848      0x27c
 .text.TCPIP_HTTP_Initialize
                0x9d03d848      0x27c build/e16_encx24j600_spiflash/production/_ext/1164207549/http.o
                0x9d03d848                TCPIP_HTTP_Initialize

.text.SSL_ResourceFree
                0x9d03dac4      0x27c
 .text.SSL_ResourceFree
                0x9d03dac4      0x27c build/e16_encx24j600_spiflash/production/_ext/615233400/internal.o
                0x9d03dac4                SSL_ResourceFree

.text._Command_MacInfo
                0x9d03dd40      0x278
 .text._Command_MacInfo
                0x9d03dd40      0x278 build/e16_encx24j600_spiflash/production/_ext/1164207549/tcpip_commands.o

.text.fpsubadd  0x9d03dfb8      0x278
 .text.fpsubadd
                0x9d03dfb8      0x278 c:/program files (x86)/microchip/xc32/v1.42/bin/bin/../../lib/gcc/pic32mx/4.8.3/../../../../pic32mx/lib\libm.a(fp32subadd.o)
                0x9d03dfb8                __subsf3
                0x9d03dfb8                fpsub
                0x9d03dfc0                __addsf3
                0x9d03dfc0                fpadd

.text.DRV_SST25VF016B_Tasks
                0x9d03e230      0x274
 .text.DRV_SST25VF016B_Tasks
                0x9d03e230      0x274 build/e16_encx24j600_spiflash/production/_ext/1112873152/drv_sst25vf016b.o
                0x9d03e230                DRV_SST25VF016B_Tasks

.text.DRV_USART_BufferAddRead
                0x9d03e4a4      0x274
 .text.DRV_USART_BufferAddRead
                0x9d03e4a4      0x274 build/e16_encx24j600_spiflash/production/_ext/821589181/drv_usart_buffer_queue.o
                0x9d03e4a4                DRV_USART_BufferAddRead

.text.SSL_hmac  0x9d03e718      0x274
 .text.SSL_hmac
                0x9d03e718      0x274 build/e16_encx24j600_spiflash/production/_ext/615233400/internal.o

.text.FreeHandshakeResources
                0x9d03e98c      0x26c
 .text.FreeHandshakeResources
                0x9d03e98c      0x26c build/e16_encx24j600_spiflash/production/_ext/615233400/internal.o
                0x9d03e98c                FreeHandshakeResources

.text.GetSession
                0x9d03ebf8      0x268
 .text.GetSession
                0x9d03ebf8      0x268 build/e16_encx24j600_spiflash/production/_ext/615233400/ssl.o
                0x9d03ebf8                GetSession

.rodata         0x9d03ee60      0x264
 .rodata        0x9d03ee60      0x264 build/e16_encx24j600_spiflash/production/_ext/1891376032/sys_command.o
                0x9d03f09c                sysConsoleApi

.text.TCPIP_IPV4_Task
                0x9d03f0c4      0x264
 .text.TCPIP_IPV4_Task
                0x9d03f0c4      0x264 build/e16_encx24j600_spiflash/production/_ext/1164207549/ipv4.o
                0x9d03f0c4                TCPIP_IPV4_Task

.text.SYS_TMR_Tasks
                0x9d03f328      0x25c
 .text.SYS_TMR_Tasks
                0x9d03f328      0x25c build/e16_encx24j600_spiflash/production/_ext/2110151058/sys_tmr.o
                0x9d03f328                SYS_TMR_Tasks

.text           0x9d03f584      0x25c
 .text          0x9d03f584      0x25c build/e16_encx24j600_spiflash/production/_ext/1164207549/tcpip_helper_c32.o
                0x9d03f584                TCPIP_Helper_htonl
                0x9d03f590                TCPIP_Helper_htons
                0x9d03f59c                TCPIP_Helper_htonll
                0x9d03f5b0                TCPIP_Helper_CalcIPChecksum

.text.BuildFinished
                0x9d03f7e0      0x258
 .text.BuildFinished
                0x9d03f7e0      0x258 build/e16_encx24j600_spiflash/production/_ext/615233400/internal.o

.text.DoCertificateVerify
                0x9d03fa38      0x258
 .text.DoCertificateVerify
                0x9d03fa38      0x258 build/e16_encx24j600_spiflash/production/_ext/615233400/internal.o

.text._DHCPReceive
                0x9d03fc90      0x254
 .text._DHCPReceive
                0x9d03fc90      0x254 build/e16_encx24j600_spiflash/production/_ext/1164207549/dhcp.o

.text.fp_mul_comba
                0x9d03fee4      0x250
 .text.fp_mul_comba
                0x9d03fee4      0x250 build/e16_encx24j600_spiflash/production/_ext/29024758/tfm.o
                0x9d03fee4                fp_mul_comba

.text.wc_ShaFinal
                0x9d040134      0x24c
 .text.wc_ShaFinal
                0x9d040134      0x24c build/e16_encx24j600_spiflash/production/_ext/29024758/sha.o
                0x9d040134                wc_ShaFinal

.text.MPFS_Stat
                0x9d040380      0x24c
 .text.MPFS_Stat
                0x9d040380      0x24c build/e16_encx24j600_spiflash/production/_ext/614935175/mpfs.o
                0x9d040380                MPFS_Stat

.text.Hash_df   0x9d0405cc      0x244
 .text.Hash_df  0x9d0405cc      0x244 build/e16_encx24j600_spiflash/production/_ext/29024758/random.o

.text._DHCPOptionHostName
                0x9d040810      0x244
 .text._DHCPOptionHostName
                0x9d040810      0x244 build/e16_encx24j600_spiflash/production/_ext/1164207549/dhcp.o

.text.TCPIP_DNS_EntryQuery
                0x9d040a54      0x240
 .text.TCPIP_DNS_EntryQuery
                0x9d040a54      0x240 build/e16_encx24j600_spiflash/production/_ext/1164207549/dns.o
                0x9d040a54                TCPIP_DNS_EntryQuery

.text.BuildCertHashes
                0x9d040c94      0x240
 .text.BuildCertHashes
                0x9d040c94      0x240 build/e16_encx24j600_spiflash/production/_ext/615233400/internal.o

.text.DRV_ENCX24J600_ResetRxStateTask
                0x9d040ed4      0x238
 .text.DRV_ENCX24J600_ResetRxStateTask
                0x9d040ed4      0x238 build/e16_encx24j600_spiflash/production/_ext/1207282394/drv_encx24j600_reset_rx_state.o
                0x9d040ed4                DRV_ENCX24J600_ResetRxStateTask

.text.wc_RsaFunction
                0x9d04110c      0x234
 .text.wc_RsaFunction
                0x9d04110c      0x234 build/e16_encx24j600_spiflash/production/_ext/29024758/rsa.o

.text.PRF       0x9d041340      0x234
 .text.PRF      0x9d041340      0x234 build/e16_encx24j600_spiflash/production/_ext/615233400/tls.o

.text._DRV_TMR_ClockSourceSet
                0x9d041574      0x230
 .text._DRV_TMR_ClockSourceSet
                0x9d041574      0x230 build/e16_encx24j600_spiflash/production/_ext/941160041/drv_tmr.o

.text.fp32div   0x9d0417a4      0x230
 .text.fp32div  0x9d0417a4      0x230 c:/program files (x86)/microchip/xc32/v1.42/bin/bin/../../lib/gcc/pic32mx/4.8.3/../../../../pic32mx/lib\libm.a(fp32div.o)
                0x9d0417a4                fpdiv
                0x9d0417a4                __divsf3

.text.DRV_SPI_ClientConfigure
                0x9d0419d4      0x22c
 .text.DRV_SPI_ClientConfigure
                0x9d0419d4      0x22c build/e16_encx24j600_spiflash/production/_ext/1324760662/drv_spi.o
                0x9d0419d4                DRV_SPI_ClientConfigure

.text._UDPOpen  0x9d041c00      0x228
 .text._UDPOpen
                0x9d041c00      0x228 build/e16_encx24j600_spiflash/production/_ext/1164207549/udp.o

.text.fp_montgomery_reduce
                0x9d041e28      0x224
 .text.fp_montgomery_reduce
                0x9d041e28      0x224 build/e16_encx24j600_spiflash/production/_ext/29024758/tfm.o
                0x9d041e28                fp_montgomery_reduce

.text.DRV_ENCX24J600_RunningStateTask
                0x9d04204c      0x224
 .text.DRV_ENCX24J600_RunningStateTask
                0x9d04204c      0x224 build/e16_encx24j600_spiflash/production/_ext/1207282394/drv_encx24j600_running_state.o
                0x9d04204c                DRV_ENCX24J600_RunningStateTask

.text.ConfirmSignature
                0x9d042270      0x220
 .text.ConfirmSignature
                0x9d042270      0x220 build/e16_encx24j600_spiflash/production/_ext/29024758/asn.o

.text.Des3ProcessBlock
                0x9d042490      0x220
 .text.Des3ProcessBlock
                0x9d042490      0x220 build/e16_encx24j600_spiflash/production/_ext/29024758/des3.o

.text.APP_Tasks
                0x9d0426b0      0x21c
 .text.APP_Tasks
                0x9d0426b0      0x21c build/e16_encx24j600_spiflash/production/_ext/1360937237/app.o
                0x9d0426b0                APP_Tasks

.text.DRV_SPI_ISRErrorTasks
                0x9d0428cc      0x21c
 .text.DRV_SPI_ISRErrorTasks
                0x9d0428cc      0x21c build/e16_encx24j600_spiflash/production/_ext/1324760662/drv_spi.o
                0x9d0428cc                DRV_SPI_ISRErrorTasks

.text.scale     0x9d042ae8      0x21c
 .text.scale    0x9d042ae8      0x21c c:/program files (x86)/microchip/xc32/v1.42/bin/bin/../../lib/gcc/pic32mx/4.8.3/../../../../pic32mx/lib\libc.a(doprnt.o)

.text.DesSetKey
                0x9d042d04      0x218
 .text.DesSetKey
                0x9d042d04      0x218 build/e16_encx24j600_spiflash/production/_ext/29024758/des3.o

.rodata         0x9d042f1c      0x218
 .rodata        0x9d042f1c      0x218 build/e16_encx24j600_spiflash/production/_ext/821589181/drv_usart.o

.text.SYS_Initialize
                0x9d043134      0x214
 .text.SYS_Initialize
                0x9d043134      0x214 build/e16_encx24j600_spiflash/production/_ext/689678155/system_init.o
                0x9d043134                SYS_Initialize

.text.RABBIT_next_state
                0x9d043348      0x214
 .text.RABBIT_next_state
                0x9d043348      0x214 build/e16_encx24j600_spiflash/production/_ext/1699919941/rabbit.o

.text.__floatdisf
                0x9d04355c      0x214
 .text.__floatdisf
                0x9d04355c      0x214 c:/program files (x86)/microchip/xc32/v1.42/bin/bin/../../lib/gcc/pic32mx/4.8.3/../../../../pic32mx/lib\libe.a(_floatdisf.o)
                0x9d04355c                __floatdisf

.text._TCPIP_HEAP_Free
                0x9d043770      0x210
 .text._TCPIP_HEAP_Free
                0x9d043770      0x210 build/e16_encx24j600_spiflash/production/_ext/1164207549/tcpip_heap_internal.o

.text.p_hash    0x9d043980      0x210
 .text.p_hash   0x9d043980      0x210 build/e16_encx24j600_spiflash/production/_ext/615233400/tls.o

.text.GetInputData
                0x9d043b90      0x20c
 .text.GetInputData
                0x9d043b90      0x20c build/e16_encx24j600_spiflash/production/_ext/615233400/internal.o

.text.wc_HmacSetKey
                0x9d043d9c      0x208
 .text.wc_HmacSetKey
                0x9d043d9c      0x208 build/e16_encx24j600_spiflash/production/_ext/29024758/hmac.o
                0x9d043d9c                wc_HmacSetKey

.text._Command_StackOnOff
                0x9d043fa4      0x208
 .text._Command_StackOnOff
                0x9d043fa4      0x208 build/e16_encx24j600_spiflash/production/_ext/1164207549/tcpip_commands.o

.text.DRV_TMR_Initialize
                0x9d0441ac      0x204
 .text.DRV_TMR_Initialize
                0x9d0441ac      0x204 build/e16_encx24j600_spiflash/production/_ext/941160041/drv_tmr.o
                0x9d0441ac                DRV_TMR_Initialize

.text           0x9d0443b0      0x204
 .text          0x9d0443b0      0x204 c:/program files (x86)/microchip/xc32/v1.42/bin/bin/../../lib/gcc/pic32mx/4.8.3/../../../../pic32mx/lib\libm.a(fpexp32.o)
                0x9d0443b0                fpexexp
                0x9d0444c8                fpexp
                0x9d0444c8                __mchp_expf

.text.SPIFlashWrite
                0x9d0445b4      0x200
 .text.SPIFlashWrite
                0x9d0445b4      0x200 build/e16_encx24j600_spiflash/production/_ext/1335609251/SPIFlash.o
                0x9d0445b4                SPIFlashWrite

.text.SendData  0x9d0447b4      0x200
 .text.SendData
                0x9d0447b4      0x200 build/e16_encx24j600_spiflash/production/_ext/615233400/internal.o
                0x9d0447b4                SendData

.text._Command_NetworkOnOff
                0x9d0449b4      0x1fc
 .text._Command_NetworkOnOff
                0x9d0449b4      0x1fc build/e16_encx24j600_spiflash/production/_ext/1164207549/tcpip_commands.o

.rodata         0x9d044bb0      0x1fc
 .rodata        0x9d044bb0      0x1fc build/e16_encx24j600_spiflash/production/_ext/1164207549/ddns.o
                0x9d044d00                ddnsServiceHosts

.text._Command_AddressService
                0x9d044dac      0x1f8
 .text._Command_AddressService
                0x9d044dac      0x1f8 build/e16_encx24j600_spiflash/production/_ext/1164207549/tcpip_commands.o

.text.TCPIP_ICMP_Task
                0x9d044fa4      0x1f4
 .text.TCPIP_ICMP_Task
                0x9d044fa4      0x1f4 build/e16_encx24j600_spiflash/production/_ext/1164207549/icmp.o
                0x9d044fa4                TCPIP_ICMP_Task

.text.ecc_map   0x9d045198      0x1ec
 .text.ecc_map  0x9d045198      0x1ec build/e16_encx24j600_spiflash/production/_ext/29024758/ecc.o
                0x9d045198                ecc_map

.text.DRV_USART_TasksError
                0x9d045384      0x1ec
 .text.DRV_USART_TasksError
                0x9d045384      0x1ec build/e16_encx24j600_spiflash/production/_ext/821589181/drv_usart.o
                0x9d045384                DRV_USART_TasksError

.text.MatchBaseName
                0x9d045570      0x1e8
 .text.MatchBaseName
                0x9d045570      0x1e8 build/e16_encx24j600_spiflash/production/_ext/29024758/asn.o

.text.DRV_TMR_AlarmRegister
                0x9d045758      0x1e8
 .text.DRV_TMR_AlarmRegister
                0x9d045758      0x1e8 build/e16_encx24j600_spiflash/production/_ext/941160041/drv_tmr.o
                0x9d045758                DRV_TMR_AlarmRegister

.text._LoadNetworkConfig
                0x9d045940      0x1e8
 .text._LoadNetworkConfig
                0x9d045940      0x1e8 build/e16_encx24j600_spiflash/production/_ext/1164207549/tcpip_manager.o

.text.SendFinished
                0x9d045b28      0x1e4
 .text.SendFinished
                0x9d045b28      0x1e4 build/e16_encx24j600_spiflash/production/_ext/615233400/internal.o
                0x9d045b28                SendFinished

.text.TCPIP_UDP_Bind
                0x9d045d0c      0x1e0
 .text.TCPIP_UDP_Bind
                0x9d045d0c      0x1e0 build/e16_encx24j600_spiflash/production/_ext/1164207549/udp.o
                0x9d045d0c                TCPIP_UDP_Bind

.text._Command_IPAddressSet
                0x9d045eec      0x1e0
 .text._Command_IPAddressSet
                0x9d045eec      0x1e0 build/e16_encx24j600_spiflash/production/_ext/1164207549/tcpip_commands.o

.text._DNS_IsNameResolved
                0x9d0460cc      0x1dc
 .text._DNS_IsNameResolved
                0x9d0460cc      0x1dc build/e16_encx24j600_spiflash/production/_ext/1164207549/dns.o

.text.DRV_SPI_SYS_QUEUE_Initialize
                0x9d0462a8      0x1d8
 .text.DRV_SPI_SYS_QUEUE_Initialize
                0x9d0462a8      0x1d8 build/e16_encx24j600_spiflash/production/_ext/1385053818/drv_spi_sys_queue_fifo.o
                0x9d0462a8                DRV_SPI_SYS_QUEUE_Initialize

.text._DNS_RESPONSE_HashEntryUpdate
                0x9d046480      0x1d8
 .text._DNS_RESPONSE_HashEntryUpdate
                0x9d046480      0x1d8 build/e16_encx24j600_spiflash/production/_ext/1164207549/dns.o

.text.wc_RsaPublicKeyDecode
                0x9d046658      0x1d4
 .text.wc_RsaPublicKeyDecode
                0x9d046658      0x1d4 build/e16_encx24j600_spiflash/production/_ext/29024758/asn.o
                0x9d046658                wc_RsaPublicKeyDecode

.text.TCPIP_DNS_ClientTask
                0x9d04682c      0x1d4
 .text.TCPIP_DNS_ClientTask
                0x9d04682c      0x1d4 build/e16_encx24j600_spiflash/production/_ext/1164207549/dns.o
                0x9d04682c                TCPIP_DNS_ClientTask

.text._Command_DHCPLeaseInfo
                0x9d046a00      0x1d4
 .text._Command_DHCPLeaseInfo
                0x9d046a00      0x1d4 build/e16_encx24j600_spiflash/production/_ext/1164207549/tcpip_commands.o

.text.InitSSL   0x9d046bd4      0x1d4
 .text.InitSSL  0x9d046bd4      0x1d4 build/e16_encx24j600_spiflash/production/_ext/615233400/internal.o
                0x9d046bd4                InitSSL

.text.strtoul   0x9d046da8      0x1d4
 .text.strtoul  0x9d046da8      0x1d4 c:/program files (x86)/microchip/xc32/v1.42/bin/bin/../../lib/gcc/pic32mx/4.8.3/../../../../pic32mx/lib\libc.a(strtol.o)
                0x9d046da8                strtoul

.text.SPIFlashReadArray
                0x9d046f7c      0x1d0
 .text.SPIFlashReadArray
                0x9d046f7c      0x1d0 build/e16_encx24j600_spiflash/production/_ext/1335609251/SPIFlash.o
                0x9d046f7c                SPIFlashReadArray

.text.SendCertificateRequest
                0x9d04714c      0x1d0
 .text.SendCertificateRequest
                0x9d04714c      0x1d0 build/e16_encx24j600_spiflash/production/_ext/615233400/internal.o
                0x9d04714c                SendCertificateRequest

.text.DesRawProcessBlock
                0x9d04731c      0x1cc
 .text.DesRawProcessBlock
                0x9d04731c      0x1cc build/e16_encx24j600_spiflash/production/_ext/29024758/des3.o

.text.TCPIP_Helper_StringToIPAddress
                0x9d0474e8      0x1cc
 .text.TCPIP_Helper_StringToIPAddress
                0x9d0474e8      0x1cc build/e16_encx24j600_spiflash/production/_ext/1164207549/tcpip_helpers.o
                0x9d0474e8                TCPIP_Helper_StringToIPAddress

.text.TCPIP_ARP_EntryRemoveNet
                0x9d0476b4      0x1c8
 .text.TCPIP_ARP_EntryRemoveNet
                0x9d0476b4      0x1c8 build/e16_encx24j600_spiflash/production/_ext/1164207549/arp.o
                0x9d0476b4                TCPIP_ARP_EntryRemoveNet

.text.wc_ecc_import_x963
                0x9d04787c      0x1c4
 .text.wc_ecc_import_x963
                0x9d04787c      0x1c4 build/e16_encx24j600_spiflash/production/_ext/29024758/ecc.o
                0x9d04787c                wc_ecc_import_x963

.text.fp_mul_2d
                0x9d047a40      0x1c4
 .text.fp_mul_2d
                0x9d047a40      0x1c4 build/e16_encx24j600_spiflash/production/_ext/29024758/tfm.o
                0x9d047a40                fp_mul_2d

.text.DRV_SPI_BufferAddWriteRead2
                0x9d047c04      0x1c4
 .text.DRV_SPI_BufferAddWriteRead2
                0x9d047c04      0x1c4 build/e16_encx24j600_spiflash/production/_ext/1324760662/drv_spi.o
                0x9d047c04                DRV_SPI_BufferAddWriteRead2

.text.DRV_SST25VF016B_BlockWrite
                0x9d047dc8      0x1c4
 .text.DRV_SST25VF016B_BlockWrite
                0x9d047dc8      0x1c4 build/e16_encx24j600_spiflash/production/_ext/1112873152/drv_sst25vf016b.o
                0x9d047dc8                DRV_SST25VF016B_BlockWrite

.text.DRV_SST25VF016B_BlockRead
                0x9d047f8c      0x1c0
 .text.DRV_SST25VF016B_BlockRead
                0x9d047f8c      0x1c0 build/e16_encx24j600_spiflash/production/_ext/1112873152/drv_sst25vf016b.o
                0x9d047f8c                DRV_SST25VF016B_BlockRead

.text.fp32mul   0x9d04814c      0x1bc
 .text.fp32mul  0x9d04814c      0x1bc c:/program files (x86)/microchip/xc32/v1.42/bin/bin/../../lib/gcc/pic32mx/4.8.3/../../../../pic32mx/lib\libm.a(fp32mul.o)
                0x9d04814c                __mulsf3
                0x9d04814c                fpmul

.text.TCPIP_DHCPS_Task
                0x9d048308      0x1b8
 .text.TCPIP_DHCPS_Task
                0x9d048308      0x1b8 build/e16_encx24j600_spiflash/production/_ext/1164207549/dhcps.o
                0x9d048308                TCPIP_DHCPS_Task

.text.wc_ecc_shared_secret
                0x9d0484c0      0x1b4
 .text.wc_ecc_shared_secret
                0x9d0484c0      0x1b4 build/e16_encx24j600_spiflash/production/_ext/29024758/ecc.o
                0x9d0484c0                wc_ecc_shared_secret

.text.wc_RNG_GenerateBlock
                0x9d048674      0x1b0
 .text.wc_RNG_GenerateBlock
                0x9d048674      0x1b0 build/e16_encx24j600_spiflash/production/_ext/29024758/random.o
                0x9d048674                wc_RNG_GenerateBlock

.text.DRV_SST25VF016B_BlockErase
                0x9d048824      0x1b0
 .text.DRV_SST25VF016B_BlockErase
                0x9d048824      0x1b0 build/e16_encx24j600_spiflash/production/_ext/1112873152/drv_sst25vf016b.o
                0x9d048824                DRV_SST25VF016B_BlockErase

.text.TCPIP_UDP_ArrayGet
                0x9d0489d4      0x1b0
 .text.TCPIP_UDP_ArrayGet
                0x9d0489d4      0x1b0 build/e16_encx24j600_spiflash/production/_ext/1164207549/udp.o
                0x9d0489d4                TCPIP_UDP_ArrayGet

.text.TCPIP_UDP_OptionsSet
                0x9d048b84      0x1b0
 .text.TCPIP_UDP_OptionsSet
                0x9d048b84      0x1b0 build/e16_encx24j600_spiflash/production/_ext/1164207549/udp.o
                0x9d048b84                TCPIP_UDP_OptionsSet

.text._DNS_Resolve
                0x9d048d34      0x1b0
 .text._DNS_Resolve
                0x9d048d34      0x1b0 build/e16_encx24j600_spiflash/production/_ext/1164207549/dns.o

.text.DRV_SPI_MasterRMSend8BitISR
                0x9d048ee4      0x1ac
 .text.DRV_SPI_MasterRMSend8BitISR
                0x9d048ee4      0x1ac build/e16_encx24j600_spiflash/production/_ext/1676865386/drv_spi_master_rm_tasks.o
                0x9d048ee4                DRV_SPI_MasterRMSend8BitISR

.text.TCPIP_Helper_Base64Decode
                0x9d049090      0x1ac
 .text.TCPIP_Helper_Base64Decode
                0x9d049090      0x1ac build/e16_encx24j600_spiflash/production/_ext/1164207549/tcpip_helpers.o
                0x9d049090                TCPIP_Helper_Base64Decode

.text.DRV_TMR_CounterFrequencyGet
                0x9d04923c      0x1a4
 .text.DRV_TMR_CounterFrequencyGet
                0x9d04923c      0x1a4 build/e16_encx24j600_spiflash/production/_ext/941160041/drv_tmr.o
                0x9d04923c                DRV_TMR_CounterFrequencyGet

.text._DNS_GetAddresses
                0x9d0493e0      0x1a4
 .text._DNS_GetAddresses
                0x9d0493e0      0x1a4 build/e16_encx24j600_spiflash/production/_ext/1164207549/dns.o

.text.DtlsPoolSend
                0x9d049584      0x1a4
 .text.DtlsPoolSend
                0x9d049584      0x1a4 build/e16_encx24j600_spiflash/production/_ext/615233400/internal.o
                0x9d049584                DtlsPoolSend

.text.gmtime    0x9d049728      0x1a4
 .text.gmtime   0x9d049728      0x1a4 c:/program files (x86)/microchip/xc32/v1.42/bin/bin/../../lib/gcc/pic32mx/4.8.3/../../../../pic32mx/lib\libc.a(ctime.o)
                0x9d049728                gmtime

.text.fround    0x9d0498cc      0x1a4
 .text.fround   0x9d0498cc      0x1a4 c:/program files (x86)/microchip/xc32/v1.42/bin/bin/../../lib/gcc/pic32mx/4.8.3/../../../../pic32mx/lib\libc.a(doprnt.o)

.text.DRV_SPI_BufferAddRead2
                0x9d049a70      0x1a0
 .text.DRV_SPI_BufferAddRead2
                0x9d049a70      0x1a0 build/e16_encx24j600_spiflash/production/_ext/1324760662/drv_spi.o
                0x9d049a70                DRV_SPI_BufferAddRead2

.text.SendAlert
                0x9d049c10      0x1a0
 .text.SendAlert
                0x9d049c10      0x1a0 build/e16_encx24j600_spiflash/production/_ext/615233400/internal.o
                0x9d049c10                SendAlert

.text           0x9d049db0      0x1a0
 .text          0x9d049db0      0x1a0 c:/program files (x86)/microchip/xc32/v1.42/bin/bin/../../lib/gcc/pic32mx/4.8.3/../../../../pic32mx/lib\libpic32.a(strcpy.o)
                0x9d049db0                strcpy

.text.SPIFlashEraseSector
                0x9d049f50      0x19c
 .text.SPIFlashEraseSector
                0x9d049f50      0x19c build/e16_encx24j600_spiflash/production/_ext/1335609251/SPIFlash.o
                0x9d049f50                SPIFlashEraseSector

.text.TCPIP_TCP_OptionsSet
                0x9d04a0ec      0x19c
 .text.TCPIP_TCP_OptionsSet
                0x9d04a0ec      0x19c build/e16_encx24j600_spiflash/production/_ext/1164207549/tcp.o
                0x9d04a0ec                TCPIP_TCP_OptionsSet

.text.strtol    0x9d04a288      0x19c
 .text.strtol   0x9d04a288      0x19c c:/program files (x86)/microchip/xc32/v1.42/bin/bin/../../lib/gcc/pic32mx/4.8.3/../../../../pic32mx/lib\libc.a(strtol.o)
                0x9d04a288                strtol

.text.NET_PRES_SocketWriteIsReady
                0x9d04a424      0x198
 .text.NET_PRES_SocketWriteIsReady
                0x9d04a424      0x198 build/e16_encx24j600_spiflash/production/_ext/871719959/net_pres.o
                0x9d04a424                NET_PRES_SocketWriteIsReady

.text._ARPProbeAddress
                0x9d04a5bc      0x198
 .text._ARPProbeAddress
                0x9d04a5bc      0x198 build/e16_encx24j600_spiflash/production/_ext/1164207549/arp.o

.text.fp_mod_2d
                0x9d04a754      0x194
 .text.fp_mod_2d
                0x9d04a754      0x194 build/e16_encx24j600_spiflash/production/_ext/29024758/tfm.o
                0x9d04a754                fp_mod_2d

.text._DRV_TMR_ClockPrescaleSet
                0x9d04a8e8      0x194
 .text._DRV_TMR_ClockPrescaleSet
                0x9d04a8e8      0x194 build/e16_encx24j600_spiflash/production/_ext/941160041/drv_tmr.o

.text.TCPIP_Helper_Base64Encode
                0x9d04aa7c      0x194
 .text.TCPIP_Helper_Base64Encode
                0x9d04aa7c      0x194 build/e16_encx24j600_spiflash/production/_ext/1164207549/tcpip_helpers.o
                0x9d04aa7c                TCPIP_Helper_Base64Encode

.text._sbrk_init
                0x9d04ac10      0x194
 .text._sbrk_init
                0x9d04ac10      0x194 c:/program files (x86)/microchip/xc32/v1.42/bin/bin/../../lib/gcc/pic32mx/4.8.3/../../../../pic32mx/lib\libpic32.a(sbrk.o)
                0x9d04ac10                _sbrk_init

.text.TCPIP_TCP_ArrayGet
                0x9d04ada4      0x190
 .text.TCPIP_TCP_ArrayGet
                0x9d04ada4      0x190 build/e16_encx24j600_spiflash/production/_ext/1164207549/tcp.o
                0x9d04ada4                TCPIP_TCP_ArrayGet

.text._HTTP_ReadTo
                0x9d04af34      0x190
 .text._HTTP_ReadTo
                0x9d04af34      0x190 build/e16_encx24j600_spiflash/production/_ext/1164207549/http.o

.text.DRV_USART_Open
                0x9d04b0c4      0x18c
 .text.DRV_USART_Open
                0x9d04b0c4      0x18c build/e16_encx24j600_spiflash/production/_ext/821589181/drv_usart.o
                0x9d04b0c4                DRV_USART_Open

.text.TCPIP_DHCP_Initialize
                0x9d04b250      0x18c
 .text.TCPIP_DHCP_Initialize
                0x9d04b250      0x18c build/e16_encx24j600_spiflash/production/_ext/1164207549/dhcp.o
                0x9d04b250                TCPIP_DHCP_Initialize

.rodata         0x9d04b3dc      0x188
 .rodata        0x9d04b3dc      0x188 build/e16_encx24j600_spiflash/production/_ext/1164207549/smtp.o

.text.DRV_SPI_BufferAddWrite2
                0x9d04b564      0x184
 .text.DRV_SPI_BufferAddWrite2
                0x9d04b564      0x184 build/e16_encx24j600_spiflash/production/_ext/1324760662/drv_spi.o
                0x9d04b564                DRV_SPI_BufferAddWrite2

.text.TCPIP_UDP_Deinitialize
                0x9d04b6e8      0x184
 .text.TCPIP_UDP_Deinitialize
                0x9d04b6e8      0x184 build/e16_encx24j600_spiflash/production/_ext/1164207549/udp.o
                0x9d04b6e8                TCPIP_UDP_Deinitialize

.text.DRV_SPI_MasterRMReceive8BitISR
                0x9d04b86c      0x180
 .text.DRV_SPI_MasterRMReceive8BitISR
                0x9d04b86c      0x180 build/e16_encx24j600_spiflash/production/_ext/1676865386/drv_spi_master_rm_tasks.o
                0x9d04b86c                DRV_SPI_MasterRMReceive8BitISR

.rodata         0x9d04b9ec      0x180
 .rodata        0x9d04b9ec      0x180 build/e16_encx24j600_spiflash/production/_ext/29024758/random.o
                0x9d04b9ec                outputB
                0x9d04ba6c                entropyB
                0x9d04ba9c                outputA
                0x9d04bb1c                reseedEntropyA
                0x9d04bb3c                entropyA

.text.wc_RsaPrivateKeyDecode
                0x9d04bb6c      0x180
 .text.wc_RsaPrivateKeyDecode
                0x9d04bb6c      0x180 build/e16_encx24j600_spiflash/production/_ext/29024758/asn.o
                0x9d04bb6c                wc_RsaPrivateKeyDecode

.text.SYS_FS_Mount
                0x9d04bcec      0x180
 .text.SYS_FS_Mount
                0x9d04bcec      0x180 build/e16_encx24j600_spiflash/production/_ext/1750042194/sys_fs.o
                0x9d04bcec                SYS_FS_Mount

.text.TCPIP_TCP_Initialize
                0x9d04be6c      0x180
 .text.TCPIP_TCP_Initialize
                0x9d04be6c      0x180 build/e16_encx24j600_spiflash/production/_ext/1164207549/tcp.o
                0x9d04be6c                TCPIP_TCP_Initialize

.text.SetPrefix
                0x9d04bfec      0x180
 .text.SetPrefix
                0x9d04bfec      0x180 build/e16_encx24j600_spiflash/production/_ext/615233400/keys.o

.text.DRV_ENCX24J600_ChkStatusStateTask
                0x9d04c16c      0x17c
 .text.DRV_ENCX24J600_ChkStatusStateTask
                0x9d04c16c      0x17c build/e16_encx24j600_spiflash/production/_ext/1207282394/drv_encx24j600_check_status_state.o
                0x9d04c16c                DRV_ENCX24J600_ChkStatusStateTask

.text._SYS_TMR_ClientCreate
                0x9d04c2e8      0x178
 .text._SYS_TMR_ClientCreate
                0x9d04c2e8      0x178 build/e16_encx24j600_spiflash/production/_ext/2110151058/sys_tmr.o

.text.TCPIP_HTTP_FileInclude
                0x9d04c460      0x178
 .text.TCPIP_HTTP_FileInclude
                0x9d04c460      0x178 build/e16_encx24j600_spiflash/production/_ext/1164207549/http.o
                0x9d04c460                TCPIP_HTTP_FileInclude

.text.TCPIP_SNTP_Initialize
                0x9d04c5d8      0x178
 .text.TCPIP_SNTP_Initialize
                0x9d04c5d8      0x178 build/e16_encx24j600_spiflash/production/_ext/1164207549/sntp.o
                0x9d04c5d8                TCPIP_SNTP_Initialize

.text.DRV_ENCX24J600_SPI_SfrReadStart
                0x9d04c750      0x174
 .text.DRV_ENCX24J600_SPI_SfrReadStart
                0x9d04c750      0x174 build/e16_encx24j600_spiflash/production/_ext/2115314394/drv_encx24j600_spi_bus.o
                0x9d04c750                DRV_ENCX24J600_SPI_SfrReadStart

.text.wc_ecc_export_x963
                0x9d04c8c4      0x170
 .text.wc_ecc_export_x963
                0x9d04c8c4      0x170 build/e16_encx24j600_spiflash/production/_ext/29024758/ecc.o
                0x9d04c8c4                wc_ecc_export_x963

.text.SYS_FS_FileSeek
                0x9d04ca34      0x170
 .text.SYS_FS_FileSeek
                0x9d04ca34      0x170 build/e16_encx24j600_spiflash/production/_ext/1750042194/sys_fs.o
                0x9d04ca34                SYS_FS_FileSeek

.text._TCPIP_HEAP_Malloc
                0x9d04cba4      0x170
 .text._TCPIP_HEAP_Malloc
                0x9d04cba4      0x170 build/e16_encx24j600_spiflash/production/_ext/1164207549/tcpip_heap_internal.o

.text.wc_DhGenerateKeyPair
                0x9d04cd14      0x170
 .text.wc_DhGenerateKeyPair
                0x9d04cd14      0x170 build/e16_encx24j600_spiflash/production/_ext/1699919941/dh.o
                0x9d04cd14                wc_DhGenerateKeyPair

.text.wc_InitRng
                0x9d04ce84      0x16c
 .text.wc_InitRng
                0x9d04ce84      0x16c build/e16_encx24j600_spiflash/production/_ext/29024758/random.o
                0x9d04ce84                wc_InitRng

.text.StoreECC_DSA_Sig
                0x9d04cff0      0x16c
 .text.StoreECC_DSA_Sig
                0x9d04cff0      0x16c build/e16_encx24j600_spiflash/production/_ext/29024758/asn.o
                0x9d04cff0                StoreECC_DSA_Sig

.text._Command_HeapInfo
                0x9d04d15c      0x16c
 .text._Command_HeapInfo
                0x9d04d15c      0x16c build/e16_encx24j600_spiflash/production/_ext/1164207549/tcpip_commands.o

.text._DHCPS_StartOperation
                0x9d04d2c8      0x16c
 .text._DHCPS_StartOperation
                0x9d04d2c8      0x16c build/e16_encx24j600_spiflash/production/_ext/1164207549/dhcps.o

.text.TCPIP_DHCPS_LeaseEntryGet
                0x9d04d434      0x16c
 .text.TCPIP_DHCPS_LeaseEntryGet
                0x9d04d434      0x16c build/e16_encx24j600_spiflash/production/_ext/1164207549/dhcps.o
                0x9d04d434                TCPIP_DHCPS_LeaseEntryGet

.text.wc_Md5Final
                0x9d04d5a0      0x168
 .text.wc_Md5Final
                0x9d04d5a0      0x168 build/e16_encx24j600_spiflash/production/_ext/29024758/md5.o
                0x9d04d5a0                wc_Md5Final

.text._DHCPStartOperation
                0x9d04d708      0x168
 .text._DHCPStartOperation
                0x9d04d708      0x168 build/e16_encx24j600_spiflash/production/_ext/1164207549/dhcp.o

.text.SendChangeCipher
                0x9d04d870      0x168
 .text.SendChangeCipher
                0x9d04d870      0x168 build/e16_encx24j600_spiflash/production/_ext/615233400/internal.o
                0x9d04d870                SendChangeCipher

.text           0x9d04d9d8      0x2d0
 .text          0x9d04d9d8      0x168 c:/program files (x86)/microchip/xc32/v1.42/bin/bin/../../lib/gcc/pic32mx/4.8.3/../../../../pic32mx/lib\libpic32.a(memcpy.o)
                0x9d04d9d8                memcpy
 .text          0x9d04db40      0x168 c:/program files (x86)/microchip/xc32/v1.42/bin/bin/../../lib/gcc/pic32mx/4.8.3/../../../../pic32mx/lib\libpic32.a(strlen.o)
                0x9d04db40                strlen

.text.TCPIP_HTTP_Print_ddns_status_msg
                0x9d04dca8      0x164
 .text.TCPIP_HTTP_Print_ddns_status_msg
                0x9d04dca8      0x164 build/e16_encx24j600_spiflash/production/_ext/1360937237/custom_http_app.o
                0x9d04dca8                TCPIP_HTTP_Print_ddns_status_msg

.text.s_fp_sub  0x9d04de0c      0x164
 .text.s_fp_sub
                0x9d04de0c      0x164 build/e16_encx24j600_spiflash/production/_ext/29024758/tfm.o
                0x9d04de0c                s_fp_sub

.text.wc_HmacFinal
                0x9d04df70      0x164
 .text.wc_HmacFinal
                0x9d04df70      0x164 build/e16_encx24j600_spiflash/production/_ext/29024758/hmac.o
                0x9d04df70                wc_HmacFinal

.text.TCPIP_Helper_IPv6AddressToString
                0x9d04e0d4      0x164
 .text.TCPIP_Helper_IPv6AddressToString
                0x9d04e0d4      0x164 build/e16_encx24j600_spiflash/production/_ext/1164207549/tcpip_helpers.o
                0x9d04e0d4                TCPIP_Helper_IPv6AddressToString

.text.TCPIP_IPV4_SelectSourceInterface
                0x9d04e238      0x164
 .text.TCPIP_IPV4_SelectSourceInterface
                0x9d04e238      0x164 build/e16_encx24j600_spiflash/production/_ext/1164207549/ipv4.o
                0x9d04e238                TCPIP_IPV4_SelectSourceInterface

.text.TCPIP_HEAP_CreateInternal
                0x9d04e39c      0x164
 .text.TCPIP_HEAP_CreateInternal
                0x9d04e39c      0x164 build/e16_encx24j600_spiflash/production/_ext/1164207549/tcpip_heap_internal.o
                0x9d04e39c                TCPIP_HEAP_CreateInternal

.text.TCPIP_HTTP_GetExecute
                0x9d04e500      0x160
 .text.TCPIP_HTTP_GetExecute
                0x9d04e500      0x160 build/e16_encx24j600_spiflash/production/_ext/1360937237/custom_http_app.o
                0x9d04e500                TCPIP_HTTP_GetExecute

.text.TCPIP_HTTP_Print_uploadedmd5
                0x9d04e660      0x160
 .text.TCPIP_HTTP_Print_uploadedmd5
                0x9d04e660      0x160 build/e16_encx24j600_spiflash/production/_ext/1360937237/custom_http_app.o
                0x9d04e660                TCPIP_HTTP_Print_uploadedmd5

.text.TCPIP_TCP_OptionsGet
                0x9d04e7c0      0x160
 .text.TCPIP_TCP_OptionsGet
                0x9d04e7c0      0x160 build/e16_encx24j600_spiflash/production/_ext/1164207549/tcp.o
                0x9d04e7c0                TCPIP_TCP_OptionsGet

.text.DRV_ENCX24J600_SPI_SfrBitSet
                0x9d04e920      0x15c
 .text.DRV_ENCX24J600_SPI_SfrBitSet
                0x9d04e920      0x15c build/e16_encx24j600_spiflash/production/_ext/2115314394/drv_encx24j600_spi_bus.o
                0x9d04e920                DRV_ENCX24J600_SPI_SfrBitSet

.text.DRV_ENCX24J600_SPI_SfrBitClear
                0x9d04ea7c      0x15c
 .text.DRV_ENCX24J600_SPI_SfrBitClear
                0x9d04ea7c      0x15c build/e16_encx24j600_spiflash/production/_ext/2115314394/drv_encx24j600_spi_bus.o
                0x9d04ea7c                DRV_ENCX24J600_SPI_SfrBitClear

.text.DRV_ENCX24J600_ChkIntStateTask
                0x9d04ebd8      0x15c
 .text.DRV_ENCX24J600_ChkIntStateTask
                0x9d04ebd8      0x15c build/e16_encx24j600_spiflash/production/_ext/1207282394/drv_encx24j600_check_int_state.o
                0x9d04ebd8                DRV_ENCX24J600_ChkIntStateTask

.text._ARPSendIfPkt
                0x9d04ed34      0x15c
 .text._ARPSendIfPkt
                0x9d04ed34      0x15c build/e16_encx24j600_spiflash/production/_ext/1164207549/arp.o

.text._DHCPProcessReceiveData
                0x9d04ee90      0x15c
 .text._DHCPProcessReceiveData
                0x9d04ee90      0x15c build/e16_encx24j600_spiflash/production/_ext/1164207549/dhcp.o

.text.mp_read_radix
                0x9d04efec      0x158
 .text.mp_read_radix
                0x9d04efec      0x158 build/e16_encx24j600_spiflash/production/_ext/29024758/tfm.o
                0x9d04efec                mp_read_radix

.text.DRV_ENCX24J600_SPI_SfrWrite
                0x9d04f144      0x158
 .text.DRV_ENCX24J600_SPI_SfrWrite
                0x9d04f144      0x158 build/e16_encx24j600_spiflash/production/_ext/2115314394/drv_encx24j600_spi_bus.o
                0x9d04f144                DRV_ENCX24J600_SPI_SfrWrite

.text.NET_PRES_Tasks
                0x9d04f29c      0x158
 .text.NET_PRES_Tasks
                0x9d04f29c      0x158 build/e16_encx24j600_spiflash/production/_ext/871719959/net_pres.o
                0x9d04f29c                NET_PRES_Tasks

.text.DtlsMsgStore
                0x9d04f3f4      0x158
 .text.DtlsMsgStore
                0x9d04f3f4      0x158 build/e16_encx24j600_spiflash/production/_ext/615233400/internal.o
                0x9d04f3f4                DtlsMsgStore

.rodata         0x9d04f54c      0x154
 .rodata        0x9d04f54c      0x154 build/e16_encx24j600_spiflash/production/_ext/689678155/system_exceptions.o

.text.GetObjectId
                0x9d04f6a0      0x154
 .text.GetObjectId
                0x9d04f6a0      0x154 build/e16_encx24j600_spiflash/production/_ext/29024758/asn.o
                0x9d04f6a0                GetObjectId

.text.DRV_ENCX24J600_ChkTxStatusStateTask
                0x9d04f7f4      0x154
 .text.DRV_ENCX24J600_ChkTxStatusStateTask
                0x9d04f7f4      0x154 build/e16_encx24j600_spiflash/production/_ext/1207282394/drv_encx24j600_check_tx_status_state.o
                0x9d04f7f4                DRV_ENCX24J600_ChkTxStatusStateTask

.text._SYS_TMR_AlarmCallback
                0x9d04f948      0x154
 .text._SYS_TMR_AlarmCallback
                0x9d04f948      0x154 build/e16_encx24j600_spiflash/production/_ext/2110151058/sys_tmr.o

.text.ReceiveData
                0x9d04fa9c      0x154
 .text.ReceiveData
                0x9d04fa9c      0x154 build/e16_encx24j600_spiflash/production/_ext/615233400/internal.o
                0x9d04fa9c                ReceiveData

.text._IntHandlerDrvUsartInstance0
                0x9d04fbf0      0x150
 .text._IntHandlerDrvUsartInstance0
                0x9d04fbf0      0x150 build/e16_encx24j600_spiflash/production/_ext/689678155/system_interrupt.o
                0x9d04fbf0                _IntHandlerDrvUsartInstance0

.text._TcpDisconnect
                0x9d04fd40      0x14c
 .text._TcpDisconnect
                0x9d04fd40      0x14c build/e16_encx24j600_spiflash/production/_ext/1164207549/tcp.o

.text.TCPIP_UDP_Initialize
                0x9d04fe8c      0x14c
 .text.TCPIP_UDP_Initialize
                0x9d04fe8c      0x14c build/e16_encx24j600_spiflash/production/_ext/1164207549/udp.o
                0x9d04fe8c                TCPIP_UDP_Initialize

.text.GetDate   0x9d04ffd8      0x148
 .text.GetDate  0x9d04ffd8      0x148 build/e16_encx24j600_spiflash/production/_ext/29024758/asn.o

.text._TcpCloseSocket
                0x9d050120      0x148
 .text._TcpCloseSocket
                0x9d050120      0x148 build/e16_encx24j600_spiflash/production/_ext/1164207549/tcp.o

.text.TCPIP_UDP_OptionsGet
                0x9d050268      0x148
 .text.TCPIP_UDP_OptionsGet
                0x9d050268      0x148 build/e16_encx24j600_spiflash/production/_ext/1164207549/udp.o
                0x9d050268                TCPIP_UDP_OptionsGet

.text.TCPIP_HTTP_URLDecode
                0x9d0503b0      0x148
 .text.TCPIP_HTTP_URLDecode
                0x9d0503b0      0x148 build/e16_encx24j600_spiflash/production/_ext/1164207549/http.o
                0x9d0503b0                TCPIP_HTTP_URLDecode

.text.powf      0x9d0504f8      0x148
 .text.powf     0x9d0504f8      0x148 c:/program files (x86)/microchip/xc32/v1.42/bin/bin/../../lib/gcc/pic32mx/4.8.3/../../../../pic32mx/lib\libm.a(w_powf.o)
                0x9d0504f8                powf

.text.s_fp_add  0x9d050640      0x144
 .text.s_fp_add
                0x9d050640      0x144 build/e16_encx24j600_spiflash/production/_ext/29024758/tfm.o
                0x9d050640                s_fp_add

.text.TCPIP_UDP_OpenServerSkt
                0x9d050784      0x144
 .text.TCPIP_UDP_OpenServerSkt
                0x9d050784      0x144 build/e16_encx24j600_spiflash/production/_ext/1164207549/udp.o
                0x9d050784                TCPIP_UDP_OpenServerSkt

.text.TCPIP_SMTP_ArrayPut
                0x9d0508c8      0x144
 .text.TCPIP_SMTP_ArrayPut
                0x9d0508c8      0x144 build/e16_encx24j600_spiflash/production/_ext/1164207549/smtp.o
                0x9d0508c8                TCPIP_SMTP_ArrayPut

.text.fputc     0x9d050a0c      0x144
 .text.fputc    0x9d050a0c      0x144 c:/program files (x86)/microchip/xc32/v1.42/bin/bin/../../lib/gcc/pic32mx/4.8.3/../../../../pic32mx/lib\libc.a(_fputc_simple.o)
                0x9d050a0c                fputc

.text.DRV_ENCX24J600_SPI_ReadPointerStart
                0x9d050b50      0x140
 .text.DRV_ENCX24J600_SPI_ReadPointerStart
                0x9d050b50      0x140 build/e16_encx24j600_spiflash/production/_ext/2115314394/drv_encx24j600_spi_bus.o
                0x9d050b50                DRV_ENCX24J600_SPI_ReadPointerStart

.text.DisplayNodeMsg
                0x9d050c90      0x140
 .text.DisplayNodeMsg
                0x9d050c90      0x140 build/e16_encx24j600_spiflash/production/_ext/1891376032/sys_command.o

.text.MatchDomainName
                0x9d050dd0      0x140
 .text.MatchDomainName
                0x9d050dd0      0x140 build/e16_encx24j600_spiflash/production/_ext/615233400/internal.o

.text.DRV_ENCX24J600_ChgDupStateTask
                0x9d050f10      0x13c
 .text.DRV_ENCX24J600_ChgDupStateTask
                0x9d050f10      0x13c build/e16_encx24j600_spiflash/production/_ext/1207282394/drv_encx24j600_change_duplex_state.o
                0x9d050f10                DRV_ENCX24J600_ChgDupStateTask

.text.DRV_SST25VF016B_Open
                0x9d05104c      0x13c
 .text.DRV_SST25VF016B_Open
                0x9d05104c      0x13c build/e16_encx24j600_spiflash/production/_ext/1112873152/drv_sst25vf016b.o
                0x9d05104c                DRV_SST25VF016B_Open

.text.NET_PRES_EncProviderStreamServerInit0
                0x9d051188      0x138
 .text.NET_PRES_EncProviderStreamServerInit0
                0x9d051188      0x138 build/e16_encx24j600_spiflash/production/_ext/971131287/net_pres_enc_glue.o
                0x9d051188                NET_PRES_EncProviderStreamServerInit0

.text.NET_PRES_EncProviderDataGramServerInit0
                0x9d0512c0      0x138
 .text.NET_PRES_EncProviderDataGramServerInit0
                0x9d0512c0      0x138 build/e16_encx24j600_spiflash/production/_ext/971131287/net_pres_enc_glue.o
                0x9d0512c0                NET_PRES_EncProviderDataGramServerInit0

.text.fp_mul_d  0x9d0513f8      0x138
 .text.fp_mul_d
                0x9d0513f8      0x138 build/e16_encx24j600_spiflash/production/_ext/29024758/tfm.o
                0x9d0513f8                fp_mul_d

.text.ToTraditional
                0x9d051530      0x138
 .text.ToTraditional
                0x9d051530      0x138 build/e16_encx24j600_spiflash/production/_ext/29024758/asn.o
                0x9d051530                ToTraditional

.text.wc_Des3_CbcDecrypt
                0x9d051668      0x138
 .text.wc_Des3_CbcDecrypt
                0x9d051668      0x138 build/e16_encx24j600_spiflash/production/_ext/29024758/des3.o
                0x9d051668                wc_Des3_CbcDecrypt

.text.wc_Sha256Update
                0x9d0517a0      0x138
 .text.wc_Sha256Update
                0x9d0517a0      0x138 build/e16_encx24j600_spiflash/production/_ext/29024758/sha256.o
                0x9d0517a0                wc_Sha256Update

.text.TCPIP_TCP_Bind
                0x9d0518d8      0x138
 .text.TCPIP_TCP_Bind
                0x9d0518d8      0x138 build/e16_encx24j600_spiflash/production/_ext/1164207549/tcp.o
                0x9d0518d8                TCPIP_TCP_Bind

.text.IntHandlerDrvTmrInstance0
                0x9d051a10      0x134
 .text.IntHandlerDrvTmrInstance0
                0x9d051a10      0x134 build/e16_encx24j600_spiflash/production/_ext/689678155/system_interrupt.o
                0x9d051a10                IntHandlerDrvTmrInstance0

.text._IntHandlerSPIInstance0
                0x9d051b44      0x134
 .text._IntHandlerSPIInstance0
                0x9d051b44      0x134 build/e16_encx24j600_spiflash/production/_ext/689678155/system_interrupt.o
                0x9d051b44                _IntHandlerSPIInstance0

.text._IntHandlerSPIInstance1
                0x9d051c78      0x134
 .text._IntHandlerSPIInstance1
                0x9d051c78      0x134 build/e16_encx24j600_spiflash/production/_ext/689678155/system_interrupt.o
                0x9d051c78                _IntHandlerSPIInstance1

.text.TCPIP_HTTP_Print_config_mac
                0x9d051dac      0x134
 .text.TCPIP_HTTP_Print_config_mac
                0x9d051dac      0x134 build/e16_encx24j600_spiflash/production/_ext/1360937237/custom_http_app.o
                0x9d051dac                TCPIP_HTTP_Print_config_mac

.text.GetCertHeader
                0x9d051ee0      0x134
 .text.GetCertHeader
                0x9d051ee0      0x134 build/e16_encx24j600_spiflash/production/_ext/29024758/asn.o

.text.DRV_TMR_CounterValueGet
                0x9d052014      0x134
 .text.DRV_TMR_CounterValueGet
                0x9d052014      0x134 build/e16_encx24j600_spiflash/production/_ext/941160041/drv_tmr.o
                0x9d052014                DRV_TMR_CounterValueGet

.text._Command_GatewayAddressSet
                0x9d052148      0x134
 .text._Command_GatewayAddressSet
                0x9d052148      0x134 build/e16_encx24j600_spiflash/production/_ext/1164207549/tcpip_commands.o

.text.TCPIP_Helper_StringToMACAddress
                0x9d05227c      0x134
 .text.TCPIP_Helper_StringToMACAddress
                0x9d05227c      0x134 build/e16_encx24j600_spiflash/production/_ext/1164207549/tcpip_helpers.o
                0x9d05227c                TCPIP_Helper_StringToMACAddress

.text.TCPIP_STACK_NetUp
                0x9d0523b0      0x134
 .text.TCPIP_STACK_NetUp
                0x9d0523b0      0x134 build/e16_encx24j600_spiflash/production/_ext/1164207549/tcpip_manager.o
                0x9d0523b0                TCPIP_STACK_NetUp

.text.DRV_ENCX24J600_SPI_WritePointer
                0x9d0524e4      0x130
 .text.DRV_ENCX24J600_SPI_WritePointer
                0x9d0524e4      0x130 build/e16_encx24j600_spiflash/production/_ext/2115314394/drv_encx24j600_spi_bus.o
                0x9d0524e4                DRV_ENCX24J600_SPI_WritePointer

.text._ARPDeleteResources
                0x9d052614      0x130
 .text._ARPDeleteResources
                0x9d052614      0x130 build/e16_encx24j600_spiflash/production/_ext/1164207549/arp.o

.text._Command_MACAddressSet
                0x9d052744      0x130
 .text._Command_MACAddressSet
                0x9d052744      0x130 build/e16_encx24j600_spiflash/production/_ext/1164207549/tcpip_commands.o

.text.wc_DhSetKey
                0x9d052874      0x130
 .text.wc_DhSetKey
                0x9d052874      0x130 build/e16_encx24j600_spiflash/production/_ext/1699919941/dh.o
                0x9d052874                wc_DhSetKey

.text.CheckAvailableSize
                0x9d0529a4      0x130
 .text.CheckAvailableSize
                0x9d0529a4      0x130 build/e16_encx24j600_spiflash/production/_ext/615233400/internal.o
                0x9d0529a4                CheckAvailableSize

.text.wc_ShaUpdate
                0x9d052ad4      0x12c
 .text.wc_ShaUpdate
                0x9d052ad4      0x12c build/e16_encx24j600_spiflash/production/_ext/29024758/sha.o
                0x9d052ad4                wc_ShaUpdate

.text.DRV_ENCX24J600_Initialize
                0x9d052c00      0x12c
 .text.DRV_ENCX24J600_Initialize
                0x9d052c00      0x12c build/e16_encx24j600_spiflash/production/_ext/772120936/drv_encx24j600_api.o
                0x9d052c00                DRV_ENCX24J600_Initialize

.text._flsbuf   0x9d052d2c      0x12c
 .text._flsbuf  0x9d052d2c      0x12c c:/program files (x86)/microchip/xc32/v1.42/bin/bin/../../lib/gcc/pic32mx/4.8.3/../../../../pic32mx/lib\libc.a(_flsbuf_simple.o)
                0x9d052d2c                _flsbuf

.text.Hash_DRBG_Reseed
                0x9d052e58      0x128
 .text.Hash_DRBG_Reseed
                0x9d052e58      0x128 build/e16_encx24j600_spiflash/production/_ext/29024758/random.o

.text._SYS_FS_DiskNumberAppend
                0x9d052f80      0x128
 .text._SYS_FS_DiskNumberAppend
                0x9d052f80      0x128 build/e16_encx24j600_spiflash/production/_ext/1750042194/sys_fs.o
                0x9d052f80                _SYS_FS_DiskNumberAppend

.text.TCPIP_ANNOUNCE_Initialize
                0x9d0530a8      0x128
 .text.TCPIP_ANNOUNCE_Initialize
                0x9d0530a8      0x128 build/e16_encx24j600_spiflash/production/_ext/1164207549/tcpip_announce.o
                0x9d0530a8                TCPIP_ANNOUNCE_Initialize

.text.TCPIP_IPV4_ArpHandler
                0x9d0531d0      0x128
 .text.TCPIP_IPV4_ArpHandler
                0x9d0531d0      0x128 build/e16_encx24j600_spiflash/production/_ext/1164207549/ipv4.o

.text.SendBuffered
                0x9d0532f8      0x128
 .text.SendBuffered
                0x9d0532f8      0x128 build/e16_encx24j600_spiflash/production/_ext/615233400/internal.o
                0x9d0532f8                SendBuffered

.text.BuildTlsFinished
                0x9d053420      0x128
 .text.BuildTlsFinished
                0x9d053420      0x128 build/e16_encx24j600_spiflash/production/_ext/615233400/tls.o
                0x9d053420                BuildTlsFinished

.text.wolfSSL_SetTlsHmacInner
                0x9d053548      0x128
 .text.wolfSSL_SetTlsHmacInner
                0x9d053548      0x128 build/e16_encx24j600_spiflash/production/_ext/615233400/tls.o
                0x9d053548                wolfSSL_SetTlsHmacInner

.text.DRV_ENCX24J600_SetMacCtrlInfo
                0x9d053670      0x124
 .text.DRV_ENCX24J600_SetMacCtrlInfo
                0x9d053670      0x124 build/e16_encx24j600_spiflash/production/_ext/772120936/drv_encx24j600_api.o
                0x9d053670                DRV_ENCX24J600_SetMacCtrlInfo

.text._Tcpv4TxAckFnc
                0x9d053794      0x124
 .text._Tcpv4TxAckFnc
                0x9d053794      0x124 build/e16_encx24j600_spiflash/production/_ext/1164207549/tcp.o

.text._OAHashFindBkt
                0x9d0538b8      0x124
 .text._OAHashFindBkt
                0x9d0538b8      0x124 build/e16_encx24j600_spiflash/production/_ext/1164207549/oahash.o

.text.SetAlgoID
                0x9d0539dc      0x120
 .text.SetAlgoID
                0x9d0539dc      0x120 build/e16_encx24j600_spiflash/production/_ext/29024758/asn.o
                0x9d0539dc                SetAlgoID

.text.TCPIP_Helper_PacketCopy
                0x9d053afc      0x120
 .text.TCPIP_Helper_PacketCopy
                0x9d053afc      0x120 build/e16_encx24j600_spiflash/production/_ext/1164207549/tcpip_helpers.o
                0x9d053afc                TCPIP_Helper_PacketCopy

.text           0x9d053c1c      0x120
 .text          0x9d053c1c      0x120 c:/program files (x86)/microchip/xc32/v1.42/bin/bin/../../lib/gcc/pic32mx/4.8.3/../../../../pic32mx/lib\libpic32.a(strcmp.o)
                0x9d053c1c                strcmp

.text.DRV_ENCX24J600_DetectStateTask
                0x9d053d3c      0x11c
 .text.DRV_ENCX24J600_DetectStateTask
                0x9d053d3c      0x11c build/e16_encx24j600_spiflash/production/_ext/1730942135/drv_encx24j600_detect_state.o
                0x9d053d3c                DRV_ENCX24J600_DetectStateTask

.text.MPFS_Mount
                0x9d053e58      0x11c
 .text.MPFS_Mount
                0x9d053e58      0x11c build/e16_encx24j600_spiflash/production/_ext/614935175/mpfs.o
                0x9d053e58                MPFS_Mount

.text._GetMaxSegSizeOption
                0x9d053f74      0x11c
 .text._GetMaxSegSizeOption
                0x9d053f74      0x11c build/e16_encx24j600_spiflash/production/_ext/1164207549/tcp.o

.text.TCPIP_ARP_IsResolved
                0x9d054090      0x11c
 .text.TCPIP_ARP_IsResolved
                0x9d054090      0x11c build/e16_encx24j600_spiflash/production/_ext/1164207549/arp.o
                0x9d054090                TCPIP_ARP_IsResolved

.text.SetCurveId
                0x9d0541ac      0x11c
 .text.SetCurveId
                0x9d0541ac      0x11c build/e16_encx24j600_spiflash/production/_ext/615233400/internal.o

.text._DRV_TMR_Resume
                0x9d0542c8      0x118
 .text._DRV_TMR_Resume
                0x9d0542c8      0x118 build/e16_encx24j600_spiflash/production/_ext/941160041/drv_tmr.o

.text._DHCPSetLeaseTimeParams
                0x9d0543e0      0x118
 .text._DHCPSetLeaseTimeParams
                0x9d0543e0      0x118 build/e16_encx24j600_spiflash/production/_ext/1164207549/dhcp.o

.text.TCPIP_Helper_PacketChecksum
                0x9d0544f8      0x118
 .text.TCPIP_Helper_PacketChecksum
                0x9d0544f8      0x118 build/e16_encx24j600_spiflash/production/_ext/1164207549/tcpip_helpers.o
                0x9d0544f8                TCPIP_Helper_PacketChecksum

.text.RsaUnPad  0x9d054610      0x114
 .text.RsaUnPad
                0x9d054610      0x114 build/e16_encx24j600_spiflash/production/_ext/29024758/rsa.o

.text.TCPIP_ARP_EntryQuery
                0x9d054724      0x114
 .text.TCPIP_ARP_EntryQuery
                0x9d054724      0x114 build/e16_encx24j600_spiflash/production/_ext/1164207549/arp.o
                0x9d054724                TCPIP_ARP_EntryQuery

.text._Command_PrimaryDNSAddressSet
                0x9d054838      0x114
 .text._Command_PrimaryDNSAddressSet
                0x9d054838      0x114 build/e16_encx24j600_spiflash/production/_ext/1164207549/tcpip_commands.o

.text.FreeArrays
                0x9d05494c      0x114
 .text.FreeArrays
                0x9d05494c      0x114 build/e16_encx24j600_spiflash/production/_ext/615233400/internal.o
                0x9d05494c                FreeArrays

.text.wolfSSL_DeriveTlsKeys
                0x9d054a60      0x114
 .text.wolfSSL_DeriveTlsKeys
                0x9d054a60      0x114 build/e16_encx24j600_spiflash/production/_ext/615233400/tls.o
                0x9d054a60                wolfSSL_DeriveTlsKeys

.text.wolfSSL_MakeTlsMasterSecret
                0x9d054b74      0x114
 .text.wolfSSL_MakeTlsMasterSecret
                0x9d054b74      0x114 build/e16_encx24j600_spiflash/production/_ext/615233400/tls.o
                0x9d054b74                wolfSSL_MakeTlsMasterSecret

.text.wc_ecc_sign_hash
                0x9d054c88      0x110
 .text.wc_ecc_sign_hash
                0x9d054c88      0x110 build/e16_encx24j600_spiflash/production/_ext/29024758/ecc.o
                0x9d054c88                wc_ecc_sign_hash

.text.TCPIP_STACK_KillStack
                0x9d054d98      0x110
 .text.TCPIP_STACK_KillStack
                0x9d054d98      0x110 build/e16_encx24j600_spiflash/production/_ext/1164207549/tcpip_manager.o

.text.wc_RabbitSetIV
                0x9d054ea8      0x110
 .text.wc_RabbitSetIV
                0x9d054ea8      0x110 build/e16_encx24j600_spiflash/production/_ext/1699919941/rabbit.o

.text.GrowInputBuffer
                0x9d054fb8      0x110
 .text.GrowInputBuffer
                0x9d054fb8      0x110 build/e16_encx24j600_spiflash/production/_ext/615233400/internal.o
                0x9d054fb8                GrowInputBuffer

.text.AllocDer  0x9d0550c8      0x110
 .text.AllocDer
                0x9d0550c8      0x110 build/e16_encx24j600_spiflash/production/_ext/615233400/ssl.o
                0x9d0550c8                AllocDer

.text.wc_RNG_HealthTest
                0x9d0551d8      0x10c
 .text.wc_RNG_HealthTest
                0x9d0551d8      0x10c build/e16_encx24j600_spiflash/production/_ext/29024758/random.o
                0x9d0551d8                wc_RNG_HealthTest

.text.wc_Des3_CbcEncrypt
                0x9d0552e4      0x10c
 .text.wc_Des3_CbcEncrypt
                0x9d0552e4      0x10c build/e16_encx24j600_spiflash/production/_ext/29024758/des3.o
                0x9d0552e4                wc_Des3_CbcEncrypt

.text.DRV_SST25VF016B_Initialize
                0x9d0553f0      0x10c
 .text.DRV_SST25VF016B_Initialize
                0x9d0553f0      0x10c build/e16_encx24j600_spiflash/production/_ext/1112873152/drv_sst25vf016b.o
                0x9d0553f0                DRV_SST25VF016B_Initialize

.text.SYS_CMD_ADDGRP
                0x9d0554fc      0x10c
 .text.SYS_CMD_ADDGRP
                0x9d0554fc      0x10c build/e16_encx24j600_spiflash/production/_ext/1891376032/sys_command.o
                0x9d0554fc                SYS_CMD_ADDGRP

.text.TCPIP_DHCP_InfoGet
                0x9d055608      0x10c
 .text.TCPIP_DHCP_InfoGet
                0x9d055608      0x10c build/e16_encx24j600_spiflash/production/_ext/1164207549/dhcp.o
                0x9d055608                TCPIP_DHCP_InfoGet

.text.AlreadySigner
                0x9d055714      0x10c
 .text.AlreadySigner
                0x9d055714      0x10c build/e16_encx24j600_spiflash/production/_ext/615233400/ssl.o
                0x9d055714                AlreadySigner

.text.fp_rshd   0x9d055820      0x108
 .text.fp_rshd  0x9d055820      0x108 build/e16_encx24j600_spiflash/production/_ext/29024758/tfm.o
                0x9d055820                fp_rshd

.text.fp_exptmod
                0x9d055928      0x108
 .text.fp_exptmod
                0x9d055928      0x108 build/e16_encx24j600_spiflash/production/_ext/29024758/tfm.o
                0x9d055928                fp_exptmod

.text.DRV_SPI_SYS_QUEUE_CreateQueue
                0x9d055a30      0x108
 .text.DRV_SPI_SYS_QUEUE_CreateQueue
                0x9d055a30      0x108 build/e16_encx24j600_spiflash/production/_ext/1385053818/drv_spi_sys_queue_fifo.o
                0x9d055a30                DRV_SPI_SYS_QUEUE_CreateQueue

.text.MPFSGetArray
                0x9d055b38      0x108
 .text.MPFSGetArray
                0x9d055b38      0x108 build/e16_encx24j600_spiflash/production/_ext/614935175/mpfs.o
                0x9d055b38                MPFSGetArray

.text._UDPv4AllocateSktTxBuffer
                0x9d055c40      0x108
 .text._UDPv4AllocateSktTxBuffer
                0x9d055c40      0x108 build/e16_encx24j600_spiflash/production/_ext/1164207549/udp.o

.text.wc_DhAgree
                0x9d055d48      0x108
 .text.wc_DhAgree
                0x9d055d48      0x108 build/e16_encx24j600_spiflash/production/_ext/1699919941/dh.o
                0x9d055d48                wc_DhAgree

.text.wc_RsaPad
                0x9d055e50      0x104
 .text.wc_RsaPad
                0x9d055e50      0x104 build/e16_encx24j600_spiflash/production/_ext/29024758/rsa.o

.text.DRV_ENCX24J600_Open
                0x9d055f54      0x104
 .text.DRV_ENCX24J600_Open
                0x9d055f54      0x104 build/e16_encx24j600_spiflash/production/_ext/772120936/drv_encx24j600_api.o
                0x9d055f54                DRV_ENCX24J600_Open

.text.DRV_SST25VF016B_Close
                0x9d056058      0x104
 .text.DRV_SST25VF016B_Close
                0x9d056058      0x104 build/e16_encx24j600_spiflash/production/_ext/1112873152/drv_sst25vf016b.o
                0x9d056058                DRV_SST25VF016B_Close

.text.MPFSGet   0x9d05615c      0x104
 .text.MPFSGet  0x9d05615c      0x104 build/e16_encx24j600_spiflash/production/_ext/614935175/mpfs.o
                0x9d05615c                MPFSGet

.text._DNS_ValidateIf
                0x9d056260      0x104
 .text._DNS_ValidateIf
                0x9d056260      0x104 build/e16_encx24j600_spiflash/production/_ext/1164207549/dns.o

.text._DHCPS_Enable
                0x9d056364      0x104
 .text._DHCPS_Enable
                0x9d056364      0x104 build/e16_encx24j600_spiflash/production/_ext/1164207549/dhcps.o

.text.wolfSSL_CTX_load_verify_buffer
                0x9d056468      0x104
 .text.wolfSSL_CTX_load_verify_buffer
                0x9d056468      0x104 build/e16_encx24j600_spiflash/production/_ext/615233400/ssl.o
                0x9d056468                wolfSSL_CTX_load_verify_buffer

.rodata         0x9d05656c      0x104
 .rodata        0x9d05656c      0x104 c:/program files (x86)/microchip/xc32/v1.42/bin/bin/../../lib/gcc/pic32mx/4.8.3/../../../../pic32mx/lib\libc.a(ctype.o)
                0x9d05656c                _ctype

.rodata         0x9d056680      0x100
 .rodata        0x9d056680      0x100 build/e16_encx24j600_spiflash/production/_ext/29024758/sha256.o

.text._TcpSocketSetIdleState
                0x9d056780      0x100
 .text._TcpSocketSetIdleState
                0x9d056780      0x100 build/e16_encx24j600_spiflash/production/_ext/1164207549/tcp.o

.text._DHCPEnable
                0x9d056880      0x100
 .text._DHCPEnable
                0x9d056880      0x100 build/e16_encx24j600_spiflash/production/_ext/1164207549/dhcp.o

.text.DoFinished
                0x9d056980      0x100
 .text.DoFinished
                0x9d056980      0x100 build/e16_encx24j600_spiflash/production/_ext/615233400/internal.o
                0x9d056980                DoFinished

.text.dptofp    0x9d056a80      0x100
 .text.dptofp   0x9d056a80      0x100 c:/program files (x86)/microchip/xc32/v1.42/bin/bin/../../lib/gcc/pic32mx/4.8.3/../../../../pic32mx/lib\libm.a(dptofp.o)
                0x9d056a80                __truncdfsf2
                0x9d056a80                dptofp

.text.NET_PRES_EncProviderStreamClientInit0
                0x9d056b80       0xfc
 .text.NET_PRES_EncProviderStreamClientInit0
                0x9d056b80       0xfc build/e16_encx24j600_spiflash/production/_ext/971131287/net_pres_enc_glue.o
                0x9d056b80                NET_PRES_EncProviderStreamClientInit0

.text.NET_PRES_EncProviderDataGramClientInit0
                0x9d056c7c       0xfc
 .text.NET_PRES_EncProviderDataGramClientInit0
                0x9d056c7c       0xfc build/e16_encx24j600_spiflash/production/_ext/971131287/net_pres_enc_glue.o
                0x9d056c7c                NET_PRES_EncProviderDataGramClientInit0

.text.DateGreaterThan
                0x9d056d78       0xfc
 .text.DateGreaterThan
                0x9d056d78       0xfc build/e16_encx24j600_spiflash/production/_ext/29024758/asn.o

.text.DRV_ENCX24J600_SPI_OpenInterface
                0x9d056e74       0xfc
 .text.DRV_ENCX24J600_SPI_OpenInterface
                0x9d056e74       0xfc build/e16_encx24j600_spiflash/production/_ext/2115314394/drv_encx24j600_spi_bus.o
                0x9d056e74                DRV_ENCX24J600_SPI_OpenInterface

.text.SYS_CMD_READY_TO_READ
                0x9d056f70       0xfc
 .text.SYS_CMD_READY_TO_READ
                0x9d056f70       0xfc build/e16_encx24j600_spiflash/production/_ext/1891376032/sys_command.o
                0x9d056f70                SYS_CMD_READY_TO_READ

.text.TCPIP_TCP_ServerOpen
                0x9d05706c       0xfc
 .text.TCPIP_TCP_ServerOpen
                0x9d05706c       0xfc build/e16_encx24j600_spiflash/production/_ext/1164207549/tcp.o
                0x9d05706c                TCPIP_TCP_ServerOpen

.text._UDPv4TxAckFnc
                0x9d057168       0xfc
 .text._UDPv4TxAckFnc
                0x9d057168       0xfc build/e16_encx24j600_spiflash/production/_ext/1164207549/udp.o

.text.TCPIP_HTTP_Task
                0x9d057264       0xfc
 .text.TCPIP_HTTP_Task
                0x9d057264       0xfc build/e16_encx24j600_spiflash/production/_ext/1164207549/http.o
                0x9d057264                TCPIP_HTTP_Task

.text.wc_ecc_verify_hash
                0x9d057360       0xf8
 .text.wc_ecc_verify_hash
                0x9d057360       0xf8 build/e16_encx24j600_spiflash/production/_ext/29024758/ecc.o
                0x9d057360                wc_ecc_verify_hash

.text.fp_read_unsigned_bin
                0x9d057458       0xf8
 .text.fp_read_unsigned_bin
                0x9d057458       0xf8 build/e16_encx24j600_spiflash/production/_ext/29024758/tfm.o
                0x9d057458                fp_read_unsigned_bin

.text.InitDecodedCert
                0x9d057550       0xf8
 .text.InitDecodedCert
                0x9d057550       0xf8 build/e16_encx24j600_spiflash/production/_ext/29024758/asn.o
                0x9d057550                InitDecodedCert

.text._DRV_TMR_Suspend
                0x9d057648       0xf8
 .text._DRV_TMR_Suspend
                0x9d057648       0xf8 build/e16_encx24j600_spiflash/production/_ext/941160041/drv_tmr.o

.text.Console_UART_Write
                0x9d057740       0xf8
 .text.Console_UART_Write
                0x9d057740       0xf8 build/e16_encx24j600_spiflash/production/_ext/1434663852/sys_console_uart.o
                0x9d057740                Console_UART_Write

.text._DHCPClose
                0x9d057838       0xf8
 .text._DHCPClose
                0x9d057838       0xf8 build/e16_encx24j600_spiflash/production/_ext/1164207549/dhcp.o

.text.wolfSSL_DTLS_SetCookieSecret
                0x9d057930       0xf8
 .text.wolfSSL_DTLS_SetCookieSecret
                0x9d057930       0xf8 build/e16_encx24j600_spiflash/production/_ext/615233400/ssl.o
                0x9d057930                wolfSSL_DTLS_SetCookieSecret

.text.TLS_hmac  0x9d057a28       0xf8
 .text.TLS_hmac
                0x9d057a28       0xf8 build/e16_encx24j600_spiflash/production/_ext/615233400/tls.o
                0x9d057a28                TLS_hmac

.text.NET_PRES_SocketClose
                0x9d057b20       0xf4
 .text.NET_PRES_SocketClose
                0x9d057b20       0xf4 build/e16_encx24j600_spiflash/production/_ext/871719959/net_pres.o
                0x9d057b20                NET_PRES_SocketClose

.text._DHCPOpenSocket
                0x9d057c14       0xf4
 .text._DHCPOpenSocket
                0x9d057c14       0xf4 build/e16_encx24j600_spiflash/production/_ext/1164207549/dhcp.o

.text.TCPIP_DHCP_ConnectionHandler
                0x9d057d08       0xf4
 .text.TCPIP_DHCP_ConnectionHandler
                0x9d057d08       0xf4 build/e16_encx24j600_spiflash/production/_ext/1164207549/dhcp.o
                0x9d057d08                TCPIP_DHCP_ConnectionHandler

.text.fp_div_2  0x9d057dfc       0xf0
 .text.fp_div_2
                0x9d057dfc       0xf0 build/e16_encx24j600_spiflash/production/_ext/29024758/tfm.o
                0x9d057dfc                fp_div_2

.text.fp_mod    0x9d057eec       0xf0
 .text.fp_mod   0x9d057eec       0xf0 build/e16_encx24j600_spiflash/production/_ext/29024758/tfm.o
                0x9d057eec                fp_mod

.text.ParseCert
                0x9d057fdc       0xf0
 .text.ParseCert
                0x9d057fdc       0xf0 build/e16_encx24j600_spiflash/production/_ext/29024758/asn.o
                0x9d057fdc                ParseCert

.text._DRV_ENCX24J600_DoBankSelect
                0x9d0580cc       0xf0
 .text._DRV_ENCX24J600_DoBankSelect
                0x9d0580cc       0xf0 build/e16_encx24j600_spiflash/production/_ext/2115314394/drv_encx24j600_spi_bus.o
                0x9d0580cc                _DRV_ENCX24J600_DoBankSelect

.text.DRV_ENCX24J600_InitStateTask
                0x9d0581bc       0xf0
 .text.DRV_ENCX24J600_InitStateTask
                0x9d0581bc       0xf0 build/e16_encx24j600_spiflash/production/_ext/1730942135/drv_encx24j600_initialization_state.o
                0x9d0581bc                DRV_ENCX24J600_InitStateTask

.text.TCPIP_SMTP_Put
                0x9d0582ac       0xf0
 .text.TCPIP_SMTP_Put
                0x9d0582ac       0xf0 build/e16_encx24j600_spiflash/production/_ext/1164207549/smtp.o
                0x9d0582ac                TCPIP_SMTP_Put

.text.GetCA     0x9d05839c       0xf0
 .text.GetCA    0x9d05839c       0xf0 build/e16_encx24j600_spiflash/production/_ext/615233400/ssl.o
                0x9d05839c                GetCA

.text.fp_montgomery_calc_normalization
                0x9d05848c       0xec
 .text.fp_montgomery_calc_normalization
                0x9d05848c       0xec build/e16_encx24j600_spiflash/production/_ext/29024758/tfm.o
                0x9d05848c                fp_montgomery_calc_normalization

.text.fp_lshd   0x9d058578       0xec
 .text.fp_lshd  0x9d058578       0xec build/e16_encx24j600_spiflash/production/_ext/29024758/tfm.o
                0x9d058578                fp_lshd

.text.SYS_TMR_SystemCountGet
                0x9d058664       0xec
 .text.SYS_TMR_SystemCountGet
                0x9d058664       0xec build/e16_encx24j600_spiflash/production/_ext/2110151058/sys_tmr.o
                0x9d058664                SYS_TMR_SystemCountGet

.text._TCPIP_StackSyncFunction
                0x9d058750       0xec
 .text._TCPIP_StackSyncFunction
                0x9d058750       0xec build/e16_encx24j600_spiflash/production/_ext/1164207549/tcpip_manager.o

.text.GetInt    0x9d05883c       0xe8
 .text.GetInt   0x9d05883c       0xe8 build/e16_encx24j600_spiflash/production/_ext/29024758/asn.o
                0x9d05883c                GetInt

.text._SYS_TMR_ClientParamSet
                0x9d058924       0xe8
 .text._SYS_TMR_ClientParamSet
                0x9d058924       0xe8 build/e16_encx24j600_spiflash/production/_ext/2110151058/sys_tmr.o

.text.TCPIP_TCP_ArrayPeek
                0x9d058a0c       0xe8
 .text.TCPIP_TCP_ArrayPeek
                0x9d058a0c       0xe8 build/e16_encx24j600_spiflash/production/_ext/1164207549/tcp.o
                0x9d058a0c                TCPIP_TCP_ArrayPeek

.text._DHCPPacketFilter
                0x9d058af4       0xe8
 .text._DHCPPacketFilter
                0x9d058af4       0xe8 build/e16_encx24j600_spiflash/production/_ext/1164207549/dhcp.o

.text.TCPIP_IPV4_DeInitialize
                0x9d058bdc       0xe8
 .text.TCPIP_IPV4_DeInitialize
                0x9d058bdc       0xe8 build/e16_encx24j600_spiflash/production/_ext/1164207549/ipv4.o
                0x9d058bdc                TCPIP_IPV4_DeInitialize

.text.GetCAByName
                0x9d058cc4       0xe8
 .text.GetCAByName
                0x9d058cc4       0xe8 build/e16_encx24j600_spiflash/production/_ext/615233400/ssl.o
                0x9d058cc4                GetCAByName

.rodata         0x9d058db0       0xe8
 .rodata        0x9d058db0       0xe8 c:/program files (x86)/microchip/xc32/v1.42/bin/bin/../../lib/gcc/pic32mx/4.8.3/../../../../pic32mx/lib\libc.a(doprnt.o)

.text.TCPIP_UDP_Disconnect
                0x9d058e98       0xe4
 .text.TCPIP_UDP_Disconnect
                0x9d058e98       0xe4 build/e16_encx24j600_spiflash/production/_ext/1164207549/udp.o
                0x9d058e98                TCPIP_UDP_Disconnect

.text.TCPIP_NBNS_Initialize
                0x9d058f7c       0xe4
 .text.TCPIP_NBNS_Initialize
                0x9d058f7c       0xe4 build/e16_encx24j600_spiflash/production/_ext/1164207549/nbns.o
                0x9d058f7c                TCPIP_NBNS_Initialize

.text.GeneratePublic
                0x9d059060       0xe4
 .text.GeneratePublic
                0x9d059060       0xe4 build/e16_encx24j600_spiflash/production/_ext/1699919941/dh.o

.text.DtlsMsgDrain
                0x9d059144       0xe4
 .text.DtlsMsgDrain
                0x9d059144       0xe4 build/e16_encx24j600_spiflash/production/_ext/615233400/internal.o

.text.TCPIP_OAHASH_EntryLookup
                0x9d059228       0xe0
 .text.TCPIP_OAHASH_EntryLookup
                0x9d059228       0xe0 build/e16_encx24j600_spiflash/production/_ext/1164207549/oahash.o
                0x9d059228                TCPIP_OAHASH_EntryLookup

.text.TCPIP_STACK_BringNetDown
                0x9d059308       0xe0
 .text.TCPIP_STACK_BringNetDown
                0x9d059308       0xe0 build/e16_encx24j600_spiflash/production/_ext/1164207549/tcpip_manager.o

.text._TCPIP_PKT_PacketAlloc
                0x9d0593e8       0xe0
 .text._TCPIP_PKT_PacketAlloc
                0x9d0593e8       0xe0 build/e16_encx24j600_spiflash/production/_ext/1164207549/tcpip_packet.o
                0x9d0593e8                _TCPIP_PKT_PacketAlloc

.text._DHCPSAddCompleteEntry
                0x9d0594c8       0xe0
 .text._DHCPSAddCompleteEntry
                0x9d0594c8       0xe0 build/e16_encx24j600_spiflash/production/_ext/1164207549/dhcps.o

.text.NET_PRES_SocketReadIsReady
                0x9d0595a8       0xdc
 .text.NET_PRES_SocketReadIsReady
                0x9d0595a8       0xdc build/e16_encx24j600_spiflash/production/_ext/871719959/net_pres.o
                0x9d0595a8                NET_PRES_SocketReadIsReady

.text.SYS_CMD_DELETE
                0x9d059684       0xdc
 .text.SYS_CMD_DELETE
                0x9d059684       0xdc build/e16_encx24j600_spiflash/production/_ext/1891376032/sys_command.o
                0x9d059684                SYS_CMD_DELETE

.text.SYS_DEVCON_PerformanceConfig
                0x9d059760       0xdc
 .text.SYS_DEVCON_PerformanceConfig
                0x9d059760       0xdc build/e16_encx24j600_spiflash/production/_ext/482662494/sys_devcon_pic32mx.o
                0x9d059760                SYS_DEVCON_PerformanceConfig

.text.TCPIP_ARP_CacheEntriesNoGet
                0x9d05983c       0xdc
 .text.TCPIP_ARP_CacheEntriesNoGet
                0x9d05983c       0xdc build/e16_encx24j600_spiflash/production/_ext/1164207549/arp.o
                0x9d05983c                TCPIP_ARP_CacheEntriesNoGet

.text._HTTP_CloseConnections
                0x9d059918       0xdc
 .text._HTTP_CloseConnections
                0x9d059918       0xdc build/e16_encx24j600_spiflash/production/_ext/1164207549/http.o

.text._Command_BIOSNameSet
                0x9d0599f4       0xdc
 .text._Command_BIOSNameSet
                0x9d0599f4       0xdc build/e16_encx24j600_spiflash/production/_ext/1164207549/tcpip_commands.o

.text._Command_DefaultInterfaceSet
                0x9d059ad0       0xdc
 .text._Command_DefaultInterfaceSet
                0x9d059ad0       0xdc build/e16_encx24j600_spiflash/production/_ext/1164207549/tcpip_commands.o

.text.SendServerHelloDone
                0x9d059bac       0xdc
 .text.SendServerHelloDone
                0x9d059bac       0xdc build/e16_encx24j600_spiflash/production/_ext/615233400/internal.o
                0x9d059bac                SendServerHelloDone

.text.general_exception
                0x9d059c88       0xdc
 .text.general_exception
                0x9d059c88       0xdc c:/program files (x86)/microchip/xc32/v1.42/bin/bin/../../lib/gcc/pic32mx/4.8.3/../../../../pic32mx/lib\libpic32.a(general-exception.o)
                0x9d059c88                _general_exception_context

.text.fp_to_unsigned_bin
                0x9d059d64       0xd8
 .text.fp_to_unsigned_bin
                0x9d059d64       0xd8 build/e16_encx24j600_spiflash/production/_ext/29024758/tfm.o
                0x9d059d64                fp_to_unsigned_bin

.text.GetAlgoId
                0x9d059e3c       0xd8
 .text.GetAlgoId
                0x9d059e3c       0xd8 build/e16_encx24j600_spiflash/production/_ext/29024758/asn.o
                0x9d059e3c                GetAlgoId

.text.wc_RsaSSL_Sign
                0x9d059f14       0xd8
 .text.wc_RsaSSL_Sign
                0x9d059f14       0xd8 build/e16_encx24j600_spiflash/production/_ext/29024758/rsa.o
                0x9d059f14                wc_RsaSSL_Sign

.text.NET_PRES_SocketWrite
                0x9d059fec       0xd8
 .text.NET_PRES_SocketWrite
                0x9d059fec       0xd8 build/e16_encx24j600_spiflash/production/_ext/871719959/net_pres.o
                0x9d059fec                NET_PRES_SocketWrite

.text.NET_PRES_SocketRead
                0x9d05a0c4       0xd8
 .text.NET_PRES_SocketRead
                0x9d05a0c4       0xd8 build/e16_encx24j600_spiflash/production/_ext/871719959/net_pres.o
                0x9d05a0c4                NET_PRES_SocketRead

.text.SYS_CMD_Initialize
                0x9d05a19c       0xd8
 .text.SYS_CMD_Initialize
                0x9d05a19c       0xd8 build/e16_encx24j600_spiflash/production/_ext/1891376032/sys_command.o
                0x9d05a19c                SYS_CMD_Initialize

.text.TCPIP_TCP_Deinitialize
                0x9d05a274       0xd8
 .text.TCPIP_TCP_Deinitialize
                0x9d05a274       0xd8 build/e16_encx24j600_spiflash/production/_ext/1164207549/tcp.o
                0x9d05a274                TCPIP_TCP_Deinitialize

.text._ARPUpdateEntry
                0x9d05a34c       0xd8
 .text._ARPUpdateEntry
                0x9d05a34c       0xd8 build/e16_encx24j600_spiflash/production/_ext/1164207549/arp.o

.text.Hash_DRBG_Instantiate
                0x9d05a424       0xd4
 .text.Hash_DRBG_Instantiate
                0x9d05a424       0xd4 build/e16_encx24j600_spiflash/production/_ext/29024758/random.o

.text.wc_RsaPublicEncrypt
                0x9d05a4f8       0xd4
 .text.wc_RsaPublicEncrypt
                0x9d05a4f8       0xd4 build/e16_encx24j600_spiflash/production/_ext/29024758/rsa.o
                0x9d05a4f8                wc_RsaPublicEncrypt

.text.SYS_FS_FileStat
                0x9d05a5cc       0xd4
 .text.SYS_FS_FileStat
                0x9d05a5cc       0xd4 build/e16_encx24j600_spiflash/production/_ext/1750042194/sys_fs.o
                0x9d05a5cc                SYS_FS_FileStat

.text.FindEmailAddress
                0x9d05a6a0       0xd4
 .text.FindEmailAddress
                0x9d05a6a0       0xd4 build/e16_encx24j600_spiflash/production/_ext/1164207549/smtp.o

.text.libm      0x9d05a774       0xd4
 .text.libm     0x9d05a774       0xd4 c:/program files (x86)/microchip/xc32/v1.42/bin/bin/../../lib/gcc/pic32mx/4.8.3/../../../../pic32mx/lib\libm.a(fpmodf.o)
                0x9d05a774                modff
                0x9d05a774                fpmodf

.text._mon_putc
                0x9d05a848       0xd4
 .text._mon_putc
                0x9d05a848       0xd4 c:/program files (x86)/microchip/xc32/v1.42/bin/bin/../../lib/gcc/pic32mx/4.8.3/../../../../pic32mx/lib\libpic32.a(_mon_putc.o)
                0x9d05a848                _mon_putc

.rodata         0x9d05a91c       0xd0
 .rodata        0x9d05a91c       0xd0 build/e16_encx24j600_spiflash/production/_ext/1360937237/app.o

.text.wc_Md5Update
                0x9d05a9ec       0xd0
 .text.wc_Md5Update
                0x9d05a9ec       0xd0 build/e16_encx24j600_spiflash/production/_ext/29024758/md5.o
                0x9d05a9ec                wc_Md5Update

.text.fp_cmp_mag
                0x9d05aabc       0xd0
 .text.fp_cmp_mag
                0x9d05aabc       0xd0 build/e16_encx24j600_spiflash/production/_ext/29024758/tfm.o
                0x9d05aabc                fp_cmp_mag

.text.SYS_TMR_Initialize
                0x9d05ab8c       0xd0
 .text.SYS_TMR_Initialize
                0x9d05ab8c       0xd0 build/e16_encx24j600_spiflash/production/_ext/2110151058/sys_tmr.o
                0x9d05ab8c                SYS_TMR_Initialize

.rodata         0x9d05ac60       0xd0
 .rodata        0x9d05ac60       0xd0 c:/program files (x86)/microchip/xc32/v1.42/bin/bin/../../lib/gcc/pic32mx/4.8.3/../../../../pic32mx/lib\libc.a(doprnt_cdnopuxX.eo)

.text.TCPIP_HTTP_Print_reboot
                0x9d05ad30       0xcc
 .text.TCPIP_HTTP_Print_reboot
                0x9d05ad30       0xcc build/e16_encx24j600_spiflash/production/_ext/1360937237/custom_http_app.o
                0x9d05ad30                TCPIP_HTTP_Print_reboot

.text.wc_GenerateSeed
                0x9d05adfc       0xcc
 .text.wc_GenerateSeed
                0x9d05adfc       0xcc build/e16_encx24j600_spiflash/production/_ext/29024758/random.o
                0x9d05adfc                wc_GenerateSeed

.text.DRV_TMR_Tasks
                0x9d05aec8       0xcc
 .text.DRV_TMR_Tasks
                0x9d05aec8       0xcc build/e16_encx24j600_spiflash/production/_ext/941160041/drv_tmr.o
                0x9d05aec8                DRV_TMR_Tasks

.text.TCPIP_UDP_RemoteBind
                0x9d05af94       0xcc
 .text.TCPIP_UDP_RemoteBind
                0x9d05af94       0xcc build/e16_encx24j600_spiflash/production/_ext/1164207549/udp.o
                0x9d05af94                TCPIP_UDP_RemoteBind

.text.TCPIP_ARP_EntryRemove
                0x9d05b060       0xcc
 .text.TCPIP_ARP_EntryRemove
                0x9d05b060       0xcc build/e16_encx24j600_spiflash/production/_ext/1164207549/arp.o
                0x9d05b060                TCPIP_ARP_EntryRemove

.text.VerifyRsaSign
                0x9d05b12c       0xcc
 .text.VerifyRsaSign
                0x9d05b12c       0xcc build/e16_encx24j600_spiflash/production/_ext/615233400/internal.o
                0x9d05b12c                VerifyRsaSign

.text.mystrnstr
                0x9d05b1f8       0xcc
 .text.mystrnstr
                0x9d05b1f8       0xcc build/e16_encx24j600_spiflash/production/_ext/615233400/ssl.o
                0x9d05b1f8                mystrnstr

.text.mp_init_multi
                0x9d05b2c4       0xc8
 .text.mp_init_multi
                0x9d05b2c4       0xc8 build/e16_encx24j600_spiflash/production/_ext/29024758/tfm.o
                0x9d05b2c4                mp_init_multi

.text.DecodeECC_DSA_Sig
                0x9d05b38c       0xc8
 .text.DecodeECC_DSA_Sig
                0x9d05b38c       0xc8 build/e16_encx24j600_spiflash/production/_ext/29024758/asn.o
                0x9d05b38c                DecodeECC_DSA_Sig

.text._UDPsetPacketInfo
                0x9d05b454       0xc8
 .text._UDPsetPacketInfo
                0x9d05b454       0xc8 build/e16_encx24j600_spiflash/production/_ext/1164207549/udp.o

.text.TCPIP_OAHASH_EntryLookupOrInsert
                0x9d05b51c       0xc8
 .text.TCPIP_OAHASH_EntryLookupOrInsert
                0x9d05b51c       0xc8 build/e16_encx24j600_spiflash/production/_ext/1164207549/oahash.o
                0x9d05b51c                TCPIP_OAHASH_EntryLookupOrInsert

.text.StoreKeys
                0x9d05b5e4       0xc8
 .text.StoreKeys
                0x9d05b5e4       0xc8 build/e16_encx24j600_spiflash/production/_ext/615233400/keys.o
                0x9d05b5e4                StoreKeys

.text._sbrk     0x9d05b6ac       0xc8
 .text._sbrk    0x9d05b6ac       0xc8 c:/program files (x86)/microchip/xc32/v1.42/bin/bin/../../lib/gcc/pic32mx/4.8.3/../../../../pic32mx/lib\libpic32.a(sbrk.o)
                0x9d05b6ac                _sbrk

.text.wc_EncodeSignature
                0x9d05b774       0xc4
 .text.wc_EncodeSignature
                0x9d05b774       0xc4 build/e16_encx24j600_spiflash/production/_ext/29024758/asn.o
                0x9d05b774                wc_EncodeSignature

.text.wc_Md5GetHash
                0x9d05b838       0xc4
 .text.wc_Md5GetHash
                0x9d05b838       0xc4 build/e16_encx24j600_spiflash/production/_ext/29024758/hash.o
                0x9d05b838                wc_Md5GetHash

.text.wc_Sha256GetHash
                0x9d05b8fc       0xc4
 .text.wc_Sha256GetHash
                0x9d05b8fc       0xc4 build/e16_encx24j600_spiflash/production/_ext/29024758/hash.o
                0x9d05b8fc                wc_Sha256GetHash

.text.SYS_FS_Unmount
                0x9d05b9c0       0xc4
 .text.SYS_FS_Unmount
                0x9d05b9c0       0xc4 build/e16_encx24j600_spiflash/production/_ext/1750042194/sys_fs.o
                0x9d05b9c0                SYS_FS_Unmount

.text._DHCPOptionWriteSrvIdent
                0x9d05ba84       0xc4
 .text._DHCPOptionWriteSrvIdent
                0x9d05ba84       0xc4 build/e16_encx24j600_spiflash/production/_ext/1164207549/dhcp.o

.text.TCPIP_DNS_Disable
                0x9d05bb48       0xc4
 .text.TCPIP_DNS_Disable
                0x9d05bb48       0xc4 build/e16_encx24j600_spiflash/production/_ext/1164207549/dns.o
                0x9d05bb48                TCPIP_DNS_Disable

.text._TCPIPStackModuleRxPurge
                0x9d05bc0c       0xc4
 .text._TCPIPStackModuleRxPurge
                0x9d05bc0c       0xc4 build/e16_encx24j600_spiflash/production/_ext/1164207549/tcpip_manager.o
                0x9d05bc0c                _TCPIPStackModuleRxPurge

.text.DtlsPoolSave
                0x9d05bcd0       0xc4
 .text.DtlsPoolSave
                0x9d05bcd0       0xc4 build/e16_encx24j600_spiflash/production/_ext/615233400/internal.o
                0x9d05bcd0                DtlsPoolSave

.text.libm      0x9d05bd94       0xc4
 .text.libm     0x9d05bd94       0xc4 c:/program files (x86)/microchip/xc32/v1.42/bin/bin/../../lib/gcc/pic32mx/4.8.3/../../../../pic32mx/lib\libm.a(fplog.o)
                0x9d05bd94                fplog
                0x9d05bd94                __mchp_logf

.text.wc_ecc_make_key
                0x9d05be58       0xc0
 .text.wc_ecc_make_key
                0x9d05be58       0xc0 build/e16_encx24j600_spiflash/production/_ext/29024758/ecc.o
                0x9d05be58                wc_ecc_make_key

.text.FreeDecodedCert
                0x9d05bf18       0xc0
 .text.FreeDecodedCert
                0x9d05bf18       0xc0 build/e16_encx24j600_spiflash/production/_ext/29024758/asn.o
                0x9d05bf18                FreeDecodedCert

.text.DRV_ENCX24J600_MainStateTask
                0x9d05bfd8       0xc0
 .text.DRV_ENCX24J600_MainStateTask
                0x9d05bfd8       0xc0 build/e16_encx24j600_spiflash/production/_ext/772120936/drv_encx24j600_main_state.o
                0x9d05bfd8                DRV_ENCX24J600_MainStateTask

.text.DRV_SPI_SYS_QUEUE_AllocElement
                0x9d05c098       0xc0
 .text.DRV_SPI_SYS_QUEUE_AllocElement
                0x9d05c098       0xc0 build/e16_encx24j600_spiflash/production/_ext/1385053818/drv_spi_sys_queue_fifo.o
                0x9d05c098                DRV_SPI_SYS_QUEUE_AllocElement

.text.SYS_CMD_PRINT
                0x9d05c158       0xc0
 .text.SYS_CMD_PRINT
                0x9d05c158       0xc0 build/e16_encx24j600_spiflash/production/_ext/1891376032/sys_command.o
                0x9d05c158                SYS_CMD_PRINT

.text.SYS_FS_FileRead
                0x9d05c218       0xc0
 .text.SYS_FS_FileRead
                0x9d05c218       0xc0 build/e16_encx24j600_spiflash/production/_ext/1750042194/sys_fs.o
                0x9d05c218                SYS_FS_FileRead

.text.TCPIP_UDP_ArrayPut
                0x9d05c2d8       0xc0
 .text.TCPIP_UDP_ArrayPut
                0x9d05c2d8       0xc0 build/e16_encx24j600_spiflash/production/_ext/1164207549/udp.o
                0x9d05c2d8                TCPIP_UDP_ArrayPut

.text._DHCPOptionProcessDns
                0x9d05c398       0xc0
 .text._DHCPOptionProcessDns
                0x9d05c398       0xc0 build/e16_encx24j600_spiflash/production/_ext/1164207549/dhcp.o

.text.TCPIP_Commands_Initialize
                0x9d05c458       0xc0
 .text.TCPIP_Commands_Initialize
                0x9d05c458       0xc0 build/e16_encx24j600_spiflash/production/_ext/1164207549/tcpip_commands.o
                0x9d05c458                TCPIP_Commands_Initialize

.text.TCPIP_DDNS_Initialize
                0x9d05c518       0xc0
 .text.TCPIP_DDNS_Initialize
                0x9d05c518       0xc0 build/e16_encx24j600_spiflash/production/_ext/1164207549/ddns.o
                0x9d05c518                TCPIP_DDNS_Initialize

.text.FreeCiphers
                0x9d05c5d8       0xc0
 .text.FreeCiphers
                0x9d05c5d8       0xc0 build/e16_encx24j600_spiflash/production/_ext/615233400/internal.o
                0x9d05c5d8                FreeCiphers

.text.DoApplicationData
                0x9d05c698       0xc0
 .text.DoApplicationData
                0x9d05c698       0xc0 build/e16_encx24j600_spiflash/production/_ext/615233400/internal.o
                0x9d05c698                DoApplicationData

.text.logf      0x9d05c758       0xc0
 .text.logf     0x9d05c758       0xc0 c:/program files (x86)/microchip/xc32/v1.42/bin/bin/../../lib/gcc/pic32mx/4.8.3/../../../../pic32mx/lib\libm.a(w_logf.o)
                0x9d05c758                logf

.text.SendCommandPrint
                0x9d05c818       0xbc
 .text.SendCommandPrint
                0x9d05c818       0xbc build/e16_encx24j600_spiflash/production/_ext/1891376032/sys_command.o

.text.SYS_CMDIO_ADD
                0x9d05c8d4       0xbc
 .text.SYS_CMDIO_ADD
                0x9d05c8d4       0xbc build/e16_encx24j600_spiflash/production/_ext/1891376032/sys_command.o
                0x9d05c8d4                SYS_CMDIO_ADD

.text._DHCPOptionWriteIPRequest
                0x9d05c990       0xbc
 .text._DHCPOptionWriteIPRequest
                0x9d05c990       0xbc build/e16_encx24j600_spiflash/production/_ext/1164207549/dhcp.o

.text.TCPIP_PKT_DataSegmentGet
                0x9d05ca4c       0xbc
 .text.TCPIP_PKT_DataSegmentGet
                0x9d05ca4c       0xbc build/e16_encx24j600_spiflash/production/_ext/1164207549/tcpip_packet.o
                0x9d05ca4c                TCPIP_PKT_DataSegmentGet

.text.TCPIP_DHCPS_HashDeleteEntry
                0x9d05cb08       0xbc
 .text.TCPIP_DHCPS_HashDeleteEntry
                0x9d05cb08       0xbc build/e16_encx24j600_spiflash/production/_ext/1164207549/dhcps.o
                0x9d05cb08                TCPIP_DHCPS_HashDeleteEntry

.text.CreateFragment
                0x9d05cbc4       0xbc
 .text.CreateFragment
                0x9d05cbc4       0xbc build/e16_encx24j600_spiflash/production/_ext/615233400/internal.o

.text.fp_mul_2  0x9d05cc80       0xb8
 .text.fp_mul_2
                0x9d05cc80       0xb8 build/e16_encx24j600_spiflash/production/_ext/29024758/tfm.o
                0x9d05cc80                fp_mul_2

.text._SYS_FS_DiskGet
                0x9d05cd38       0xb8
 .text._SYS_FS_DiskGet
                0x9d05cd38       0xb8 build/e16_encx24j600_spiflash/production/_ext/1750042194/sys_fs.o
                0x9d05cd38                _SYS_FS_DiskGet

.text.SYS_FS_FileClose
                0x9d05cdf0       0xb8
 .text.SYS_FS_FileClose
                0x9d05cdf0       0xb8 build/e16_encx24j600_spiflash/production/_ext/1750042194/sys_fs.o
                0x9d05cdf0                SYS_FS_FileClose

.text.TCPIP_UDP_BcastIPV4AddressSet
                0x9d05cea8       0xb8
 .text.TCPIP_UDP_BcastIPV4AddressSet
                0x9d05cea8       0xb8 build/e16_encx24j600_spiflash/production/_ext/1164207549/udp.o
                0x9d05cea8                TCPIP_UDP_BcastIPV4AddressSet

.text.TCPIP_DNS_OAHASH_DeleteEntry
                0x9d05cf60       0xb8
 .text.TCPIP_DNS_OAHASH_DeleteEntry
                0x9d05cf60       0xb8 build/e16_encx24j600_spiflash/production/_ext/1164207549/dns.o

.text.TCPIP_DNS_GetIPAddressesNumber
                0x9d05d018       0xb8
 .text.TCPIP_DNS_GetIPAddressesNumber
                0x9d05d018       0xb8 build/e16_encx24j600_spiflash/production/_ext/1164207549/dns.o
                0x9d05d018                TCPIP_DNS_GetIPAddressesNumber

.text.AddFragHeaders
                0x9d05d0d0       0xb8
 .text.AddFragHeaders
                0x9d05d0d0       0xb8 build/e16_encx24j600_spiflash/production/_ext/615233400/internal.o

.text.CleanPreMaster
                0x9d05d188       0xb8
 .text.CleanPreMaster
                0x9d05d188       0xb8 build/e16_encx24j600_spiflash/production/_ext/615233400/keys.o

.text.wc_Des3_SetKey
                0x9d05d240       0xb4
 .text.wc_Des3_SetKey
                0x9d05d240       0xb4 build/e16_encx24j600_spiflash/production/_ext/29024758/des3.o
                0x9d05d240                wc_Des3_SetKey

.text.wc_HmacUpdate
                0x9d05d2f4       0xb4
 .text.wc_HmacUpdate
                0x9d05d2f4       0xb4 build/e16_encx24j600_spiflash/production/_ext/29024758/hmac.o
                0x9d05d2f4                wc_HmacUpdate

.text.Console_UART_Read
                0x9d05d3a8       0xb4
 .text.Console_UART_Read
                0x9d05d3a8       0xb4 build/e16_encx24j600_spiflash/production/_ext/1434663852/sys_console_uart.o
                0x9d05d3a8                Console_UART_Read

.text.SYS_FS_MEDIA_MANAGER_MediaStatusGet
                0x9d05d45c       0xb4
 .text.SYS_FS_MEDIA_MANAGER_MediaStatusGet
                0x9d05d45c       0xb4 build/e16_encx24j600_spiflash/production/_ext/1750042194/sys_fs_media_manager.o
                0x9d05d45c                SYS_FS_MEDIA_MANAGER_MediaStatusGet

.rodata         0x9d05d510       0xb4
 .rodata        0x9d05d510       0xb4 build/e16_encx24j600_spiflash/production/_ext/614935175/mpfs.o
                0x9d05d53c                MPFSFunctions

.text.MPFS_Seek
                0x9d05d5c4       0xb4
 .text.MPFS_Seek
                0x9d05d5c4       0xb4 build/e16_encx24j600_spiflash/production/_ext/614935175/mpfs.o
                0x9d05d5c4                MPFS_Seek

.text._ARPNotifyClients
                0x9d05d678       0xb4
 .text._ARPNotifyClients
                0x9d05d678       0xb4 build/e16_encx24j600_spiflash/production/_ext/1164207549/arp.o

.text.TCPIP_DHCP_Disable
                0x9d05d72c       0xb4
 .text.TCPIP_DHCP_Disable
                0x9d05d72c       0xb4 build/e16_encx24j600_spiflash/production/_ext/1164207549/dhcp.o
                0x9d05d72c                TCPIP_DHCP_Disable

.text._DNS_DeleteHash
                0x9d05d7e0       0xb4
 .text._DNS_DeleteHash
                0x9d05d7e0       0xb4 build/e16_encx24j600_spiflash/production/_ext/1164207549/dns.o

.text._DHCPSrvClose
                0x9d05d894       0xb4
 .text._DHCPSrvClose
                0x9d05d894       0xb4 build/e16_encx24j600_spiflash/production/_ext/1164207549/dhcps.o

.text.TCPIP_HTTP_Print_ledSelected
                0x9d05d948       0xb0
 .text.TCPIP_HTTP_Print_ledSelected
                0x9d05d948       0xb0 build/e16_encx24j600_spiflash/production/_ext/1360937237/custom_http_app.o
                0x9d05d948                TCPIP_HTTP_Print_ledSelected

.text._WaitWhileBusy
                0x9d05d9f8       0xb0
 .text._WaitWhileBusy
                0x9d05d9f8       0xb0 build/e16_encx24j600_spiflash/production/_ext/1335609251/SPIFlash.o

.text._DNS_AddSelectionIf
                0x9d05daa8       0xb0
 .text._DNS_AddSelectionIf
                0x9d05daa8       0xb0 build/e16_encx24j600_spiflash/production/_ext/1164207549/dns.o

.text.TCPIP_HTTP_PostValueRead
                0x9d05db58       0xb0
 .text.TCPIP_HTTP_PostValueRead
                0x9d05db58       0xb0 build/e16_encx24j600_spiflash/production/_ext/1164207549/http.o
                0x9d05db58                TCPIP_HTTP_PostValueRead

.text.TCPIP_IPV4_PacketFormatTx
                0x9d05dc08       0xb0
 .text.TCPIP_IPV4_PacketFormatTx
                0x9d05dc08       0xb0 build/e16_encx24j600_spiflash/production/_ext/1164207549/ipv4.o
                0x9d05dc08                TCPIP_IPV4_PacketFormatTx

.text.DRV_ENCX24J600_SPI_ReadData
                0x9d05dcb8       0xac
 .text.DRV_ENCX24J600_SPI_ReadData
                0x9d05dcb8       0xac build/e16_encx24j600_spiflash/production/_ext/2115314394/drv_encx24j600_spi_bus.o
                0x9d05dcb8                DRV_ENCX24J600_SPI_ReadData

.text.DRV_USART_TasksReceive
                0x9d05dd64       0xac
 .text.DRV_USART_TasksReceive
                0x9d05dd64       0xac build/e16_encx24j600_spiflash/production/_ext/821589181/drv_usart.o
                0x9d05dd64                DRV_USART_TasksReceive

.text.DRV_USART_TasksTransmit
                0x9d05de10       0xac
 .text.DRV_USART_TasksTransmit
                0x9d05de10       0xac build/e16_encx24j600_spiflash/production/_ext/821589181/drv_usart.o
                0x9d05de10                DRV_USART_TasksTransmit

.text.SYS_FS_Initialize
                0x9d05debc       0xac
 .text.SYS_FS_Initialize
                0x9d05debc       0xac build/e16_encx24j600_spiflash/production/_ext/1750042194/sys_fs.o
                0x9d05debc                SYS_FS_Initialize

.text._DNS_Enable
                0x9d05df68       0xac
 .text._DNS_Enable
                0x9d05df68       0xac build/e16_encx24j600_spiflash/production/_ext/1164207549/dns.o

.text.TCPIP_STACK_NetDown
                0x9d05e014       0xac
 .text.TCPIP_STACK_NetDown
                0x9d05e014       0xac build/e16_encx24j600_spiflash/production/_ext/1164207549/tcpip_manager.o
                0x9d05e014                TCPIP_STACK_NetDown

.text._TCPIPStackInsertRxPacket
                0x9d05e0c0       0xac
 .text._TCPIPStackInsertRxPacket
                0x9d05e0c0       0xac build/e16_encx24j600_spiflash/production/_ext/1164207549/tcpip_manager.o
                0x9d05e0c0                _TCPIPStackInsertRxPacket

.text.InitSSL_Ctx
                0x9d05e16c       0xac
 .text.InitSSL_Ctx
                0x9d05e16c       0xac build/e16_encx24j600_spiflash/production/_ext/615233400/internal.o
                0x9d05e16c                InitSSL_Ctx

.text.fptodp    0x9d05e218       0xac
 .text.fptodp   0x9d05e218       0xac c:/program files (x86)/microchip/xc32/v1.42/bin/bin/../../lib/gcc/pic32mx/4.8.3/../../../../pic32mx/lib\libm.a(fptodp.o)
                0x9d05e218                fptodp
                0x9d05e218                __extendsfdf2

.text.atol      0x9d05e2c4       0xac
 .text.atol     0x9d05e2c4       0xac c:/program files (x86)/microchip/xc32/v1.42/bin/bin/../../lib/gcc/pic32mx/4.8.3/../../../../pic32mx/lib\libc.a(atol.o)
                0x9d05e2c4                atol

.text.DRV_ENCX24J600_Deinitialize
                0x9d05e370       0xa8
 .text.DRV_ENCX24J600_Deinitialize
                0x9d05e370       0xa8 build/e16_encx24j600_spiflash/production/_ext/772120936/drv_encx24j600_api.o
                0x9d05e370                DRV_ENCX24J600_Deinitialize

.text._SYS_TMR_ClientCheckSrvLock
                0x9d05e418       0xa8
 .text._SYS_TMR_ClientCheckSrvLock
                0x9d05e418       0xa8 build/e16_encx24j600_spiflash/production/_ext/2110151058/sys_tmr.o

.text.SYS_FS_FileNameFormat
                0x9d05e4c0       0xa8
 .text.SYS_FS_FileNameFormat
                0x9d05e4c0       0xa8 build/e16_encx24j600_spiflash/production/_ext/1886247299/sys_fs_wrapper.o

.text           0x9d05e568       0xa8
 .text          0x9d05e568       0xa8 c:/program files (x86)/microchip/xc32/v1.42/bin/bin/../../lib/gcc/pic32mx/4.8.3/../../../../pic32mx/lib\libpic32.a(memset.o)
                0x9d05e568                memset

.text.atoi      0x9d05e610       0xa8
 .text.atoi     0x9d05e610       0xa8 c:/program files (x86)/microchip/xc32/v1.42/bin/bin/../../lib/gcc/pic32mx/4.8.3/../../../../pic32mx/lib\libc.a(atoi.o)
                0x9d05e610                atoi

.text.DRV_SPI_SetVTable
                0x9d05e6b8       0xa4
 .text.DRV_SPI_SetVTable
                0x9d05e6b8       0xa4 build/e16_encx24j600_spiflash/production/_ext/1676865386/drv_spi_api.o
                0x9d05e6b8                DRV_SPI_SetVTable

.text.fp_add    0x9d05e75c       0xa4
 .text.fp_add   0x9d05e75c       0xa4 build/e16_encx24j600_spiflash/production/_ext/29024758/tfm.o
                0x9d05e75c                fp_add

.text.TCPIP_UDP_PutIsReady
                0x9d05e800       0xa4
 .text.TCPIP_UDP_PutIsReady
                0x9d05e800       0xa4 build/e16_encx24j600_spiflash/production/_ext/1164207549/udp.o
                0x9d05e800                TCPIP_UDP_PutIsReady

.text._TCPIP_PKT_PacketFree
                0x9d05e8a4       0xa4
 .text._TCPIP_PKT_PacketFree
                0x9d05e8a4       0xa4 build/e16_encx24j600_spiflash/production/_ext/1164207549/tcpip_packet.o
                0x9d05e8a4                _TCPIP_PKT_PacketFree

.text.TCPIP_IPV4_Initialize
                0x9d05e948       0xa4
 .text.TCPIP_IPV4_Initialize
                0x9d05e948       0xa4 build/e16_encx24j600_spiflash/production/_ext/1164207549/ipv4.o
                0x9d05e948                TCPIP_IPV4_Initialize

.text._TCPIP_HEAP_MaxSize
                0x9d05e9ec       0xa4
 .text._TCPIP_HEAP_MaxSize
                0x9d05e9ec       0xa4 build/e16_encx24j600_spiflash/production/_ext/1164207549/tcpip_heap_internal.o

.text.TCPIP_HTTP_Print_btn
                0x9d05ea90       0xa0
 .text.TCPIP_HTTP_Print_btn
                0x9d05ea90       0xa0 build/e16_encx24j600_spiflash/production/_ext/1360937237/custom_http_app.o
                0x9d05ea90                TCPIP_HTTP_Print_btn

.text.fp_sub    0x9d05eb30       0xa0
 .text.fp_sub   0x9d05eb30       0xa0 build/e16_encx24j600_spiflash/production/_ext/29024758/tfm.o
                0x9d05eb30                fp_sub

.text.Console_UART_Status
                0x9d05ebd0       0xa0
 .text.Console_UART_Status
                0x9d05ebd0       0xa0 build/e16_encx24j600_spiflash/production/_ext/1434663852/sys_console_uart.o
                0x9d05ebd0                Console_UART_Status

.text.stricmppgm2ram
                0x9d05ec70       0xa0
 .text.stricmppgm2ram
                0x9d05ec70       0xa0 build/e16_encx24j600_spiflash/production/_ext/1886247299/helpers.o
                0x9d05ec70                stricmppgm2ram

.text._TCPSendWinIncUpdate
                0x9d05ed10       0xa0
 .text._TCPSendWinIncUpdate
                0x9d05ed10       0xa0 build/e16_encx24j600_spiflash/production/_ext/1164207549/tcp.o

.text._TcpAbort
                0x9d05edb0       0xa0
 .text._TcpAbort
                0x9d05edb0       0xa0 build/e16_encx24j600_spiflash/production/_ext/1164207549/tcp.o

.text.TCPIP_DNS_RemoveAll
                0x9d05ee50       0xa0
 .text.TCPIP_DNS_RemoveAll
                0x9d05ee50       0xa0 build/e16_encx24j600_spiflash/production/_ext/1164207549/dns.o
                0x9d05ee50                TCPIP_DNS_RemoveAll

.text.TCPIP_Helper_SingleListNodeRemove
                0x9d05eef0       0xa0
 .text.TCPIP_Helper_SingleListNodeRemove
                0x9d05eef0       0xa0 build/e16_encx24j600_spiflash/production/_ext/1164207549/tcpip_helpers.o
                0x9d05eef0                TCPIP_Helper_SingleListNodeRemove

.text.TCPIP_PKT_PacketMACFormat
                0x9d05ef90       0xa0
 .text.TCPIP_PKT_PacketMACFormat
                0x9d05ef90       0xa0 build/e16_encx24j600_spiflash/production/_ext/1164207549/tcpip_packet.o
                0x9d05ef90                TCPIP_PKT_PacketMACFormat

.text.DiscreteLogWorkFactor
                0x9d05f030       0xa0
 .text.DiscreteLogWorkFactor
                0x9d05f030       0xa0 build/e16_encx24j600_spiflash/production/_ext/1699919941/dh.o

.text.GetLength
                0x9d05f0d0       0x9c
 .text.GetLength
                0x9d05f0d0       0x9c build/e16_encx24j600_spiflash/production/_ext/29024758/asn.o
                0x9d05f0d0                GetLength

.text.SetLength
                0x9d05f16c       0x9c
 .text.SetLength
                0x9d05f16c       0x9c build/e16_encx24j600_spiflash/production/_ext/29024758/asn.o
                0x9d05f16c                SetLength

.text.NET_PRES_SocketSignalHandlerRegister
                0x9d05f208       0x9c
 .text.NET_PRES_SocketSignalHandlerRegister
                0x9d05f208       0x9c build/e16_encx24j600_spiflash/production/_ext/871719959/net_pres.o
                0x9d05f208                NET_PRES_SocketSignalHandlerRegister

.text.TCPIP_ARP_Probe
                0x9d05f2a4       0x9c
 .text.TCPIP_ARP_Probe
                0x9d05f2a4       0x9c build/e16_encx24j600_spiflash/production/_ext/1164207549/arp.o
                0x9d05f2a4                TCPIP_ARP_Probe

.rodata         0x9d05f340       0x9c
 .rodata        0x9d05f340       0x9c build/e16_encx24j600_spiflash/production/_ext/1164207549/dhcp.o

.text.TCPIP_STACK_StringToMACId
                0x9d05f3dc       0x9c
 .text.TCPIP_STACK_StringToMACId
                0x9d05f3dc       0x9c build/e16_encx24j600_spiflash/production/_ext/1164207549/tcpip_manager.o
                0x9d05f3dc                TCPIP_STACK_StringToMACId

.text.TCPIP_STACK_IPAddressIsLocalNetwork
                0x9d05f478       0x9c
 .text.TCPIP_STACK_IPAddressIsLocalNetwork
                0x9d05f478       0x9c build/e16_encx24j600_spiflash/production/_ext/1164207549/tcpip_manager.o
                0x9d05f478                TCPIP_STACK_IPAddressIsLocalNetwork

.rodata         0x9d05f514       0x9c
 .rodata        0x9d05f514       0x9c build/e16_encx24j600_spiflash/production/_ext/1164207549/dhcps.o

.text.HashOutput
                0x9d05f5b0       0x9c
 .text.HashOutput
                0x9d05f5b0       0x9c build/e16_encx24j600_spiflash/production/_ext/615233400/internal.o

.text.HashInput
                0x9d05f64c       0x9c
 .text.HashInput
                0x9d05f64c       0x9c build/e16_encx24j600_spiflash/production/_ext/615233400/internal.o

.text.AddHeaders
                0x9d05f6e8       0x9c
 .text.AddHeaders
                0x9d05f6e8       0x9c build/e16_encx24j600_spiflash/production/_ext/615233400/internal.o

.text.ShrinkInputBuffer
                0x9d05f784       0x9c
 .text.ShrinkInputBuffer
                0x9d05f784       0x9c build/e16_encx24j600_spiflash/production/_ext/615233400/internal.o
                0x9d05f784                ShrinkInputBuffer

.text.fpcmp     0x9d05f820       0x9c
 .text.fpcmp    0x9d05f820       0x9c c:/program files (x86)/microchip/xc32/v1.42/bin/bin/../../lib/gcc/pic32mx/4.8.3/../../../../pic32mx/lib\libm.a(fpcmp.o)
                0x9d05f820                __eqsf2
                0x9d05f820                __lesf2
                0x9d05f820                __gtsf2
                0x9d05f820                __nesf2
                0x9d05f820                fpcmp
                0x9d05f820                __gesf2
                0x9d05f820                __ltsf2

.text.write     0x9d05f8bc       0x9c
 .text.write    0x9d05f8bc       0x9c c:/program files (x86)/microchip/xc32/v1.42/bin/bin/../../lib/gcc/pic32mx/4.8.3/../../../../pic32mx/lib\libpic32.a(write.o)
                0x9d05f8bc                write

.text.DRV_ENCX24J600_SPI_WriteData
                0x9d05f958       0x98
 .text.DRV_ENCX24J600_SPI_WriteData
                0x9d05f958       0x98 build/e16_encx24j600_spiflash/production/_ext/2115314394/drv_encx24j600_spi_bus.o
                0x9d05f958                DRV_ENCX24J600_SPI_WriteData

.text.NET_PRES_SocketFlush
                0x9d05f9f0       0x98
 .text.NET_PRES_SocketFlush
                0x9d05f9f0       0x98 build/e16_encx24j600_spiflash/production/_ext/871719959/net_pres.o
                0x9d05f9f0                NET_PRES_SocketFlush

.text._SYS_FS_MEDIA_MANAGER_HandleMediaDetach
                0x9d05fa88       0x98
 .text._SYS_FS_MEDIA_MANAGER_HandleMediaDetach
                0x9d05fa88       0x98 build/e16_encx24j600_spiflash/production/_ext/1750042194/sys_fs_media_manager.o

.text._TcpCleanup
                0x9d05fb20       0x98
 .text._TcpCleanup
                0x9d05fb20       0x98 build/e16_encx24j600_spiflash/production/_ext/1164207549/tcp.o

.text.TCPIP_UDP_DestinationIPAddressSet
                0x9d05fbb8       0x98
 .text.TCPIP_UDP_DestinationIPAddressSet
                0x9d05fbb8       0x98 build/e16_encx24j600_spiflash/production/_ext/1164207549/udp.o
                0x9d05fbb8                TCPIP_UDP_DestinationIPAddressSet

.text._DNSDiscardName
                0x9d05fc50       0x98
 .text._DNSDiscardName
                0x9d05fc50       0x98 build/e16_encx24j600_spiflash/production/_ext/1164207549/dns.o

.text._DNS_CleanCacheEntry
                0x9d05fce8       0x98
 .text._DNS_CleanCacheEntry
                0x9d05fce8       0x98 build/e16_encx24j600_spiflash/production/_ext/1164207549/dns.o

.text._HTTP_Cleanup
                0x9d05fd80       0x98
 .text._HTTP_Cleanup
                0x9d05fd80       0x98 build/e16_encx24j600_spiflash/production/_ext/1164207549/http.o

.text.TCPIP_Helper_IPAddressToString
                0x9d05fe18       0x98
 .text.TCPIP_Helper_IPAddressToString
                0x9d05fe18       0x98 build/e16_encx24j600_spiflash/production/_ext/1164207549/tcpip_helpers.o
                0x9d05fe18                TCPIP_Helper_IPAddressToString

.text.AddHandShakeHeader
                0x9d05feb0       0x98
 .text.AddHandShakeHeader
                0x9d05feb0       0x98 build/e16_encx24j600_spiflash/production/_ext/615233400/internal.o

.text           0x9d05ff48       0x98
 .text          0x9d05ff48       0x98 c:/program files (x86)/microchip/xc32/v1.42/bin/bin/../../lib/gcc/pic32mx/4.8.3/../../../../pic32mx/lib\libpic32.a(memcmp.o)
                0x9d05ff48                memcmp

.text.NET_PRES_EncProviderWriteReady0
                0x9d05ffe0       0x94
 .text.NET_PRES_EncProviderWriteReady0
                0x9d05ffe0       0x94 build/e16_encx24j600_spiflash/production/_ext/971131287/net_pres_enc_glue.o
                0x9d05ffe0                NET_PRES_EncProviderWriteReady0

.text.TCPIP_HTTP_Print_led
                0x9d060074       0x94
 .text.TCPIP_HTTP_Print_led
                0x9d060074       0x94 build/e16_encx24j600_spiflash/production/_ext/1360937237/custom_http_app.o
                0x9d060074                TCPIP_HTTP_Print_led

.text.wc_ShaGetHash
                0x9d060108       0x94
 .text.wc_ShaGetHash
                0x9d060108       0x94 build/e16_encx24j600_spiflash/production/_ext/29024758/hash.o
                0x9d060108                wc_ShaGetHash

.text.putsUART2
                0x9d06019c       0x94
 .text.putsUART2
                0x9d06019c       0x94 build/e16_encx24j600_spiflash/production/_ext/1595536294/UART.o
                0x9d06019c                putsUART2

.text.SYS_FS_FileNameGet
                0x9d060230       0x94
 .text.SYS_FS_FileNameGet
                0x9d060230       0x94 build/e16_encx24j600_spiflash/production/_ext/1750042194/sys_fs.o
                0x9d060230                SYS_FS_FileNameGet

.text.SYS_FS_MEDIA_MANAGER_Read
                0x9d0602c4       0x94
 .text.SYS_FS_MEDIA_MANAGER_Read
                0x9d0602c4       0x94 build/e16_encx24j600_spiflash/production/_ext/1750042194/sys_fs_media_manager.o
                0x9d0602c4                SYS_FS_MEDIA_MANAGER_Read

.text.uitoa     0x9d060358       0x94
 .text.uitoa    0x9d060358       0x94 build/e16_encx24j600_spiflash/production/_ext/1886247299/helpers.o
                0x9d060358                uitoa

.text._UDPSetNewRxPacket
                0x9d0603ec       0x94
 .text._UDPSetNewRxPacket
                0x9d0603ec       0x94 build/e16_encx24j600_spiflash/production/_ext/1164207549/udp.o

.text.TCPIP_ARP_EntryGet
                0x9d060480       0x94
 .text.TCPIP_ARP_EntryGet
                0x9d060480       0x94 build/e16_encx24j600_spiflash/production/_ext/1164207549/arp.o
                0x9d060480                TCPIP_ARP_EntryGet

.text.TCPIP_HTTP_ArgGet
                0x9d060514       0x94
 .text.TCPIP_HTTP_ArgGet
                0x9d060514       0x94 build/e16_encx24j600_spiflash/production/_ext/1164207549/http.o
                0x9d060514                TCPIP_HTTP_ArgGet

.text.wolfSSL_CTX_new
                0x9d0605a8       0x94
 .text.wolfSSL_CTX_new
                0x9d0605a8       0x94 build/e16_encx24j600_spiflash/production/_ext/615233400/ssl.o
                0x9d0605a8                wolfSSL_CTX_new

.text.DeriveTlsKeys
                0x9d06063c       0x94
 .text.DeriveTlsKeys
                0x9d06063c       0x94 build/e16_encx24j600_spiflash/production/_ext/615233400/tls.o
                0x9d06063c                DeriveTlsKeys

.rodata         0x9d0606d0       0x90
 .rodata        0x9d0606d0       0x90 build/e16_encx24j600_spiflash/production/_ext/29024758/coding.o

.text.NET_PRES_SocketOptionsSet
                0x9d060760       0x90
 .text.NET_PRES_SocketOptionsSet
                0x9d060760       0x90 build/e16_encx24j600_spiflash/production/_ext/871719959/net_pres.o
                0x9d060760                NET_PRES_SocketOptionsSet

.text.NET_PRES_SocketIsConnected
                0x9d0607f0       0x90
 .text.NET_PRES_SocketIsConnected
                0x9d0607f0       0x90 build/e16_encx24j600_spiflash/production/_ext/871719959/net_pres.o
                0x9d0607f0                NET_PRES_SocketIsConnected

.text.SYS_CONSOLE_Status
                0x9d060880       0x90
 .text.SYS_CONSOLE_Status
                0x9d060880       0x90 build/e16_encx24j600_spiflash/production/_ext/1434663852/sys_console.o
                0x9d060880                SYS_CONSOLE_Status

.text.SYS_FS_MEDIA_MANAGER_VolumePropertyGet
                0x9d060910       0x90
 .text.SYS_FS_MEDIA_MANAGER_VolumePropertyGet
                0x9d060910       0x90 build/e16_encx24j600_spiflash/production/_ext/1750042194/sys_fs_media_manager.o
                0x9d060910                SYS_FS_MEDIA_MANAGER_VolumePropertyGet

.text.TCPIP_UDP_SocketInfoGet
                0x9d0609a0       0x90
 .text.TCPIP_UDP_SocketInfoGet
                0x9d0609a0       0x90 build/e16_encx24j600_spiflash/production/_ext/1164207549/udp.o
                0x9d0609a0                TCPIP_UDP_SocketInfoGet

.text.TCPIP_UDP_TxOffsetSet
                0x9d060a30       0x90
 .text.TCPIP_UDP_TxOffsetSet
                0x9d060a30       0x90 build/e16_encx24j600_spiflash/production/_ext/1164207549/udp.o
                0x9d060a30                TCPIP_UDP_TxOffsetSet

.text.TCPIP_Helper_ProtectedSingleListRemoveAll
                0x9d060ac0       0x90
 .text.TCPIP_Helper_ProtectedSingleListRemoveAll
                0x9d060ac0       0x90 build/e16_encx24j600_spiflash/production/_ext/1164207549/tcpip_helpers.o
                0x9d060ac0                TCPIP_Helper_ProtectedSingleListRemoveAll

.text._TCPIPStackIpAddFromAnyNet
                0x9d060b50       0x90
 .text._TCPIPStackIpAddFromAnyNet
                0x9d060b50       0x90 build/e16_encx24j600_spiflash/production/_ext/1164207549/tcpip_manager.o
                0x9d060b50                _TCPIPStackIpAddFromAnyNet

.text.DHCPSLocateRequestedIpAddress
                0x9d060be0       0x90
 .text.DHCPSLocateRequestedIpAddress
                0x9d060be0       0x90 build/e16_encx24j600_spiflash/production/_ext/1164207549/dhcps.o

.text.SSL_CtxResourceFree
                0x9d060c70       0x90
 .text.SSL_CtxResourceFree
                0x9d060c70       0x90 build/e16_encx24j600_spiflash/production/_ext/615233400/internal.o
                0x9d060c70                SSL_CtxResourceFree

.text.strstr    0x9d060d00       0x90
 .text.strstr   0x9d060d00       0x90 c:/program files (x86)/microchip/xc32/v1.42/bin/bin/../../lib/gcc/pic32mx/4.8.3/../../../../pic32mx/lib\libc.a(strstr.o)
                0x9d060d00                strstr

.text.array_add
                0x9d060d90       0x8c
 .text.array_add
                0x9d060d90       0x8c build/e16_encx24j600_spiflash/production/_ext/29024758/random.o

.text.wc_AesSetIV
                0x9d060e1c       0x8c
 .text.wc_AesSetIV
                0x9d060e1c       0x8c build/e16_encx24j600_spiflash/production/_ext/29024758/aes.o
                0x9d060e1c                wc_AesSetIV

.text.HmacKeyInnerHash
                0x9d060ea8       0x8c
 .text.HmacKeyInnerHash
                0x9d060ea8       0x8c build/e16_encx24j600_spiflash/production/_ext/29024758/hmac.o

.text.SYS_CONSOLE_Write
                0x9d060f34       0x8c
 .text.SYS_CONSOLE_Write
                0x9d060f34       0x8c build/e16_encx24j600_spiflash/production/_ext/1434663852/sys_console.o
                0x9d060f34                SYS_CONSOLE_Write

.text._LoadFATRecord
                0x9d060fc0       0x8c
 .text._LoadFATRecord
                0x9d060fc0       0x8c build/e16_encx24j600_spiflash/production/_ext/614935175/mpfs.o

.text.hexatob   0x9d06104c       0x8c
 .text.hexatob  0x9d06104c       0x8c build/e16_encx24j600_spiflash/production/_ext/1886247299/helpers.o
                0x9d06104c                hexatob

.text.TCPIP_TCP_RemoteBind
                0x9d0610d8       0x8c
 .text.TCPIP_TCP_RemoteBind
                0x9d0610d8       0x8c build/e16_encx24j600_spiflash/production/_ext/1164207549/tcp.o
                0x9d0610d8                TCPIP_TCP_RemoteBind

.text._DHCPNotifyClients
                0x9d061164       0x8c
 .text._DHCPNotifyClients
                0x9d061164       0x8c build/e16_encx24j600_spiflash/production/_ext/1164207549/dhcp.o

.text.TCPIP_Helper_FormatNetBIOSName
                0x9d0611f0       0x8c
 .text.TCPIP_Helper_FormatNetBIOSName
                0x9d0611f0       0x8c build/e16_encx24j600_spiflash/production/_ext/1164207549/tcpip_helpers.o
                0x9d0611f0                TCPIP_Helper_FormatNetBIOSName

.text.TCPIP_Helper_ProtectedSingleListHeadRemove
                0x9d06127c       0x8c
 .text.TCPIP_Helper_ProtectedSingleListHeadRemove
                0x9d06127c       0x8c build/e16_encx24j600_spiflash/production/_ext/1164207549/tcpip_helpers.o
                0x9d06127c                TCPIP_Helper_ProtectedSingleListHeadRemove

.text.TCPIP_Helper_ProtectedSingleListNodeRemove
                0x9d061308       0x8c
 .text.TCPIP_Helper_ProtectedSingleListNodeRemove
                0x9d061308       0x8c build/e16_encx24j600_spiflash/production/_ext/1164207549/tcpip_helpers.o
                0x9d061308                TCPIP_Helper_ProtectedSingleListNodeRemove

.text.TCPIP_STACK_NetAliasNameGet
                0x9d061394       0x8c
 .text.TCPIP_STACK_NetAliasNameGet
                0x9d061394       0x8c build/e16_encx24j600_spiflash/production/_ext/1164207549/tcpip_manager.o
                0x9d061394                TCPIP_STACK_NetAliasNameGet

.text.TCPIP_STACK_NetBiosNameSet
                0x9d061420       0x8c
 .text.TCPIP_STACK_NetBiosNameSet
                0x9d061420       0x8c build/e16_encx24j600_spiflash/production/_ext/1164207549/tcpip_manager.o
                0x9d061420                TCPIP_STACK_NetBiosNameSet

.text.DtlsPoolReset
                0x9d0614ac       0x8c
 .text.DtlsPoolReset
                0x9d0614ac       0x8c build/e16_encx24j600_spiflash/production/_ext/615233400/internal.o
                0x9d0614ac                DtlsPoolReset

.text.wolfSSL_Cleanup
                0x9d061538       0x8c
 .text.wolfSSL_Cleanup
                0x9d061538       0x8c build/e16_encx24j600_spiflash/production/_ext/615233400/ssl.o
                0x9d061538                wolfSSL_Cleanup

.text.rand      0x9d0615c4       0x8c
 .text.rand     0x9d0615c4       0x8c c:/program files (x86)/microchip/xc32/v1.42/bin/bin/../../lib/gcc/pic32mx/4.8.3/../../../../pic32mx/lib\libc.a(rand.o)
                0x9d0615c4                rand

.text.NET_PRES_EncProviderStreamServerOpen0
                0x9d061650       0x88
 .text.NET_PRES_EncProviderStreamServerOpen0
                0x9d061650       0x88 build/e16_encx24j600_spiflash/production/_ext/971131287/net_pres_enc_glue.o
                0x9d061650                NET_PRES_EncProviderStreamServerOpen0

.text.NET_PRES_EncProviderStreamClientOpen0
                0x9d0616d8       0x88
 .text.NET_PRES_EncProviderStreamClientOpen0
                0x9d0616d8       0x88 build/e16_encx24j600_spiflash/production/_ext/971131287/net_pres_enc_glue.o
                0x9d0616d8                NET_PRES_EncProviderStreamClientOpen0

.text.NET_PRES_EncProviderDataGramServerOpen0
                0x9d061760       0x88
 .text.NET_PRES_EncProviderDataGramServerOpen0
                0x9d061760       0x88 build/e16_encx24j600_spiflash/production/_ext/971131287/net_pres_enc_glue.o
                0x9d061760                NET_PRES_EncProviderDataGramServerOpen0

.text.NET_PRES_EncProviderDataGramClientOpen0
                0x9d0617e8       0x88
 .text.NET_PRES_EncProviderDataGramClientOpen0
                0x9d0617e8       0x88 build/e16_encx24j600_spiflash/production/_ext/971131287/net_pres_enc_glue.o
                0x9d0617e8                NET_PRES_EncProviderDataGramClientOpen0

.text.TCPIP_HTTP_Print_ddns_user
                0x9d061870       0x88
 .text.TCPIP_HTTP_Print_ddns_user
                0x9d061870       0x88 build/e16_encx24j600_spiflash/production/_ext/1360937237/custom_http_app.o
                0x9d061870                TCPIP_HTTP_Print_ddns_user

.text.TCPIP_HTTP_Print_ddns_pass
                0x9d0618f8       0x88
 .text.TCPIP_HTTP_Print_ddns_pass
                0x9d0618f8       0x88 build/e16_encx24j600_spiflash/production/_ext/1360937237/custom_http_app.o
                0x9d0618f8                TCPIP_HTTP_Print_ddns_pass

.text.TCPIP_HTTP_Print_ddns_host
                0x9d061980       0x88
 .text.TCPIP_HTTP_Print_ddns_host
                0x9d061980       0x88 build/e16_encx24j600_spiflash/production/_ext/1360937237/custom_http_app.o
                0x9d061980                TCPIP_HTTP_Print_ddns_host

.text.FreeSigner
                0x9d061a08       0x88
 .text.FreeSigner
                0x9d061a08       0x88 build/e16_encx24j600_spiflash/production/_ext/29024758/asn.o
                0x9d061a08                FreeSigner

.text.FreeSignerTable
                0x9d061a90       0x88
 .text.FreeSignerTable
                0x9d061a90       0x88 build/e16_encx24j600_spiflash/production/_ext/29024758/asn.o
                0x9d061a90                FreeSignerTable

.text.TCPIP_UDP_SourceIPAddressSet
                0x9d061b18       0x88
 .text.TCPIP_UDP_SourceIPAddressSet
                0x9d061b18       0x88 build/e16_encx24j600_spiflash/production/_ext/1164207549/udp.o
                0x9d061b18                TCPIP_UDP_SourceIPAddressSet

.rodata         0x9d061ba0       0x88
 .rodata        0x9d061ba0       0x88 build/e16_encx24j600_spiflash/production/_ext/1164207549/dns.o

.text.AddRecordHeader
                0x9d061c28       0x88
 .text.AddRecordHeader
                0x9d061c28       0x88 build/e16_encx24j600_spiflash/production/_ext/615233400/internal.o

.text.PickHashSigAlgo
                0x9d061cb0       0x88
 .text.PickHashSigAlgo
                0x9d061cb0       0x88 build/e16_encx24j600_spiflash/production/_ext/615233400/internal.o

.text.wolfSSL_read_internal
                0x9d061d38       0x88
 .text.wolfSSL_read_internal
                0x9d061d38       0x88 build/e16_encx24j600_spiflash/production/_ext/615233400/ssl.o

.text.libm      0x9d061dc0       0x88
 .text.libm     0x9d061dc0       0x88 c:/program files (x86)/microchip/xc32/v1.42/bin/bin/../../lib/gcc/pic32mx/4.8.3/../../../../pic32mx/lib\libm.a(fpfrexp.o)
                0x9d061dc0                frexpf
                0x9d061dc0                fpfrexp

.text.mp_copy   0x9d061e48       0x84
 .text.mp_copy  0x9d061e48       0x84 build/e16_encx24j600_spiflash/production/_ext/29024758/tfm.o
                0x9d061e48                mp_copy

.text.DRV_ENCX24J600_Status
                0x9d061ecc       0x84
 .text.DRV_ENCX24J600_Status
                0x9d061ecc       0x84 build/e16_encx24j600_spiflash/production/_ext/772120936/drv_encx24j600_api.o
                0x9d061ecc                DRV_ENCX24J600_Status

.text.DRV_SST25VF016B_GeometryGet
                0x9d061f50       0x84
 .text.DRV_SST25VF016B_GeometryGet
                0x9d061f50       0x84 build/e16_encx24j600_spiflash/production/_ext/1112873152/drv_sst25vf016b.o
                0x9d061f50                DRV_SST25VF016B_GeometryGet

.text._DRV_TMR_ModuleObj
                0x9d061fd4       0x84
 .text._DRV_TMR_ModuleObj
                0x9d061fd4       0x84 build/e16_encx24j600_spiflash/production/_ext/941160041/drv_tmr.o

.text.ReadCommandCharacter
                0x9d062058       0x84
 .text.ReadCommandCharacter
                0x9d062058       0x84 build/e16_encx24j600_spiflash/production/_ext/1891376032/sys_command.o

.text._TcpClientSocketConnect
                0x9d0620dc       0x84
 .text._TcpClientSocketConnect
                0x9d0620dc       0x84 build/e16_encx24j600_spiflash/production/_ext/1164207549/tcp.o

.text.TCPIP_SMTP_MailSend
                0x9d062160       0x84
 .text.TCPIP_SMTP_MailSend
                0x9d062160       0x84 build/e16_encx24j600_spiflash/production/_ext/1164207549/smtp.o
                0x9d062160                TCPIP_SMTP_MailSend

.text.TCPIP_STACK_NetHandleGet
                0x9d0621e4       0x84
 .text.TCPIP_STACK_NetHandleGet
                0x9d0621e4       0x84 build/e16_encx24j600_spiflash/production/_ext/1164207549/tcpip_manager.o
                0x9d0621e4                TCPIP_STACK_NetHandleGet

.text._TCPIPStackModuleSignalRequest
                0x9d062268       0x84
 .text._TCPIPStackModuleSignalRequest
                0x9d062268       0x84 build/e16_encx24j600_spiflash/production/_ext/1164207549/tcpip_manager.o
                0x9d062268                _TCPIPStackModuleSignalRequest

.text.TCPIP_DDNS_Deinitialize
                0x9d0622ec       0x84
 .text.TCPIP_DDNS_Deinitialize
                0x9d0622ec       0x84 build/e16_encx24j600_spiflash/production/_ext/1164207549/ddns.o
                0x9d0622ec                TCPIP_DDNS_Deinitialize

.text.DtlsMsgInsert
                0x9d062370       0x84
 .text.DtlsMsgInsert
                0x9d062370       0x84 build/e16_encx24j600_spiflash/production/_ext/615233400/internal.o
                0x9d062370                DtlsMsgInsert

.text.GetSequence
                0x9d0623f4       0x80
 .text.GetSequence
                0x9d0623f4       0x80 build/e16_encx24j600_spiflash/production/_ext/29024758/asn.o
                0x9d0623f4                GetSequence

.text.GetSet    0x9d062474       0x80
 .text.GetSet   0x9d062474       0x80 build/e16_encx24j600_spiflash/production/_ext/29024758/asn.o
                0x9d062474                GetSet

.text.DRV_ENCX24J600_StatisticsGet
                0x9d0624f4       0x80
 .text.DRV_ENCX24J600_StatisticsGet
                0x9d0624f4       0x80 build/e16_encx24j600_spiflash/production/_ext/772120936/drv_encx24j600_api.o
                0x9d0624f4                DRV_ENCX24J600_StatisticsGet

.text._DRV_SPI_SYS_QUEUE_LockQueue
                0x9d062574       0x80
 .text._DRV_SPI_SYS_QUEUE_LockQueue
                0x9d062574       0x80 build/e16_encx24j600_spiflash/production/_ext/1385053818/drv_spi_sys_queue_fifo.o
                0x9d062574                _DRV_SPI_SYS_QUEUE_LockQueue

.text.SYS_CONSOLE_Read
                0x9d0625f4       0x80
 .text.SYS_CONSOLE_Read
                0x9d0625f4       0x80 build/e16_encx24j600_spiflash/production/_ext/1434663852/sys_console.o
                0x9d0625f4                SYS_CONSOLE_Read

.text.TCPIP_DNS_OAHASH_KeyCopy
                0x9d062674       0x80
 .text.TCPIP_DNS_OAHASH_KeyCopy
                0x9d062674       0x80 build/e16_encx24j600_spiflash/production/_ext/1164207549/dns.o

.text.TCPIP_Helper_MACAddressToString
                0x9d0626f4       0x80
 .text.TCPIP_Helper_MACAddressToString
                0x9d0626f4       0x80 build/e16_encx24j600_spiflash/production/_ext/1164207549/tcpip_helpers.o
                0x9d0626f4                TCPIP_Helper_MACAddressToString

.text.TCPIP_ICMP_Initialize
                0x9d062774       0x80
 .text.TCPIP_ICMP_Initialize
                0x9d062774       0x80 build/e16_encx24j600_spiflash/production/_ext/1164207549/icmp.o
                0x9d062774                TCPIP_ICMP_Initialize

.text._DHCPServerCleanup
                0x9d0627f4       0x80
 .text._DHCPServerCleanup
                0x9d0627f4       0x80 build/e16_encx24j600_spiflash/production/_ext/1164207549/dhcps.o

.text.TCPIP_DHCPS_CopyDataArrayToProcessBuff
                0x9d062874       0x80
 .text.TCPIP_DHCPS_CopyDataArrayToProcessBuff
                0x9d062874       0x80 build/e16_encx24j600_spiflash/production/_ext/1164207549/dhcps.o

.text.FreeSSL_Ctx
                0x9d0628f4       0x80
 .text.FreeSSL_Ctx
                0x9d0628f4       0x80 build/e16_encx24j600_spiflash/production/_ext/615233400/internal.o
                0x9d0628f4                FreeSSL_Ctx

.text.DtlsMsgNew
                0x9d062974       0x80
 .text.DtlsMsgNew
                0x9d062974       0x80 build/e16_encx24j600_spiflash/production/_ext/615233400/internal.o
                0x9d062974                DtlsMsgNew

.text.TCPIP_HTTP_Print_ddns_status
                0x9d0629f4       0x7c
 .text.TCPIP_HTTP_Print_ddns_status
                0x9d0629f4       0x7c build/e16_encx24j600_spiflash/production/_ext/1360937237/custom_http_app.o
                0x9d0629f4                TCPIP_HTTP_Print_ddns_status

.text.wc_Arc4SetKey
                0x9d062a70       0x7c
 .text.wc_Arc4SetKey
                0x9d062a70       0x7c build/e16_encx24j600_spiflash/production/_ext/29024758/arc4.o
                0x9d062a70                wc_Arc4SetKey

.text.wc_FreeRsaKey
                0x9d062aec       0x7c
 .text.wc_FreeRsaKey
                0x9d062aec       0x7c build/e16_encx24j600_spiflash/production/_ext/29024758/rsa.o
                0x9d062aec                wc_FreeRsaKey

.text.DRV_ENCX24J600_SPI_PhyWrite
                0x9d062b68       0x7c
 .text.DRV_ENCX24J600_SPI_PhyWrite
                0x9d062b68       0x7c build/e16_encx24j600_spiflash/production/_ext/2115314394/drv_encx24j600_spi_bus.o
                0x9d062b68                DRV_ENCX24J600_SPI_PhyWrite

.text.CommandCleanup
                0x9d062be4       0x7c
 .text.CommandCleanup
                0x9d062be4       0x7c build/e16_encx24j600_spiflash/production/_ext/1891376032/sys_command.o

.text._TCP_EphemeralPortAllocate
                0x9d062c60       0x7c
 .text._TCP_EphemeralPortAllocate
                0x9d062c60       0x7c build/e16_encx24j600_spiflash/production/_ext/1164207549/tcp.o

.text._UDPAllocateEphemeralPort
                0x9d062cdc       0x7c
 .text._UDPAllocateEphemeralPort
                0x9d062cdc       0x7c build/e16_encx24j600_spiflash/production/_ext/1164207549/udp.o

.text.TCPIP_ARP_Deinitialize
                0x9d062d58       0x7c
 .text.TCPIP_ARP_Deinitialize
                0x9d062d58       0x7c build/e16_encx24j600_spiflash/production/_ext/1164207549/arp.o
                0x9d062d58                TCPIP_ARP_Deinitialize

.text.TCPIP_ARP_HandlerRegister
                0x9d062dd4       0x7c
 .text.TCPIP_ARP_HandlerRegister
                0x9d062dd4       0x7c build/e16_encx24j600_spiflash/production/_ext/1164207549/arp.o
                0x9d062dd4                TCPIP_ARP_HandlerRegister

.text.TCPIP_Helper_ProtectedSingleListTailAdd
                0x9d062e50       0x7c
 .text.TCPIP_Helper_ProtectedSingleListTailAdd
                0x9d062e50       0x7c build/e16_encx24j600_spiflash/production/_ext/1164207549/tcpip_helpers.o
                0x9d062e50                TCPIP_Helper_ProtectedSingleListTailAdd

.text._TCPIPStackAnyNetLinked
                0x9d062ecc       0x7c
 .text._TCPIPStackAnyNetLinked
                0x9d062ecc       0x7c build/e16_encx24j600_spiflash/production/_ext/1164207549/tcpip_manager.o
                0x9d062ecc                _TCPIPStackAnyNetLinked

.text.TCPIP_DHCPS_GetArrayOfDataFromUDPBuff
                0x9d062f48       0x7c
 .text.TCPIP_DHCPS_GetArrayOfDataFromUDPBuff
                0x9d062f48       0x7c build/e16_encx24j600_spiflash/production/_ext/1164207549/dhcps.o

.text.TCPIP_DHCPS_Disable
                0x9d062fc4       0x7c
 .text.TCPIP_DHCPS_Disable
                0x9d062fc4       0x7c build/e16_encx24j600_spiflash/production/_ext/1164207549/dhcps.o
                0x9d062fc4                TCPIP_DHCPS_Disable

.text.HashOutputRaw
                0x9d063040       0x7c
 .text.HashOutputRaw
                0x9d063040       0x7c build/e16_encx24j600_spiflash/production/_ext/615233400/internal.o

.text.MakeTlsMasterSecret
                0x9d0630bc       0x7c
 .text.MakeTlsMasterSecret
                0x9d0630bc       0x7c build/e16_encx24j600_spiflash/production/_ext/615233400/tls.o
                0x9d0630bc                MakeTlsMasterSecret

.text.fptoul    0x9d063138       0x7c
 .text.fptoul   0x9d063138       0x7c c:/program files (x86)/microchip/xc32/v1.42/bin/bin/../../lib/gcc/pic32mx/4.8.3/../../../../pic32mx/lib\libm.a(fptoul.o)
                0x9d063138                fptoul
                0x9d063138                fptoui
                0x9d063138                __fixunssfsi

.text.NET_PRES_EncGlue_StreamServerReceiveCb0
                0x9d0631b4       0x78
 .text.NET_PRES_EncGlue_StreamServerReceiveCb0
                0x9d0631b4       0x78 build/e16_encx24j600_spiflash/production/_ext/971131287/net_pres_enc_glue.o
                0x9d0631b4                NET_PRES_EncGlue_StreamServerReceiveCb0

.text.NET_PRES_EncGlue_StreamServerSendCb0
                0x9d06322c       0x78
 .text.NET_PRES_EncGlue_StreamServerSendCb0
                0x9d06322c       0x78 build/e16_encx24j600_spiflash/production/_ext/971131287/net_pres_enc_glue.o
                0x9d06322c                NET_PRES_EncGlue_StreamServerSendCb0

.text.NET_PRES_EncGlue_StreamClientReceiveCb0
                0x9d0632a4       0x78
 .text.NET_PRES_EncGlue_StreamClientReceiveCb0
                0x9d0632a4       0x78 build/e16_encx24j600_spiflash/production/_ext/971131287/net_pres_enc_glue.o
                0x9d0632a4                NET_PRES_EncGlue_StreamClientReceiveCb0

.text.NET_PRES_EncGlue_StreamClientSendCb0
                0x9d06331c       0x78
 .text.NET_PRES_EncGlue_StreamClientSendCb0
                0x9d06331c       0x78 build/e16_encx24j600_spiflash/production/_ext/971131287/net_pres_enc_glue.o
                0x9d06331c                NET_PRES_EncGlue_StreamClientSendCb0

.text.NET_PRES_EncGlue_DataGramServerReceiveCb0
                0x9d063394       0x78
 .text.NET_PRES_EncGlue_DataGramServerReceiveCb0
                0x9d063394       0x78 build/e16_encx24j600_spiflash/production/_ext/971131287/net_pres_enc_glue.o
                0x9d063394                NET_PRES_EncGlue_DataGramServerReceiveCb0

.text.NET_PRES_EncGlue_DataGramServerSendCb0
                0x9d06340c       0x78
 .text.NET_PRES_EncGlue_DataGramServerSendCb0
                0x9d06340c       0x78 build/e16_encx24j600_spiflash/production/_ext/971131287/net_pres_enc_glue.o
                0x9d06340c                NET_PRES_EncGlue_DataGramServerSendCb0

.text.NET_PRES_EncGlue_DataGramClientReceiveCb0
                0x9d063484       0x78
 .text.NET_PRES_EncGlue_DataGramClientReceiveCb0
                0x9d063484       0x78 build/e16_encx24j600_spiflash/production/_ext/971131287/net_pres_enc_glue.o
                0x9d063484                NET_PRES_EncGlue_DataGramClientReceiveCb0

.text.NET_PRES_EncGlue_DataGramClientSendCb0
                0x9d0634fc       0x78
 .text.NET_PRES_EncGlue_DataGramClientSendCb0
                0x9d0634fc       0x78 build/e16_encx24j600_spiflash/production/_ext/971131287/net_pres_enc_glue.o
                0x9d0634fc                NET_PRES_EncGlue_DataGramClientSendCb0

.text.SYS_PORTS_PinDirectionSelect
                0x9d063574       0x78
 .text.SYS_PORTS_PinDirectionSelect
                0x9d063574       0x78 build/e16_encx24j600_spiflash/production/_ext/394705988/sys_ports_static.o
                0x9d063574                SYS_PORTS_PinDirectionSelect

.text.BSP_Initialize
                0x9d0635ec       0x78
 .text.BSP_Initialize
                0x9d0635ec       0x78 build/e16_encx24j600_spiflash/production/_ext/728775826/bsp_sys_init.o
                0x9d0635ec                BSP_Initialize

.text.wc_ecc_new_point
                0x9d063664       0x78
 .text.wc_ecc_new_point
                0x9d063664       0x78 build/e16_encx24j600_spiflash/production/_ext/29024758/ecc.o
                0x9d063664                wc_ecc_new_point

.text.fp_cmp    0x9d0636dc       0x78
 .text.fp_cmp   0x9d0636dc       0x78 build/e16_encx24j600_spiflash/production/_ext/29024758/tfm.o
                0x9d0636dc                fp_cmp

.text.DRV_ENCX24J600_ParametersGet
                0x9d063754       0x78
 .text.DRV_ENCX24J600_ParametersGet
                0x9d063754       0x78 build/e16_encx24j600_spiflash/production/_ext/772120936/drv_encx24j600_api.o
                0x9d063754                DRV_ENCX24J600_ParametersGet

.text.DRV_ENCX24J600_EventAcknowledge
                0x9d0637cc       0x78
 .text.DRV_ENCX24J600_EventAcknowledge
                0x9d0637cc       0x78 build/e16_encx24j600_spiflash/production/_ext/772120936/drv_encx24j600_api.o
                0x9d0637cc                DRV_ENCX24J600_EventAcknowledge

.rodata         0x9d063844       0x78
 .rodata        0x9d063844       0x78 build/e16_encx24j600_spiflash/production/_ext/821589181/drv_usart_read_write.o

.text.SYS_CONSOLE_Initialize
                0x9d0638bc       0x78
 .text.SYS_CONSOLE_Initialize
                0x9d0638bc       0x78 build/e16_encx24j600_spiflash/production/_ext/1434663852/sys_console.o
                0x9d0638bc                SYS_CONSOLE_Initialize

.text.TCPIP_TCP_SocketInfoGet
                0x9d063934       0x78
 .text.TCPIP_TCP_SocketInfoGet
                0x9d063934       0x78 build/e16_encx24j600_spiflash/production/_ext/1164207549/tcp.o
                0x9d063934                TCPIP_TCP_SocketInfoGet

.text.TCPIP_TCP_DestinationIPAddressSet
                0x9d0639ac       0x78
 .text.TCPIP_TCP_DestinationIPAddressSet
                0x9d0639ac       0x78 build/e16_encx24j600_spiflash/production/_ext/1164207549/tcp.o
                0x9d0639ac                TCPIP_TCP_DestinationIPAddressSet

.text.TCPIP_UDP_Close
                0x9d063a24       0x78
 .text.TCPIP_UDP_Close
                0x9d063a24       0x78 build/e16_encx24j600_spiflash/production/_ext/1164207549/udp.o
                0x9d063a24                TCPIP_UDP_Close

.text.TCPIP_DHCP_IsEnabled
                0x9d063a9c       0x78
 .text.TCPIP_DHCP_IsEnabled
                0x9d063a9c       0x78 build/e16_encx24j600_spiflash/production/_ext/1164207549/dhcp.o
                0x9d063a9c                TCPIP_DHCP_IsEnabled

.text.TCPIP_DHCP_IsServerDetected
                0x9d063b14       0x78
 .text.TCPIP_DHCP_IsServerDetected
                0x9d063b14       0x78 build/e16_encx24j600_spiflash/production/_ext/1164207549/dhcp.o
                0x9d063b14                TCPIP_DHCP_IsServerDetected

.text.TCPIP_DHCP_HandlerRegister
                0x9d063b8c       0x78
 .text.TCPIP_DHCP_HandlerRegister
                0x9d063b8c       0x78 build/e16_encx24j600_spiflash/production/_ext/1164207549/dhcp.o
                0x9d063b8c                TCPIP_DHCP_HandlerRegister

.text.TCPIP_Helper_ProtectedSingleListDeinitialize
                0x9d063c04       0x78
 .text.TCPIP_Helper_ProtectedSingleListDeinitialize
                0x9d063c04       0x78 build/e16_encx24j600_spiflash/production/_ext/1164207549/tcpip_helpers.o
                0x9d063c04                TCPIP_Helper_ProtectedSingleListDeinitialize

.text._TCPIP_MacEventCB
                0x9d063c7c       0x78
 .text._TCPIP_MacEventCB
                0x9d063c7c       0x78 build/e16_encx24j600_spiflash/production/_ext/1164207549/tcpip_manager.o

.text.TCPIP_PKT_Initialize
                0x9d063cf4       0x78
 .text.TCPIP_PKT_Initialize
                0x9d063cf4       0x78 build/e16_encx24j600_spiflash/production/_ext/1164207549/tcpip_packet.o
                0x9d063cf4                TCPIP_PKT_Initialize

.text._DHCPS_ValidatePktReceivedIntf
                0x9d063d6c       0x78
 .text._DHCPS_ValidatePktReceivedIntf
                0x9d063d6c       0x78 build/e16_encx24j600_spiflash/production/_ext/1164207549/dhcps.o
                0x9d063d6c                _DHCPS_ValidatePktReceivedIntf

.text.wolfSSL_Init
                0x9d063de4       0x78
 .text.wolfSSL_Init
                0x9d063de4       0x78 build/e16_encx24j600_spiflash/production/_ext/615233400/ssl.o
                0x9d063de4                wolfSSL_Init

.text.wolfSSL_UnloadCertsKeys
                0x9d063e5c       0x78
 .text.wolfSSL_UnloadCertsKeys
                0x9d063e5c       0x78 build/e16_encx24j600_spiflash/production/_ext/615233400/ssl.o
                0x9d063e5c                wolfSSL_UnloadCertsKeys

.text.fp_2expt  0x9d063ed4       0x74
 .text.fp_2expt
                0x9d063ed4       0x74 build/e16_encx24j600_spiflash/production/_ext/29024758/tfm.o
                0x9d063ed4                fp_2expt

.text.fp_mulmod
                0x9d063f48       0x74
 .text.fp_mulmod
                0x9d063f48       0x74 build/e16_encx24j600_spiflash/production/_ext/29024758/tfm.o
                0x9d063f48                fp_mulmod

.text.wc_InitSha256
                0x9d063fbc       0x74
 .text.wc_InitSha256
                0x9d063fbc       0x74 build/e16_encx24j600_spiflash/production/_ext/29024758/sha256.o
                0x9d063fbc                wc_InitSha256

.text.DRV_ENCX24J600_RunningStateEnter
                0x9d064030       0x74
 .text.DRV_ENCX24J600_RunningStateEnter
                0x9d064030       0x74 build/e16_encx24j600_spiflash/production/_ext/1207282394/drv_encx24j600_running_state.o
                0x9d064030                DRV_ENCX24J600_RunningStateEnter

.text.DRV_SPI_SYS_QUEUE_FreeElement
                0x9d0640a4       0x74
 .text.DRV_SPI_SYS_QUEUE_FreeElement
                0x9d0640a4       0x74 build/e16_encx24j600_spiflash/production/_ext/1385053818/drv_spi_sys_queue_fifo.o
                0x9d0640a4                DRV_SPI_SYS_QUEUE_FreeElement

.text.SYS_FS_MEDIA_MANAGER_IsFSFat
                0x9d064118       0x74
 .text.SYS_FS_MEDIA_MANAGER_IsFSFat
                0x9d064118       0x74 build/e16_encx24j600_spiflash/production/_ext/1750042194/sys_fs_media_manager.o

.text.MPFSGetSize
                0x9d06418c       0x74
 .text.MPFSGetSize
                0x9d06418c       0x74 build/e16_encx24j600_spiflash/production/_ext/614935175/mpfs.o
                0x9d06418c                MPFSGetSize

.text.MPFSGetStartAddr
                0x9d064200       0x74
 .text.MPFSGetStartAddr
                0x9d064200       0x74 build/e16_encx24j600_spiflash/production/_ext/614935175/mpfs.o
                0x9d064200                MPFSGetStartAddr

.text._TcpSocketSetSourceInterface
                0x9d064274       0x74
 .text._TcpSocketSetSourceInterface
                0x9d064274       0x74 build/e16_encx24j600_spiflash/production/_ext/1164207549/tcp.o

.text._TcpSwapHeader
                0x9d0642e8       0x74
 .text._TcpSwapHeader
                0x9d0642e8       0x74 build/e16_encx24j600_spiflash/production/_ext/1164207549/tcp.o

.text._DHCPOptionProcessRouter
                0x9d06435c       0x74
 .text._DHCPOptionProcessRouter
                0x9d06435c       0x74 build/e16_encx24j600_spiflash/production/_ext/1164207549/dhcp.o

.text._DHCPOptionProcessSubNet
                0x9d0643d0       0x74
 .text._DHCPOptionProcessSubNet
                0x9d0643d0       0x74 build/e16_encx24j600_spiflash/production/_ext/1164207549/dhcp.o

.text.TCPIP_SMTP_ClientInitialize
                0x9d064444       0x74
 .text.TCPIP_SMTP_ClientInitialize
                0x9d064444       0x74 build/e16_encx24j600_spiflash/production/_ext/1164207549/smtp.o
                0x9d064444                TCPIP_SMTP_ClientInitialize

.text.TCPIP_Helper_StringToPowerMode
                0x9d0644b8       0x74
 .text.TCPIP_Helper_StringToPowerMode
                0x9d0644b8       0x74 build/e16_encx24j600_spiflash/production/_ext/1164207549/tcpip_helpers.o
                0x9d0644b8                TCPIP_Helper_StringToPowerMode

.text._TCPIPStackSignalHandlerRegister
                0x9d06452c       0x74
 .text._TCPIPStackSignalHandlerRegister
                0x9d06452c       0x74 build/e16_encx24j600_spiflash/production/_ext/1164207549/tcpip_manager.o
                0x9d06452c                _TCPIPStackSignalHandlerRegister

.text._TCPIP_PKT_SocketAlloc
                0x9d0645a0       0x74
 .text._TCPIP_PKT_SocketAlloc
                0x9d0645a0       0x74 build/e16_encx24j600_spiflash/production/_ext/1164207549/tcpip_packet.o
                0x9d0645a0                _TCPIP_PKT_SocketAlloc

.text.strncpy   0x9d064614       0x74
 .text.strncpy  0x9d064614       0x74 c:/program files (x86)/microchip/xc32/v1.42/bin/bin/../../lib/gcc/pic32mx/4.8.3/../../../../pic32mx/lib\libc.a(strncpy.o)
                0x9d064614                strncpy

.text.wc_Arc4Process
                0x9d064688       0x70
 .text.wc_Arc4Process
                0x9d064688       0x70 build/e16_encx24j600_spiflash/production/_ext/29024758/arc4.o
                0x9d064688                wc_Arc4Process

.text.wc_ShaHash
                0x9d0646f8       0x70
 .text.wc_ShaHash
                0x9d0646f8       0x70 build/e16_encx24j600_spiflash/production/_ext/29024758/hash.o
                0x9d0646f8                wc_ShaHash

.text.CommandQuit
                0x9d064768       0x70
 .text.CommandQuit
                0x9d064768       0x70 build/e16_encx24j600_spiflash/production/_ext/1891376032/sys_command.o

.text.SYS_FS_FileTell
                0x9d0647d8       0x70
 .text.SYS_FS_FileTell
                0x9d0647d8       0x70 build/e16_encx24j600_spiflash/production/_ext/1750042194/sys_fs.o
                0x9d0647d8                SYS_FS_FileTell

.text.SYS_FS_FileSize
                0x9d064848       0x70
 .text.SYS_FS_FileSize
                0x9d064848       0x70 build/e16_encx24j600_spiflash/production/_ext/1750042194/sys_fs.o
                0x9d064848                SYS_FS_FileSize

.text._UDPClose
                0x9d0648b8       0x70
 .text._UDPClose
                0x9d0648b8       0x70 build/e16_encx24j600_spiflash/production/_ext/1164207549/udp.o

.text.TCPIP_UDP_SocketNetSet
                0x9d064928       0x70
 .text.TCPIP_UDP_SocketNetSet
                0x9d064928       0x70 build/e16_encx24j600_spiflash/production/_ext/1164207549/udp.o
                0x9d064928                TCPIP_UDP_SocketNetSet

.text._ARPSetEntry
                0x9d064998       0x70
 .text._ARPSetEntry
                0x9d064998       0x70 build/e16_encx24j600_spiflash/production/_ext/1164207549/arp.o

.text._ARPRemoveEntry
                0x9d064a08       0x70
 .text._ARPRemoveEntry
                0x9d064a08       0x70 build/e16_encx24j600_spiflash/production/_ext/1164207549/arp.o

.text._TCPIP_PKT_PacketAcknowledge
                0x9d064a78       0x70
 .text._TCPIP_PKT_PacketAcknowledge
                0x9d064a78       0x70 build/e16_encx24j600_spiflash/production/_ext/1164207549/tcpip_packet.o
                0x9d064a78                _TCPIP_PKT_PacketAcknowledge

.text.TCPIP_SNTP_Deinitialize
                0x9d064ae8       0x70
 .text.TCPIP_SNTP_Deinitialize
                0x9d064ae8       0x70 build/e16_encx24j600_spiflash/production/_ext/1164207549/sntp.o
                0x9d064ae8                TCPIP_SNTP_Deinitialize

.text._TCPIP_HEAP_Delete
                0x9d064b58       0x70
 .text._TCPIP_HEAP_Delete
                0x9d064b58       0x70 build/e16_encx24j600_spiflash/production/_ext/1164207549/tcpip_heap_internal.o

.text.wolfSSL_new
                0x9d064bc8       0x70
 .text.wolfSSL_new
                0x9d064bc8       0x70 build/e16_encx24j600_spiflash/production/_ext/615233400/ssl.o
                0x9d064bc8                wolfSSL_new

.text.FreeDer   0x9d064c38       0x70
 .text.FreeDer  0x9d064c38       0x70 build/e16_encx24j600_spiflash/production/_ext/615233400/ssl.o
                0x9d064c38                FreeDer

.text.strncmp   0x9d064ca8       0x70
 .text.strncmp  0x9d064ca8       0x70 c:/program files (x86)/microchip/xc32/v1.42/bin/bin/../../lib/gcc/pic32mx/4.8.3/../../../../pic32mx/lib\libc.a(strncmp.o)
                0x9d064ca8                strncmp

.text.TCPIP_HTTP_Print_builddate
                0x9d064d18       0x6c
 .text.TCPIP_HTTP_Print_builddate
                0x9d064d18       0x6c build/e16_encx24j600_spiflash/production/_ext/1360937237/custom_http_app.o
                0x9d064d18                TCPIP_HTTP_Print_builddate

.text.TCPIP_HTTP_Print_hellomsg
                0x9d064d84       0x6c
 .text.TCPIP_HTTP_Print_hellomsg
                0x9d064d84       0x6c build/e16_encx24j600_spiflash/production/_ext/1360937237/custom_http_app.o
                0x9d064d84                TCPIP_HTTP_Print_hellomsg

.text.TCPIP_HTTP_Print_cookiename
                0x9d064df0       0x6c
 .text.TCPIP_HTTP_Print_cookiename
                0x9d064df0       0x6c build/e16_encx24j600_spiflash/production/_ext/1360937237/custom_http_app.o
                0x9d064df0                TCPIP_HTTP_Print_cookiename

.text.TCPIP_HTTP_Print_cookiefav
                0x9d064e5c       0x6c
 .text.TCPIP_HTTP_Print_cookiefav
                0x9d064e5c       0x6c build/e16_encx24j600_spiflash/production/_ext/1360937237/custom_http_app.o
                0x9d064e5c                TCPIP_HTTP_Print_cookiefav

.text.TCPIP_HTTP_Print_ddns_service
                0x9d064ec8       0x6c
 .text.TCPIP_HTTP_Print_ddns_service
                0x9d064ec8       0x6c build/e16_encx24j600_spiflash/production/_ext/1360937237/custom_http_app.o
                0x9d064ec8                TCPIP_HTTP_Print_ddns_service

.text.wc_ecc_import_private_key
                0x9d064f34       0x6c
 .text.wc_ecc_import_private_key
                0x9d064f34       0x6c build/e16_encx24j600_spiflash/production/_ext/29024758/ecc.o
                0x9d064f34                wc_ecc_import_private_key

.text.wc_InitRsaKey
                0x9d064fa0       0x6c
 .text.wc_InitRsaKey
                0x9d064fa0       0x6c build/e16_encx24j600_spiflash/production/_ext/29024758/rsa.o
                0x9d064fa0                wc_InitRsaKey

.text.wc_Sha256Hash
                0x9d06500c       0x6c
 .text.wc_Sha256Hash
                0x9d06500c       0x6c build/e16_encx24j600_spiflash/production/_ext/29024758/hash.o
                0x9d06500c                wc_Sha256Hash

.text.TCPIP_TCP_Close
                0x9d065078       0x6c
 .text.TCPIP_TCP_Close
                0x9d065078       0x6c build/e16_encx24j600_spiflash/production/_ext/1164207549/tcp.o
                0x9d065078                TCPIP_TCP_Close

.text._DHCPCleanup
                0x9d0650e4       0x6c
 .text._DHCPCleanup
                0x9d0650e4       0x6c build/e16_encx24j600_spiflash/production/_ext/1164207549/dhcp.o

.text._DNSGetData
                0x9d065150       0x6c
 .text._DNSGetData
                0x9d065150       0x6c build/e16_encx24j600_spiflash/production/_ext/1164207549/dns.o

.text.TCPIP_SMTP_UsageBegin
                0x9d0651bc       0x6c
 .text.TCPIP_SMTP_UsageBegin
                0x9d0651bc       0x6c build/e16_encx24j600_spiflash/production/_ext/1164207549/smtp.o
                0x9d0651bc                TCPIP_SMTP_UsageBegin

.text.TCPIP_SMTP_UsageEnd
                0x9d065228       0x6c
 .text.TCPIP_SMTP_UsageEnd
                0x9d065228       0x6c build/e16_encx24j600_spiflash/production/_ext/1164207549/smtp.o
                0x9d065228                TCPIP_SMTP_UsageEnd

.text.TCPIP_SMTP_IsPutReady
                0x9d065294       0x6c
 .text.TCPIP_SMTP_IsPutReady
                0x9d065294       0x6c build/e16_encx24j600_spiflash/production/_ext/1164207549/smtp.o
                0x9d065294                TCPIP_SMTP_IsPutReady

.text._TCPIP_AnnounceCleanup
                0x9d065300       0x6c
 .text._TCPIP_AnnounceCleanup
                0x9d065300       0x6c build/e16_encx24j600_spiflash/production/_ext/1164207549/tcpip_announce.o

.text.TCPIP_ANNOUNCE_Deinitialize
                0x9d06536c       0x6c
 .text.TCPIP_ANNOUNCE_Deinitialize
                0x9d06536c       0x6c build/e16_encx24j600_spiflash/production/_ext/1164207549/tcpip_announce.o
                0x9d06536c                TCPIP_ANNOUNCE_Deinitialize

.text.DtlsPoolInit
                0x9d0653d8       0x6c
 .text.DtlsPoolInit
                0x9d0653d8       0x6c build/e16_encx24j600_spiflash/production/_ext/615233400/internal.o
                0x9d0653d8                DtlsPoolInit

.text.DtlsMsgDelete
                0x9d065444       0x6c
 .text.DtlsMsgDelete
                0x9d065444       0x6c build/e16_encx24j600_spiflash/production/_ext/615233400/internal.o
                0x9d065444                DtlsMsgDelete

.text.strncat   0x9d0654b0       0x6c
 .text.strncat  0x9d0654b0       0x6c c:/program files (x86)/microchip/xc32/v1.42/bin/bin/../../lib/gcc/pic32mx/4.8.3/../../../../pic32mx/lib\libc.a(strncat.o)
                0x9d0654b0                strncat

.text.SYS_Tasks
                0x9d06551c       0x68
 .text.SYS_Tasks
                0x9d06551c       0x68 build/e16_encx24j600_spiflash/production/_ext/689678155/system_tasks.o
                0x9d06551c                SYS_Tasks

.text.wc_FreeRng
                0x9d065584       0x68
 .text.wc_FreeRng
                0x9d065584       0x68 build/e16_encx24j600_spiflash/production/_ext/29024758/random.o
                0x9d065584                wc_FreeRng

.text.fp_rshb   0x9d0655ec       0x68
 .text.fp_rshb  0x9d0655ec       0x68 build/e16_encx24j600_spiflash/production/_ext/29024758/tfm.o
                0x9d0655ec                fp_rshb

.text.DRV_ENCX24J600_SPI_InitializeInterface
                0x9d065654       0x68
 .text.DRV_ENCX24J600_SPI_InitializeInterface
                0x9d065654       0x68 build/e16_encx24j600_spiflash/production/_ext/2115314394/drv_encx24j600_spi_bus.o
                0x9d065654                DRV_ENCX24J600_SPI_InitializeInterface

.text._DRV_SPI_SYS_QUEUE_UnlockQueue
                0x9d0656bc       0x68
 .text._DRV_SPI_SYS_QUEUE_UnlockQueue
                0x9d0656bc       0x68 build/e16_encx24j600_spiflash/production/_ext/1385053818/drv_spi_sys_queue_fifo.o
                0x9d0656bc                _DRV_SPI_SYS_QUEUE_UnlockQueue

.text.NET_PRES_SocketIsSecure
                0x9d065724       0x68
 .text.NET_PRES_SocketIsSecure
                0x9d065724       0x68 build/e16_encx24j600_spiflash/production/_ext/871719959/net_pres.o
                0x9d065724                NET_PRES_SocketIsSecure

.text.Console_UART_Flush
                0x9d06578c       0x68
 .text.Console_UART_Flush
                0x9d06578c       0x68 build/e16_encx24j600_spiflash/production/_ext/1434663852/sys_console_uart.o
                0x9d06578c                Console_UART_Flush

.text.SYS_RANDOM_Initialize
                0x9d0657f4       0x68
 .text.SYS_RANDOM_Initialize
                0x9d0657f4       0x68 build/e16_encx24j600_spiflash/production/_ext/470001640/sys_random.o
                0x9d0657f4                SYS_RANDOM_Initialize

.text.TCPIP_TCP_SignalHandlerRegister
                0x9d06585c       0x68
 .text.TCPIP_TCP_SignalHandlerRegister
                0x9d06585c       0x68 build/e16_encx24j600_spiflash/production/_ext/1164207549/tcp.o
                0x9d06585c                TCPIP_TCP_SignalHandlerRegister

.text._UDPFreeTxResources
                0x9d0658c4       0x68
 .text._UDPFreeTxResources
                0x9d0658c4       0x68 build/e16_encx24j600_spiflash/production/_ext/1164207549/udp.o

.text.TCPIP_UDP_OpenClientSkt
                0x9d06592c       0x68
 .text.TCPIP_UDP_OpenClientSkt
                0x9d06592c       0x68 build/e16_encx24j600_spiflash/production/_ext/1164207549/udp.o
                0x9d06592c                TCPIP_UDP_OpenClientSkt

.text.TCPIP_UDP_SignalHandlerRegister
                0x9d065994       0x68
 .text.TCPIP_UDP_SignalHandlerRegister
                0x9d065994       0x68 build/e16_encx24j600_spiflash/production/_ext/1164207549/udp.o
                0x9d065994                TCPIP_UDP_SignalHandlerRegister

.text.TCPIP_ARP_HashEntryDelete
                0x9d0659fc       0x68
 .text.TCPIP_ARP_HashEntryDelete
                0x9d0659fc       0x68 build/e16_encx24j600_spiflash/production/_ext/1164207549/arp.o
                0x9d0659fc                TCPIP_ARP_HashEntryDelete

.text._DHCPSetTimeout
                0x9d065a64       0x68
 .text._DHCPSetTimeout
                0x9d065a64       0x68 build/e16_encx24j600_spiflash/production/_ext/1164207549/dhcp.o

.text.TCPIP_DNS_RemoveEntry
                0x9d065acc       0x68
 .text.TCPIP_DNS_RemoveEntry
                0x9d065acc       0x68 build/e16_encx24j600_spiflash/production/_ext/1164207549/dns.o
                0x9d065acc                TCPIP_DNS_RemoveEntry

.text.TCPIP_STACK_IsBcastAddress
                0x9d065b34       0x68
 .text.TCPIP_STACK_IsBcastAddress
                0x9d065b34       0x68 build/e16_encx24j600_spiflash/production/_ext/1164207549/tcpip_manager.o
                0x9d065b34                TCPIP_STACK_IsBcastAddress

.text._TCPIPStackModuleRxInsert
                0x9d065b9c       0x68
 .text._TCPIPStackModuleRxInsert
                0x9d065b9c       0x68 build/e16_encx24j600_spiflash/production/_ext/1164207549/tcpip_manager.o
                0x9d065b9c                _TCPIPStackModuleRxInsert

.text.TCPIP_SNTP_UTCSecondsGet
                0x9d065c04       0x68
 .text.TCPIP_SNTP_UTCSecondsGet
                0x9d065c04       0x68 build/e16_encx24j600_spiflash/production/_ext/1164207549/sntp.o
                0x9d065c04                TCPIP_SNTP_UTCSecondsGet

.text.dylen.part.0
                0x9d065c6c       0x68
 .text.dylen.part.0
                0x9d065c6c       0x68 c:/program files (x86)/microchip/xc32/v1.42/bin/bin/../../lib/gcc/pic32mx/4.8.3/../../../../pic32mx/lib\libc.a(ctime.o)

.text._sprintf_cdnopuxX
                0x9d065cd4       0x68
 .text._sprintf_cdnopuxX
                0x9d065cd4       0x68 c:/program files (x86)/microchip/xc32/v1.42/bin/bin/../../lib/gcc/pic32mx/4.8.3/../../../../pic32mx/lib\libc.a(sprintf_cdnopuxX.eo)
                0x9d065cd4                _sprintf_cdnopuxX

.rodata         0x9d065d3c       0x68
 .rodata        0x9d065d3c       0x68 c:/program files (x86)/microchip/xc32/v1.42/bin/bin/../../lib/gcc/pic32mx/4.8.3/../../../../pic32mx/lib\libc.a(powersf.o)
                0x9d065d3c                _npowers_f
                0x9d065d70                _powers_f

.text._general_exception_handler
                0x9d065da4       0x64
 .text._general_exception_handler
                0x9d065da4       0x64 build/e16_encx24j600_spiflash/production/_ext/689678155/system_exceptions.o
                0x9d065da4                _general_exception_handler

.text.TCPIP_HTTP_Print_config_ip
                0x9d065e08       0x64
 .text.TCPIP_HTTP_Print_config_ip
                0x9d065e08       0x64 build/e16_encx24j600_spiflash/production/_ext/1360937237/custom_http_app.o
                0x9d065e08                TCPIP_HTTP_Print_config_ip

.text.TCPIP_HTTP_Print_config_gw
                0x9d065e6c       0x64
 .text.TCPIP_HTTP_Print_config_gw
                0x9d065e6c       0x64 build/e16_encx24j600_spiflash/production/_ext/1360937237/custom_http_app.o
                0x9d065e6c                TCPIP_HTTP_Print_config_gw

.text.TCPIP_HTTP_Print_config_subnet
                0x9d065ed0       0x64
 .text.TCPIP_HTTP_Print_config_subnet
                0x9d065ed0       0x64 build/e16_encx24j600_spiflash/production/_ext/1360937237/custom_http_app.o
                0x9d065ed0                TCPIP_HTTP_Print_config_subnet

.text.TCPIP_HTTP_Print_config_dns1
                0x9d065f34       0x64
 .text.TCPIP_HTTP_Print_config_dns1
                0x9d065f34       0x64 build/e16_encx24j600_spiflash/production/_ext/1360937237/custom_http_app.o
                0x9d065f34                TCPIP_HTTP_Print_config_dns1

.text.TCPIP_HTTP_Print_config_dns2
                0x9d065f98       0x64
 .text.TCPIP_HTTP_Print_config_dns2
                0x9d065f98       0x64 build/e16_encx24j600_spiflash/production/_ext/1360937237/custom_http_app.o
                0x9d065f98                TCPIP_HTTP_Print_config_dns2

.text.fp_add_d  0x9d065ffc       0x64
 .text.fp_add_d
                0x9d065ffc       0x64 build/e16_encx24j600_spiflash/production/_ext/29024758/tfm.o
                0x9d065ffc                fp_add_d

.rodata         0x9d066060       0x64
 .rodata        0x9d066060       0x64 build/e16_encx24j600_spiflash/production/_ext/2115314394/drv_encx24j600_spi_bus.o
                0x9d066060                drv_encx24j600_spi_vtable

.text.DRV_ENCX24J600_Close
                0x9d0660c4       0x64
 .text.DRV_ENCX24J600_Close
                0x9d0660c4       0x64 build/e16_encx24j600_spiflash/production/_ext/772120936/drv_encx24j600_api.o
                0x9d0660c4                DRV_ENCX24J600_Close

.rodata         0x9d066128       0x64
 .rodata        0x9d066128       0x64 build/e16_encx24j600_spiflash/production/_ext/772120936/drv_encx24j600_api.o
                0x9d066134                DRV_ENCX24J600_MACObject

.text.DRV_SST25VF016B_CommandStatus
                0x9d06618c       0x64
 .text.DRV_SST25VF016B_CommandStatus
                0x9d06618c       0x64 build/e16_encx24j600_spiflash/production/_ext/1112873152/drv_sst25vf016b.o
                0x9d06618c                DRV_SST25VF016B_CommandStatus

.text.DRV_TMR_AlarmDisable
                0x9d0661f0       0x64
 .text.DRV_TMR_AlarmDisable
                0x9d0661f0       0x64 build/e16_encx24j600_spiflash/production/_ext/941160041/drv_tmr.o
                0x9d0661f0                DRV_TMR_AlarmDisable

.text.DRV_TMR_Start
                0x9d066254       0x64
 .text.DRV_TMR_Start
                0x9d066254       0x64 build/e16_encx24j600_spiflash/production/_ext/941160041/drv_tmr.o
                0x9d066254                DRV_TMR_Start

.text.SendCommandCharacter
                0x9d0662b8       0x64
 .text.SendCommandCharacter
                0x9d0662b8       0x64 build/e16_encx24j600_spiflash/production/_ext/1891376032/sys_command.o

.text._TcpSocketKill
                0x9d06631c       0x64
 .text._TcpSocketKill
                0x9d06631c       0x64 build/e16_encx24j600_spiflash/production/_ext/1164207549/tcp.o

.text.TCPIP_TCP_Connect
                0x9d066380       0x64
 .text.TCPIP_TCP_Connect
                0x9d066380       0x64 build/e16_encx24j600_spiflash/production/_ext/1164207549/tcp.o
                0x9d066380                TCPIP_TCP_Connect

.text.TCPIP_TCP_Discard
                0x9d0663e4       0x64
 .text.TCPIP_TCP_Discard
                0x9d0663e4       0x64 build/e16_encx24j600_spiflash/production/_ext/1164207549/tcp.o
                0x9d0663e4                TCPIP_TCP_Discard

.text.TCPIP_UDP_GetIsReady
                0x9d066448       0x64
 .text.TCPIP_UDP_GetIsReady
                0x9d066448       0x64 build/e16_encx24j600_spiflash/production/_ext/1164207549/udp.o
                0x9d066448                TCPIP_UDP_GetIsReady

.text.TCPIP_DHCP_Deinitialize
                0x9d0664ac       0x64
 .text.TCPIP_DHCP_Deinitialize
                0x9d0664ac       0x64 build/e16_encx24j600_spiflash/production/_ext/1164207549/dhcp.o
                0x9d0664ac                TCPIP_DHCP_Deinitialize

.text.TCPIP_DNS_ClientInfoGet
                0x9d066510       0x64
 .text.TCPIP_DNS_ClientInfoGet
                0x9d066510       0x64 build/e16_encx24j600_spiflash/production/_ext/1164207549/dns.o
                0x9d066510                TCPIP_DNS_ClientInfoGet

.text.ANNOUNCE_Notify
                0x9d066574       0x64
 .text.ANNOUNCE_Notify
                0x9d066574       0x64 build/e16_encx24j600_spiflash/production/_ext/1164207549/tcpip_announce.o

.text.TCPIP_STACK_AddressServiceEvent
                0x9d0665d8       0x64
 .text.TCPIP_STACK_AddressServiceEvent
                0x9d0665d8       0x64 build/e16_encx24j600_spiflash/production/_ext/1164207549/tcpip_manager.o
                0x9d0665d8                TCPIP_STACK_AddressServiceEvent

.text.TCPIP_IPV4_Cleanup
                0x9d06663c       0x64
 .text.TCPIP_IPV4_Cleanup
                0x9d06663c       0x64 build/e16_encx24j600_spiflash/production/_ext/1164207549/ipv4.o

.text.wolfSSL_CertManagerNew
                0x9d0666a0       0x64
 .text.wolfSSL_CertManagerNew
                0x9d0666a0       0x64 build/e16_encx24j600_spiflash/production/_ext/615233400/ssl.o
                0x9d0666a0                wolfSSL_CertManagerNew

.text.memmove   0x9d066704       0x64
 .text.memmove  0x9d066704       0x64 c:/program files (x86)/microchip/xc32/v1.42/bin/bin/../../lib/gcc/pic32mx/4.8.3/../../../../pic32mx/lib\libc.a(memmove.o)
                0x9d066704                memmove

.text.NET_PRES_EncProviderServerAccept0
                0x9d066768       0x60
 .text.NET_PRES_EncProviderServerAccept0
                0x9d066768       0x60 build/e16_encx24j600_spiflash/production/_ext/971131287/net_pres_enc_glue.o
                0x9d066768                NET_PRES_EncProviderServerAccept0

.text.NET_PRES_EncProviderClientConnect0
                0x9d0667c8       0x60
 .text.NET_PRES_EncProviderClientConnect0
                0x9d0667c8       0x60 build/e16_encx24j600_spiflash/production/_ext/971131287/net_pres_enc_glue.o
                0x9d0667c8                NET_PRES_EncProviderClientConnect0

.text.wc_Md5Hash
                0x9d066828       0x60
 .text.wc_Md5Hash
                0x9d066828       0x60 build/e16_encx24j600_spiflash/production/_ext/29024758/md5.o
                0x9d066828                wc_Md5Hash

.text.wc_RsaPrivateDecryptInline
                0x9d066888       0x60
 .text.wc_RsaPrivateDecryptInline
                0x9d066888       0x60 build/e16_encx24j600_spiflash/production/_ext/29024758/rsa.o
                0x9d066888                wc_RsaPrivateDecryptInline

.text.wc_RsaSSL_VerifyInline
                0x9d0668e8       0x60
 .text.wc_RsaSSL_VerifyInline
                0x9d0668e8       0x60 build/e16_encx24j600_spiflash/production/_ext/29024758/rsa.o
                0x9d0668e8                wc_RsaSSL_VerifyInline

.text.DRV_SPI_SYS_QUEUE_AllocElementLock
                0x9d066948       0x60
 .text.DRV_SPI_SYS_QUEUE_AllocElementLock
                0x9d066948       0x60 build/e16_encx24j600_spiflash/production/_ext/1385053818/drv_spi_sys_queue_fifo.o
                0x9d066948                DRV_SPI_SYS_QUEUE_AllocElementLock

.text.DRV_SPI_SYS_QUEUE_EnqueueLock
                0x9d0669a8       0x60
 .text.DRV_SPI_SYS_QUEUE_EnqueueLock
                0x9d0669a8       0x60 build/e16_encx24j600_spiflash/production/_ext/1385053818/drv_spi_sys_queue_fifo.o
                0x9d0669a8                DRV_SPI_SYS_QUEUE_EnqueueLock

.text.DRV_TMR_AlarmEnable
                0x9d066a08       0x60
 .text.DRV_TMR_AlarmEnable
                0x9d066a08       0x60 build/e16_encx24j600_spiflash/production/_ext/941160041/drv_tmr.o
                0x9d066a08                DRV_TMR_AlarmEnable

.text.SYS_FS_MEDIA_MANAGER_EventHandler
                0x9d066a68       0x60
 .text.SYS_FS_MEDIA_MANAGER_EventHandler
                0x9d066a68       0x60 build/e16_encx24j600_spiflash/production/_ext/1750042194/sys_fs_media_manager.o
                0x9d066a68                SYS_FS_MEDIA_MANAGER_EventHandler

.text.SYS_FS_MEDIA_MANAGER_Register
                0x9d066ac8       0x60
 .text.SYS_FS_MEDIA_MANAGER_Register
                0x9d066ac8       0x60 build/e16_encx24j600_spiflash/production/_ext/1750042194/sys_fs_media_manager.o
                0x9d066ac8                SYS_FS_MEDIA_MANAGER_Register

.text._DHCPOptionProcessMsgType
                0x9d066b28       0x60
 .text._DHCPOptionProcessMsgType
                0x9d066b28       0x60 build/e16_encx24j600_spiflash/production/_ext/1164207549/dhcp.o

.text._DNSClientCleanup
                0x9d066b88       0x60
 .text._DNSClientCleanup
                0x9d066b88       0x60 build/e16_encx24j600_spiflash/production/_ext/1164207549/dns.o

.text.TCPIP_OAHASH_EntriesRemoveAll
                0x9d066be8       0x60
 .text.TCPIP_OAHASH_EntriesRemoveAll
                0x9d066be8       0x60 build/e16_encx24j600_spiflash/production/_ext/1164207549/oahash.o
                0x9d066be8                TCPIP_OAHASH_EntriesRemoveAll

.rodata         0x9d066c48       0x60
 .rodata        0x9d066c48       0x60 build/e16_encx24j600_spiflash/production/_ext/1164207549/tcpip_helpers.o

.text.IPv4RegisterFilter
                0x9d066ca8       0x60
 .text.IPv4RegisterFilter
                0x9d066ca8       0x60 build/e16_encx24j600_spiflash/production/_ext/1164207549/ipv4.o
                0x9d066ca8                IPv4RegisterFilter

.text.TCPIP_DHCPS_Deinitialize
                0x9d066d08       0x60
 .text.TCPIP_DHCPS_Deinitialize
                0x9d066d08       0x60 build/e16_encx24j600_spiflash/production/_ext/1164207549/dhcps.o
                0x9d066d08                TCPIP_DHCPS_Deinitialize

.text.CheckCurveId
                0x9d066d68       0x60
 .text.CheckCurveId
                0x9d066d68       0x60 build/e16_encx24j600_spiflash/production/_ext/615233400/internal.o

.text.sitofp    0x9d066dc8       0x60
 .text.sitofp   0x9d066dc8       0x60 c:/program files (x86)/microchip/xc32/v1.42/bin/bin/../../lib/gcc/pic32mx/4.8.3/../../../../pic32mx/lib\libm.a(sitofp.o)
                0x9d066dc8                sitofp
                0x9d066dc8                litofp
                0x9d066dc8                __floatsisf

.text.NET_PRES_EncProviderReadReady0
                0x9d066e28       0x5c
 .text.NET_PRES_EncProviderReadReady0
                0x9d066e28       0x5c build/e16_encx24j600_spiflash/production/_ext/971131287/net_pres_enc_glue.o
                0x9d066e28                NET_PRES_EncProviderReadReady0

.text.TCPIP_HTTP_FileAuthenticate
                0x9d066e84       0x5c
 .text.TCPIP_HTTP_FileAuthenticate
                0x9d066e84       0x5c build/e16_encx24j600_spiflash/production/_ext/1360937237/custom_http_app.o
                0x9d066e84                TCPIP_HTTP_FileAuthenticate

.text.fp_mul    0x9d066ee0       0x5c
 .text.fp_mul   0x9d066ee0       0x5c build/e16_encx24j600_spiflash/production/_ext/29024758/tfm.o
                0x9d066ee0                fp_mul

.text.fp_montgomery_setup
                0x9d066f3c       0x5c
 .text.fp_montgomery_setup
                0x9d066f3c       0x5c build/e16_encx24j600_spiflash/production/_ext/29024758/tfm.o
                0x9d066f3c                fp_montgomery_setup

.text.wc_Des3_SetIV
                0x9d066f98       0x5c
 .text.wc_Des3_SetIV
                0x9d066f98       0x5c build/e16_encx24j600_spiflash/production/_ext/29024758/des3.o
                0x9d066f98                wc_Des3_SetIV

.text.DRV_ENCX24J600_SPI_SfrReadResult
                0x9d066ff4       0x5c
 .text.DRV_ENCX24J600_SPI_SfrReadResult
                0x9d066ff4       0x5c build/e16_encx24j600_spiflash/production/_ext/2115314394/drv_encx24j600_spi_bus.o
                0x9d066ff4                DRV_ENCX24J600_SPI_SfrReadResult

.text.DRV_ENCX24J600_SPI_ReadPointerResult
                0x9d067050       0x5c
 .text.DRV_ENCX24J600_SPI_ReadPointerResult
                0x9d067050       0x5c build/e16_encx24j600_spiflash/production/_ext/2115314394/drv_encx24j600_spi_bus.o
                0x9d067050                DRV_ENCX24J600_SPI_ReadPointerResult

.text.DRV_ENCX24J600_RunningStateExit
                0x9d0670ac       0x5c
 .text.DRV_ENCX24J600_RunningStateExit
                0x9d0670ac       0x5c build/e16_encx24j600_spiflash/production/_ext/1207282394/drv_encx24j600_running_state.o
                0x9d0670ac                DRV_ENCX24J600_RunningStateExit

.text.DRV_ENCX24J600_SetEvent
                0x9d067108       0x5c
 .text.DRV_ENCX24J600_SetEvent
                0x9d067108       0x5c build/e16_encx24j600_spiflash/production/_ext/772120936/drv_encx24j600_utils.o
                0x9d067108                DRV_ENCX24J600_SetEvent

.text._SendCmd  0x9d067164       0x5c
 .text._SendCmd
                0x9d067164       0x5c build/e16_encx24j600_spiflash/production/_ext/1335609251/SPIFlash.o

.text.DRV_TMR_Open
                0x9d0671c0       0x5c
 .text.DRV_TMR_Open
                0x9d0671c0       0x5c build/e16_encx24j600_spiflash/production/_ext/941160041/drv_tmr.o
                0x9d0671c0                DRV_TMR_Open

.text._DNS_NetIsValid
                0x9d06721c       0x5c
 .text._DNS_NetIsValid
                0x9d06721c       0x5c build/e16_encx24j600_spiflash/production/_ext/1164207549/dns.o

.text.fnv_32_hash
                0x9d067278       0x5c
 .text.fnv_32_hash
                0x9d067278       0x5c build/e16_encx24j600_spiflash/production/_ext/1164207549/hash_fnv.o
                0x9d067278                fnv_32_hash

.text.TCPIP_STACK_MACIdToNet
                0x9d0672d4       0x5c
 .text.TCPIP_STACK_MACIdToNet
                0x9d0672d4       0x5c build/e16_encx24j600_spiflash/production/_ext/1164207549/tcpip_manager.o
                0x9d0672d4                TCPIP_STACK_MACIdToNet

.text.wolfSSL_write
                0x9d067330       0x5c
 .text.wolfSSL_write
                0x9d067330       0x5c build/e16_encx24j600_spiflash/production/_ext/615233400/ssl.o
                0x9d067330                wolfSSL_write

.text.vsnprintf
                0x9d06738c       0x5c
 .text.vsnprintf
                0x9d06738c       0x5c c:/program files (x86)/microchip/xc32/v1.42/bin/bin/../../lib/gcc/pic32mx/4.8.3/../../../../pic32mx/lib\libc.a(vsnprintf.o)
                0x9d06738c                vsnprintf

.text.SYS_CLK_Initialize
                0x9d0673e8       0x58
 .text.SYS_CLK_Initialize
                0x9d0673e8       0x58 build/e16_encx24j600_spiflash/production/_ext/360868340/sys_clk_static.o
                0x9d0673e8                SYS_CLK_Initialize

.text.GetMyVersion
                0x9d067440       0x58
 .text.GetMyVersion
                0x9d067440       0x58 build/e16_encx24j600_spiflash/production/_ext/29024758/asn.o
                0x9d067440                GetMyVersion

.text.FreeAltNames
                0x9d067498       0x58
 .text.FreeAltNames
                0x9d067498       0x58 build/e16_encx24j600_spiflash/production/_ext/29024758/asn.o
                0x9d067498                FreeAltNames

.text.FreeNameSubtrees
                0x9d0674f0       0x58
 .text.FreeNameSubtrees
                0x9d0674f0       0x58 build/e16_encx24j600_spiflash/production/_ext/29024758/asn.o
                0x9d0674f0                FreeNameSubtrees

.text.DRV_ENCX24J600_StackInitialize
                0x9d067548       0x58
 .text.DRV_ENCX24J600_StackInitialize
                0x9d067548       0x58 build/e16_encx24j600_spiflash/production/_ext/772120936/drv_encx24j600_api.o
                0x9d067548                DRV_ENCX24J600_StackInitialize

.text.DRV_SPI_SYS_QUEUE_Dequeue
                0x9d0675a0       0x58
 .text.DRV_SPI_SYS_QUEUE_Dequeue
                0x9d0675a0       0x58 build/e16_encx24j600_spiflash/production/_ext/1385053818/drv_spi_sys_queue_fifo.o
                0x9d0675a0                DRV_SPI_SYS_QUEUE_Dequeue

.text.DRV_SST25VF016B_BlockEventHandlerSet
                0x9d0675f8       0x58
 .text.DRV_SST25VF016B_BlockEventHandlerSet
                0x9d0675f8       0x58 build/e16_encx24j600_spiflash/production/_ext/1112873152/drv_sst25vf016b.o
                0x9d0675f8                DRV_SST25VF016B_BlockEventHandlerSet

.text.SendCommandMessage
                0x9d067650       0x58
 .text.SendCommandMessage
                0x9d067650       0x58 build/e16_encx24j600_spiflash/production/_ext/1891376032/sys_command.o

.text.SYS_DEVCON_SystemUnlock
                0x9d0676a8       0x58
 .text.SYS_DEVCON_SystemUnlock
                0x9d0676a8       0x58 build/e16_encx24j600_spiflash/production/_ext/482662494/sys_devcon.o
                0x9d0676a8                SYS_DEVCON_SystemUnlock

.text.SYS_FS_MEDIA_MANAGER_CommandStatusGet
                0x9d067700       0x58
 .text.SYS_FS_MEDIA_MANAGER_CommandStatusGet
                0x9d067700       0x58 build/e16_encx24j600_spiflash/production/_ext/1750042194/sys_fs_media_manager.o
                0x9d067700                SYS_FS_MEDIA_MANAGER_CommandStatusGet

.text.SYS_INT_SourceDisable
                0x9d067758       0x58
 .text.SYS_INT_SourceDisable
                0x9d067758       0x58 build/e16_encx24j600_spiflash/production/_ext/1042686532/sys_int_pic32.o
                0x9d067758                SYS_INT_SourceDisable

.text._TCPSocketTxFreeSize
                0x9d0677b0       0x58
 .text._TCPSocketTxFreeSize
                0x9d0677b0       0x58 build/e16_encx24j600_spiflash/production/_ext/1164207549/tcp.o

.text._TCP_PortIsAvailable
                0x9d067808       0x58
 .text._TCP_PortIsAvailable
                0x9d067808       0x58 build/e16_encx24j600_spiflash/production/_ext/1164207549/tcp.o

.text._DHCPOptionProcessLease
                0x9d067860       0x58
 .text._DHCPOptionProcessLease
                0x9d067860       0x58 build/e16_encx24j600_spiflash/production/_ext/1164207549/dhcp.o

.text._DHCPOptionProcessRenewT
                0x9d0678b8       0x58
 .text._DHCPOptionProcessRenewT
                0x9d0678b8       0x58 build/e16_encx24j600_spiflash/production/_ext/1164207549/dhcp.o

.text._DHCPOptionProcessRebindT
                0x9d067910       0x58
 .text._DHCPOptionProcessRebindT
                0x9d067910       0x58 build/e16_encx24j600_spiflash/production/_ext/1164207549/dhcp.o

.text.TCPIP_HTTP_Deinitialize
                0x9d067968       0x58
 .text.TCPIP_HTTP_Deinitialize
                0x9d067968       0x58 build/e16_encx24j600_spiflash/production/_ext/1164207549/http.o
                0x9d067968                TCPIP_HTTP_Deinitialize

.text.TCPIP_HTTP_PostNameRead
                0x9d0679c0       0x58
 .text.TCPIP_HTTP_PostNameRead
                0x9d0679c0       0x58 build/e16_encx24j600_spiflash/production/_ext/1164207549/http.o
                0x9d0679c0                TCPIP_HTTP_PostNameRead

.text.TCPIP_Helper_ProtectedSingleListLock
                0x9d067a18       0x58
 .text.TCPIP_Helper_ProtectedSingleListLock
                0x9d067a18       0x58 build/e16_encx24j600_spiflash/production/_ext/1164207549/tcpip_helpers.o
                0x9d067a18                TCPIP_Helper_ProtectedSingleListLock

.text.TCPIP_STACK_InitializeDataGet
                0x9d067a70       0x58
 .text.TCPIP_STACK_InitializeDataGet
                0x9d067a70       0x58 build/e16_encx24j600_spiflash/production/_ext/1164207549/tcpip_manager.o
                0x9d067a70                TCPIP_STACK_InitializeDataGet

.text.TCPIP_STACK_NetByAddress
                0x9d067ac8       0x58
 .text.TCPIP_STACK_NetByAddress
                0x9d067ac8       0x58 build/e16_encx24j600_spiflash/production/_ext/1164207549/tcpip_manager.o
                0x9d067ac8                TCPIP_STACK_NetByAddress

.text.TCPIP_Notification_Remove
                0x9d067b20       0x58
 .text.TCPIP_Notification_Remove
                0x9d067b20       0x58 build/e16_encx24j600_spiflash/production/_ext/1164207549/tcpip_notify.o
                0x9d067b20                TCPIP_Notification_Remove

.text.main_entry
                0x9d067b78       0x54
 .text.main_entry
                0x9d067b78       0x54 c:/program files (x86)/microchip/xc32/v1.42/bin/bin/../../lib/gcc/pic32mx/4.8.3/../../../../pic32mx/lib/./proc/32MX795F512L/crt0_mips32r2.o
                0x9d067bac                __crt0_exit

.text.TCPIP_STACK_Init
                0x9d067bcc       0x54
 .text.TCPIP_STACK_Init
                0x9d067bcc       0x54 build/e16_encx24j600_spiflash/production/_ext/689678155/system_init.o
                0x9d067bcc                TCPIP_STACK_Init

.text.TCPIP_HTTP_UserAuthenticate
                0x9d067c20       0x54
 .text.TCPIP_HTTP_UserAuthenticate
                0x9d067c20       0x54 build/e16_encx24j600_spiflash/production/_ext/1360937237/custom_http_app.o
                0x9d067c20                TCPIP_HTTP_UserAuthenticate

.text.fp_cmp_d  0x9d067c74       0x54
 .text.fp_cmp_d
                0x9d067c74       0x54 build/e16_encx24j600_spiflash/production/_ext/29024758/tfm.o
                0x9d067c74                fp_cmp_d

.text.SYS_TMR_ObjectDelete
                0x9d067cc8       0x54
 .text.SYS_TMR_ObjectDelete
                0x9d067cc8       0x54 build/e16_encx24j600_spiflash/production/_ext/2110151058/sys_tmr.o
                0x9d067cc8                SYS_TMR_ObjectDelete

.text._TCPIP_Helper_SecurePortEntry
                0x9d067d1c       0x54
 .text._TCPIP_Helper_SecurePortEntry
                0x9d067d1c       0x54 build/e16_encx24j600_spiflash/production/_ext/1164207549/tcpip_helpers.o

.text.TCPIP_STACK_AddressServiceSelect
                0x9d067d70       0x54
 .text.TCPIP_STACK_AddressServiceSelect
                0x9d067d70       0x54 build/e16_encx24j600_spiflash/production/_ext/1164207549/tcpip_manager.o
                0x9d067d70                TCPIP_STACK_AddressServiceSelect

.text.ShrinkOutputBuffer
                0x9d067dc4       0x54
 .text.ShrinkOutputBuffer
                0x9d067dc4       0x54 build/e16_encx24j600_spiflash/production/_ext/615233400/internal.o
                0x9d067dc4                ShrinkOutputBuffer

.text.wolfSSL_CTX_set_verify
                0x9d067e18       0x54
 .text.wolfSSL_CTX_set_verify
                0x9d067e18       0x54 build/e16_encx24j600_spiflash/production/_ext/615233400/ssl.o
                0x9d067e18                wolfSSL_CTX_set_verify

.text.wolfSSLv23_server_method
                0x9d067e6c       0x54
 .text.wolfSSLv23_server_method
                0x9d067e6c       0x54 build/e16_encx24j600_spiflash/production/_ext/615233400/tls.o
                0x9d067e6c                wolfSSLv23_server_method

.text.NET_PRES_EncProviderStreamServerDeinit0
                0x9d067ec0       0x50
 .text.NET_PRES_EncProviderStreamServerDeinit0
                0x9d067ec0       0x50 build/e16_encx24j600_spiflash/production/_ext/971131287/net_pres_enc_glue.o
                0x9d067ec0                NET_PRES_EncProviderStreamServerDeinit0

.text.NET_PRES_EncProviderStreamClientDeinit0
                0x9d067f10       0x50
 .text.NET_PRES_EncProviderStreamClientDeinit0
                0x9d067f10       0x50 build/e16_encx24j600_spiflash/production/_ext/971131287/net_pres_enc_glue.o
                0x9d067f10                NET_PRES_EncProviderStreamClientDeinit0

.text.NET_PRES_EncProviderDataGramServerDeinit0
                0x9d067f60       0x50
 .text.NET_PRES_EncProviderDataGramServerDeinit0
                0x9d067f60       0x50 build/e16_encx24j600_spiflash/production/_ext/971131287/net_pres_enc_glue.o
                0x9d067f60                NET_PRES_EncProviderDataGramServerDeinit0

.text.NET_PRES_EncProviderDataGramClientDeinit0
                0x9d067fb0       0x50
 .text.NET_PRES_EncProviderDataGramClientDeinit0
                0x9d067fb0       0x50 build/e16_encx24j600_spiflash/production/_ext/971131287/net_pres_enc_glue.o
                0x9d067fb0                NET_PRES_EncProviderDataGramClientDeinit0

.text.wc_InitSha
                0x9d068000       0x50
 .text.wc_InitSha
                0x9d068000       0x50 build/e16_encx24j600_spiflash/production/_ext/29024758/sha.o
                0x9d068000                wc_InitSha

.text.CheckCurve
                0x9d068050       0x50
 .text.CheckCurve
                0x9d068050       0x50 build/e16_encx24j600_spiflash/production/_ext/29024758/asn.o

.text.wc_Md5RestorePos
                0x9d0680a0       0x50
 .text.wc_Md5RestorePos
                0x9d0680a0       0x50 build/e16_encx24j600_spiflash/production/_ext/29024758/hash.o
                0x9d0680a0                wc_Md5RestorePos

.text.MPFSGetPosition
                0x9d0680f0       0x50
 .text.MPFSGetPosition
                0x9d0680f0       0x50 build/e16_encx24j600_spiflash/production/_ext/614935175/mpfs.o
                0x9d0680f0                MPFSGetPosition

.text._TCPSetSourceAddress
                0x9d068140       0x50
 .text._TCPSetSourceAddress
                0x9d068140       0x50 build/e16_encx24j600_spiflash/production/_ext/1164207549/tcp.o

.text._TCPSetHalfFlushFlag
                0x9d068190       0x50
 .text._TCPSetHalfFlushFlag
                0x9d068190       0x50 build/e16_encx24j600_spiflash/production/_ext/1164207549/tcp.o

.text._TcpFlush
                0x9d0681e0       0x50
 .text._TcpFlush
                0x9d0681e0       0x50 build/e16_encx24j600_spiflash/production/_ext/1164207549/tcp.o

.rodata         0x9d068230       0x50
 .rodata        0x9d068230       0x50 build/e16_encx24j600_spiflash/production/_ext/1164207549/tcp.o

.text.TCPIP_TCP_Flush
                0x9d068280       0x50
 .text.TCPIP_TCP_Flush
                0x9d068280       0x50 build/e16_encx24j600_spiflash/production/_ext/1164207549/tcp.o
                0x9d068280                TCPIP_TCP_Flush

.text.TCPIP_TCP_FifoRxFreeGet
                0x9d0682d0       0x50
 .text.TCPIP_TCP_FifoRxFreeGet
                0x9d0682d0       0x50 build/e16_encx24j600_spiflash/production/_ext/1164207549/tcp.o
                0x9d0682d0                TCPIP_TCP_FifoRxFreeGet

.text.TCPIP_UDP_Discard
                0x9d068320       0x50
 .text.TCPIP_UDP_Discard
                0x9d068320       0x50 build/e16_encx24j600_spiflash/production/_ext/1164207549/udp.o
                0x9d068320                TCPIP_UDP_Discard

.text._DHCPOptionWriteParamRequest
                0x9d068370       0x50
 .text._DHCPOptionWriteParamRequest
                0x9d068370       0x50 build/e16_encx24j600_spiflash/production/_ext/1164207549/dhcp.o

.text._DHCPOptionProcessSrvIdent
                0x9d0683c0       0x50
 .text._DHCPOptionProcessSrvIdent
                0x9d0683c0       0x50 build/e16_encx24j600_spiflash/production/_ext/1164207549/dhcp.o

.text.TCPIP_DNS_OAHASH_KeyHash
                0x9d068410       0x50
 .text.TCPIP_DNS_OAHASH_KeyHash
                0x9d068410       0x50 build/e16_encx24j600_spiflash/production/_ext/1164207549/dns.o

.text.TCPIP_NBNS_Deinitialize
                0x9d068460       0x50
 .text.TCPIP_NBNS_Deinitialize
                0x9d068460       0x50 build/e16_encx24j600_spiflash/production/_ext/1164207549/nbns.o
                0x9d068460                TCPIP_NBNS_Deinitialize

.text.TCPIP_SMTP_ClientDeinitialize
                0x9d0684b0       0x50
 .text.TCPIP_SMTP_ClientDeinitialize
                0x9d0684b0       0x50 build/e16_encx24j600_spiflash/production/_ext/1164207549/smtp.o
                0x9d0684b0                TCPIP_SMTP_ClientDeinitialize

.text.TCPIP_STACK_NetMACStatisticsGet
                0x9d068500       0x50
 .text.TCPIP_STACK_NetMACStatisticsGet
                0x9d068500       0x50 build/e16_encx24j600_spiflash/production/_ext/1164207549/tcpip_manager.o
                0x9d068500                TCPIP_STACK_NetMACStatisticsGet

.text.TCPIP_STACK_NetMACRegisterStatisticsGet
                0x9d068550       0x50
 .text.TCPIP_STACK_NetMACRegisterStatisticsGet
                0x9d068550       0x50 build/e16_encx24j600_spiflash/production/_ext/1164207549/tcpip_manager.o
                0x9d068550                TCPIP_STACK_NetMACRegisterStatisticsGet

.text._TCPIPStackModuleSignalGet
                0x9d0685a0       0x50
 .text._TCPIPStackModuleSignalGet
                0x9d0685a0       0x50 build/e16_encx24j600_spiflash/production/_ext/1164207549/tcpip_manager.o
                0x9d0685a0                _TCPIPStackModuleSignalGet

.text.TCPIP_Notification_Add
                0x9d0685f0       0x50
 .text.TCPIP_Notification_Add
                0x9d0685f0       0x50 build/e16_encx24j600_spiflash/production/_ext/1164207549/tcpip_notify.o
                0x9d0685f0                TCPIP_Notification_Add

.text.wolfSSL_get_error
                0x9d068640       0x50
 .text.wolfSSL_get_error
                0x9d068640       0x50 build/e16_encx24j600_spiflash/production/_ext/615233400/ssl.o
                0x9d068640                wolfSSL_get_error

.text.wolfSSLv23_client_method
                0x9d068690       0x50
 .text.wolfSSLv23_client_method
                0x9d068690       0x50 build/e16_encx24j600_spiflash/production/_ext/615233400/tls.o
                0x9d068690                wolfSSLv23_client_method

.text.sbrk      0x9d0686e0       0x50
 .text.sbrk     0x9d0686e0       0x50 c:/program files (x86)/microchip/xc32/v1.42/bin/bin/../../lib/gcc/pic32mx/4.8.3/../../../../pic32mx/lib\libpic32.a(sbrk.o)
                0x9d0686e0                sbrk

.text.SYS_CLK_SecondaryOscillatorEnable
                0x9d068730       0x4c
 .text.SYS_CLK_SecondaryOscillatorEnable
                0x9d068730       0x4c build/e16_encx24j600_spiflash/production/_ext/360868340/sys_clk_static.o
                0x9d068730                SYS_CLK_SecondaryOscillatorEnable

.text.TCPIP_HTTP_Print_config_dhcpchecked
                0x9d06877c       0x4c
 .text.TCPIP_HTTP_Print_config_dhcpchecked
                0x9d06877c       0x4c build/e16_encx24j600_spiflash/production/_ext/1360937237/custom_http_app.o
                0x9d06877c                TCPIP_HTTP_Print_config_dhcpchecked

.text.TCPIP_HTTP_Print_status_ok
                0x9d0687c8       0x4c
 .text.TCPIP_HTTP_Print_status_ok
                0x9d0687c8       0x4c build/e16_encx24j600_spiflash/production/_ext/1360937237/custom_http_app.o
                0x9d0687c8                TCPIP_HTTP_Print_status_ok

.text.TCPIP_HTTP_Print_status_fail
                0x9d068814       0x4c
 .text.TCPIP_HTTP_Print_status_fail
                0x9d068814       0x4c build/e16_encx24j600_spiflash/production/_ext/1360937237/custom_http_app.o
                0x9d068814                TCPIP_HTTP_Print_status_fail

.text._DRV_ENCX24J600_ValidateClientHandle
                0x9d068860       0x4c
 .text._DRV_ENCX24J600_ValidateClientHandle
                0x9d068860       0x4c build/e16_encx24j600_spiflash/production/_ext/772120936/drv_encx24j600_api.o
                0x9d068860                _DRV_ENCX24J600_ValidateClientHandle

.text.DRV_ENCX24J600_PacketTx
                0x9d0688ac       0x4c
 .text.DRV_ENCX24J600_PacketTx
                0x9d0688ac       0x4c build/e16_encx24j600_spiflash/production/_ext/772120936/drv_encx24j600_api.o
                0x9d0688ac                DRV_ENCX24J600_PacketTx

.text.SYS_CONSOLE_Tasks
                0x9d0688f8       0x4c
 .text.SYS_CONSOLE_Tasks
                0x9d0688f8       0x4c build/e16_encx24j600_spiflash/production/_ext/1434663852/sys_console.o
                0x9d0688f8                SYS_CONSOLE_Tasks

.text.SYS_CONSOLE_Flush
                0x9d068944       0x4c
 .text.SYS_CONSOLE_Flush
                0x9d068944       0x4c build/e16_encx24j600_spiflash/production/_ext/1434663852/sys_console.o
                0x9d068944                SYS_CONSOLE_Flush

.text.UARTDeviceEventHandler
                0x9d068990       0x4c
 .text.UARTDeviceEventHandler
                0x9d068990       0x4c build/e16_encx24j600_spiflash/production/_ext/1434663852/sys_console_uart.o
                0x9d068990                UARTDeviceEventHandler

.text.SYS_TMR_TickCountGetLong
                0x9d0689dc       0x4c
 .text.SYS_TMR_TickCountGetLong
                0x9d0689dc       0x4c build/e16_encx24j600_spiflash/production/_ext/2110151058/sys_tmr.o
                0x9d0689dc                SYS_TMR_TickCountGetLong

.text.TCPIP_TCP_SignalHandlerDeregister
                0x9d068a28       0x4c
 .text.TCPIP_TCP_SignalHandlerDeregister
                0x9d068a28       0x4c build/e16_encx24j600_spiflash/production/_ext/1164207549/tcp.o
                0x9d068a28                TCPIP_TCP_SignalHandlerDeregister

.text.TCPIP_UDP_SignalHandlerDeregister
                0x9d068a74       0x4c
 .text.TCPIP_UDP_SignalHandlerDeregister
                0x9d068a74       0x4c build/e16_encx24j600_spiflash/production/_ext/1164207549/udp.o
                0x9d068a74                TCPIP_UDP_SignalHandlerDeregister

.text._ARPRemoveCacheEntries
                0x9d068ac0       0x4c
 .text._ARPRemoveCacheEntries
                0x9d068ac0       0x4c build/e16_encx24j600_spiflash/production/_ext/1164207549/arp.o

.text.TCPIP_NBNS_Cleanup
                0x9d068b0c       0x4c
 .text.TCPIP_NBNS_Cleanup
                0x9d068b0c       0x4c build/e16_encx24j600_spiflash/production/_ext/1164207549/nbns.o

.text.TCPIP_STACK_NetAddressMacSet
                0x9d068b58       0x4c
 .text.TCPIP_STACK_NetAddressMacSet
                0x9d068b58       0x4c build/e16_encx24j600_spiflash/production/_ext/1164207549/tcpip_manager.o
                0x9d068b58                TCPIP_STACK_NetAddressMacSet

.text.TCPIP_STACK_MACIdToString
                0x9d068ba4       0x4c
 .text.TCPIP_STACK_MACIdToString
                0x9d068ba4       0x4c build/e16_encx24j600_spiflash/production/_ext/1164207549/tcpip_manager.o
                0x9d068ba4                TCPIP_STACK_MACIdToString

.text.TCPIP_STACK_DNSServiceCanStart
                0x9d068bf0       0x4c
 .text.TCPIP_STACK_DNSServiceCanStart
                0x9d068bf0       0x4c build/e16_encx24j600_spiflash/production/_ext/1164207549/tcpip_manager.o
                0x9d068bf0                TCPIP_STACK_DNSServiceCanStart

.text._TCPIPStackSignalHandlerSetParams
                0x9d068c3c       0x4c
 .text._TCPIPStackSignalHandlerSetParams
                0x9d068c3c       0x4c build/e16_encx24j600_spiflash/production/_ext/1164207549/tcpip_manager.o
                0x9d068c3c                _TCPIPStackSignalHandlerSetParams

.text.TCPIP_Notification_RemoveAll
                0x9d068c88       0x4c
 .text.TCPIP_Notification_RemoveAll
                0x9d068c88       0x4c build/e16_encx24j600_spiflash/production/_ext/1164207549/tcpip_notify.o
                0x9d068c88                TCPIP_Notification_RemoveAll

.text.TCPIP_SNTP_Cleanup
                0x9d068cd4       0x4c
 .text.TCPIP_SNTP_Cleanup
                0x9d068cd4       0x4c build/e16_encx24j600_spiflash/production/_ext/1164207549/sntp.o

.text._TCPIP_HEAP_Calloc
                0x9d068d20       0x4c
 .text._TCPIP_HEAP_Calloc
                0x9d068d20       0x4c build/e16_encx24j600_spiflash/production/_ext/1164207549/tcpip_heap_internal.o

.text.TCPIP_DDNS_ServiceSet
                0x9d068d6c       0x4c
 .text.TCPIP_DDNS_ServiceSet
                0x9d068d6c       0x4c build/e16_encx24j600_spiflash/production/_ext/1164207549/ddns.o
                0x9d068d6c                TCPIP_DDNS_ServiceSet

.text.FreeSSL   0x9d068db8       0x4c
 .text.FreeSSL  0x9d068db8       0x4c build/e16_encx24j600_spiflash/production/_ext/615233400/internal.o
                0x9d068db8                FreeSSL

.text.wolfSSL_negotiate
                0x9d068e04       0x4c
 .text.wolfSSL_negotiate
                0x9d068e04       0x4c build/e16_encx24j600_spiflash/production/_ext/615233400/ssl.o
                0x9d068e04                wolfSSL_negotiate

.text           0x9d068e50       0x4c
 .text          0x9d068e50       0x4c c:/program files (x86)/microchip/xc32/v1.42/bin/bin/../../lib/gcc/pic32mx/4.8.3\libgcc.a(floatunsisf.o)
                0x9d068e50                __floatunsisf

.text.calloc    0x9d068e9c       0x4c
 .text.calloc   0x9d068e9c       0x4c c:/program files (x86)/microchip/xc32/v1.42/bin/bin/../../lib/gcc/pic32mx/4.8.3/../../../../pic32mx/lib\libc.a(calloc.o)
                0x9d068e9c                calloc

.rodata         0x9d068ee8       0x4c
 .rodata        0x9d068ee8       0x4c c:/program files (x86)/microchip/xc32/v1.42/bin/bin/../../lib/gcc/pic32mx/4.8.3/../../../../pic32mx/lib\libc.a(ctime.o)

.text.Hash_DRBG_Uninstantiate
                0x9d068f34       0x48
 .text.Hash_DRBG_Uninstantiate
                0x9d068f34       0x48 build/e16_encx24j600_spiflash/production/_ext/29024758/random.o

.text.fp_count_bits
                0x9d068f7c       0x48
 .text.fp_count_bits
                0x9d068f7c       0x48 build/e16_encx24j600_spiflash/production/_ext/29024758/tfm.o
                0x9d068f7c                fp_count_bits

.text.DRV_TMR_Close
                0x9d068fc4       0x48
 .text.DRV_TMR_Close
                0x9d068fc4       0x48 build/e16_encx24j600_spiflash/production/_ext/941160041/drv_tmr.o
                0x9d068fc4                DRV_TMR_Close

.text.SYS_DEVCON_SystemLock
                0x9d06900c       0x48
 .text.SYS_DEVCON_SystemLock
                0x9d06900c       0x48 build/e16_encx24j600_spiflash/production/_ext/482662494/sys_devcon.o
                0x9d06900c                SYS_DEVCON_SystemLock

.text.SYS_RESET_SoftwareReset
                0x9d069054       0x48
 .text.SYS_RESET_SoftwareReset
                0x9d069054       0x48 build/e16_encx24j600_spiflash/production/_ext/64182180/sys_reset.o
                0x9d069054                SYS_RESET_SoftwareReset

.text.SYS_FS_FileStat_Wrapper
                0x9d06909c       0x48
 .text.SYS_FS_FileStat_Wrapper
                0x9d06909c       0x48 build/e16_encx24j600_spiflash/production/_ext/1886247299/sys_fs_wrapper.o
                0x9d06909c                SYS_FS_FileStat_Wrapper

.text.strupr    0x9d0690e4       0x48
 .text.strupr   0x9d0690e4       0x48 build/e16_encx24j600_spiflash/production/_ext/1886247299/helpers.o
                0x9d0690e4                strupr

.text.TCPIP_TCP_WasReset
                0x9d06912c       0x48
 .text.TCPIP_TCP_WasReset
                0x9d06912c       0x48 build/e16_encx24j600_spiflash/production/_ext/1164207549/tcp.o
                0x9d06912c                TCPIP_TCP_WasReset

.text.TCPIP_TCP_StringPut
                0x9d069174       0x48
 .text.TCPIP_TCP_StringPut
                0x9d069174       0x48 build/e16_encx24j600_spiflash/production/_ext/1164207549/tcp.o
                0x9d069174                TCPIP_TCP_StringPut

.text._UDPIsAvailablePort
                0x9d0691bc       0x48
 .text._UDPIsAvailablePort
                0x9d0691bc       0x48 build/e16_encx24j600_spiflash/production/_ext/1164207549/udp.o

.text.TCPIP_UDP_TxPointerGet
                0x9d069204       0x48
 .text.TCPIP_UDP_TxPointerGet
                0x9d069204       0x48 build/e16_encx24j600_spiflash/production/_ext/1164207549/udp.o
                0x9d069204                TCPIP_UDP_TxPointerGet

.text.TCPIP_ARP_HandlerDeRegister
                0x9d06924c       0x48
 .text.TCPIP_ARP_HandlerDeRegister
                0x9d06924c       0x48 build/e16_encx24j600_spiflash/production/_ext/1164207549/arp.o
                0x9d06924c                TCPIP_ARP_HandlerDeRegister

.text._DHCPOptionWriteMsgType
                0x9d069294       0x48
 .text._DHCPOptionWriteMsgType
                0x9d069294       0x48 build/e16_encx24j600_spiflash/production/_ext/1164207549/dhcp.o

.text.TCPIP_HEAP_Create
                0x9d0692dc       0x48
 .text.TCPIP_HEAP_Create
                0x9d0692dc       0x48 build/e16_encx24j600_spiflash/production/_ext/1164207549/tcpip_heap_alloc.o
                0x9d0692dc                TCPIP_HEAP_Create

.text.TCPIP_Helper_SingleListAppend
                0x9d069324       0x48
 .text.TCPIP_Helper_SingleListAppend
                0x9d069324       0x48 build/e16_encx24j600_spiflash/production/_ext/1164207549/tcpip_helpers.o
                0x9d069324                TCPIP_Helper_SingleListAppend

.text.TCPIP_STACK_IPAddToNet
                0x9d06936c       0x48
 .text.TCPIP_STACK_IPAddToNet
                0x9d06936c       0x48 build/e16_encx24j600_spiflash/production/_ext/1164207549/tcpip_manager.o
                0x9d06936c                TCPIP_STACK_IPAddToNet

.text.TCPIP_STACK_NetworkAddressSet
                0x9d0693b4       0x48
 .text.TCPIP_STACK_NetworkAddressSet
                0x9d0693b4       0x48 build/e16_encx24j600_spiflash/production/_ext/1164207549/tcpip_manager.o
                0x9d0693b4                TCPIP_STACK_NetworkAddressSet

.text.TCPIP_STACK_NetAddressSet
                0x9d0693fc       0x48
 .text.TCPIP_STACK_NetAddressSet
                0x9d0693fc       0x48 build/e16_encx24j600_spiflash/production/_ext/1164207549/tcpip_manager.o
                0x9d0693fc                TCPIP_STACK_NetAddressSet

.text.DtlsPoolDelete
                0x9d069444       0x48
 .text.DtlsPoolDelete
                0x9d069444       0x48 build/e16_encx24j600_spiflash/production/_ext/615233400/internal.o
                0x9d069444                DtlsPoolDelete

.text.wolfSSL_GetMacSecret
                0x9d06948c       0x48
 .text.wolfSSL_GetMacSecret
                0x9d06948c       0x48 build/e16_encx24j600_spiflash/production/_ext/615233400/ssl.o
                0x9d06948c                wolfSSL_GetMacSecret

.text.wolfDTLSv1_server_method
                0x9d0694d4       0x48
 .text.wolfDTLSv1_server_method
                0x9d0694d4       0x48 build/e16_encx24j600_spiflash/production/_ext/615233400/ssl.o
                0x9d0694d4                wolfDTLSv1_server_method

.text._bootstrap_exception_handler
                0x9d06951c       0x48
 .text._bootstrap_exception_handler
                0x9d06951c       0x48 c:/program files (x86)/microchip/xc32/v1.42/bin/bin/../../lib/gcc/pic32mx/4.8.3/../../../../pic32mx/lib\libpic32.a(default-bootstrap-exception-handler.o)
                0x9d06951c                _bootstrap_exception_handler

.vector_default
                0x9d069564       0x48
 .vector_default
                0x9d069564       0x48 c:/program files (x86)/microchip/xc32/v1.42/bin/bin/../../lib/gcc/pic32mx/4.8.3/../../../../pic32mx/lib\libpic32.a(defaultinterrupt.o)
                0x9d069564                _DefaultInterrupt

.text.TCPIP_HTTP_Print_pot
                0x9d0695ac       0x44
 .text.TCPIP_HTTP_Print_pot
                0x9d0695ac       0x44 build/e16_encx24j600_spiflash/production/_ext/1360937237/custom_http_app.o
                0x9d0695ac                TCPIP_HTTP_Print_pot

.text.TCPIP_HTTP_Print_rebootaddr
                0x9d0695f0       0x44
 .text.TCPIP_HTTP_Print_rebootaddr
                0x9d0695f0       0x44 build/e16_encx24j600_spiflash/production/_ext/1360937237/custom_http_app.o
                0x9d0695f0                TCPIP_HTTP_Print_rebootaddr

.text.CRYPT_MD5_DataAdd
                0x9d069634       0x44
 .text.CRYPT_MD5_DataAdd
                0x9d069634       0x44 build/e16_encx24j600_spiflash/production/_ext/29024758/crypto.o
                0x9d069634                CRYPT_MD5_DataAdd

.text.CRYPT_MD5_Finalize
                0x9d069678       0x44
 .text.CRYPT_MD5_Finalize
                0x9d069678       0x44 build/e16_encx24j600_spiflash/production/_ext/29024758/crypto.o
                0x9d069678                CRYPT_MD5_Finalize

.text.wc_ecc_del_point
                0x9d0696bc       0x44
 .text.wc_ecc_del_point
                0x9d0696bc       0x44 build/e16_encx24j600_spiflash/production/_ext/29024758/ecc.o
                0x9d0696bc                wc_ecc_del_point

.text.wc_ecc_free
                0x9d069700       0x44
 .text.wc_ecc_free
                0x9d069700       0x44 build/e16_encx24j600_spiflash/production/_ext/29024758/ecc.o
                0x9d069700                wc_ecc_free

.text.fp_set    0x9d069744       0x44
 .text.fp_set   0x9d069744       0x44 build/e16_encx24j600_spiflash/production/_ext/29024758/tfm.o
                0x9d069744                fp_set

.text.fp_reverse
                0x9d069788       0x44
 .text.fp_reverse
                0x9d069788       0x44 build/e16_encx24j600_spiflash/production/_ext/29024758/tfm.o
                0x9d069788                fp_reverse

.text.MakeSigner
                0x9d0697cc       0x44
 .text.MakeSigner
                0x9d0697cc       0x44 build/e16_encx24j600_spiflash/production/_ext/29024758/asn.o
                0x9d0697cc                MakeSigner

.text.DRV_ENCX24J600_SPI_OperationStarting
                0x9d069810       0x44
 .text.DRV_ENCX24J600_SPI_OperationStarting
                0x9d069810       0x44 build/e16_encx24j600_spiflash/production/_ext/2115314394/drv_encx24j600_spi_bus.o

.text.DRV_ENCX24J600_SPI_OperationEnded
                0x9d069854       0x44
 .text.DRV_ENCX24J600_SPI_OperationEnded
                0x9d069854       0x44 build/e16_encx24j600_spiflash/production/_ext/2115314394/drv_encx24j600_spi_bus.o

.text.DRV_ENCX24J600_ConfigStateEnter
                0x9d069898       0x44
 .text.DRV_ENCX24J600_ConfigStateEnter
                0x9d069898       0x44 build/e16_encx24j600_spiflash/production/_ext/1730942135/drv_encx24j600_configure_state.o
                0x9d069898                DRV_ENCX24J600_ConfigStateEnter

.text.IsCommandReady
                0x9d0698dc       0x44
 .text.IsCommandReady
                0x9d0698dc       0x44 build/e16_encx24j600_spiflash/production/_ext/1891376032/sys_command.o

.text.MPFS_EOF  0x9d069920       0x44
 .text.MPFS_EOF
                0x9d069920       0x44 build/e16_encx24j600_spiflash/production/_ext/614935175/mpfs.o
                0x9d069920                MPFS_EOF

.rodata         0x9d069964       0x44
 .rodata        0x9d069964       0x44 build/e16_encx24j600_spiflash/production/_ext/1164207549/udp.o

.text._SwapARPPacket
                0x9d0699a8       0x44
 .text._SwapARPPacket
                0x9d0699a8       0x44 build/e16_encx24j600_spiflash/production/_ext/1164207549/arp.o

.text.TCPIP_DHCP_HandlerDeRegister
                0x9d0699ec       0x44
 .text.TCPIP_DHCP_HandlerDeRegister
                0x9d0699ec       0x44 build/e16_encx24j600_spiflash/production/_ext/1164207549/dhcp.o
                0x9d0699ec                TCPIP_DHCP_HandlerDeRegister

.text.TCPIP_DNS_ClientDeinitialize
                0x9d069a30       0x44
 .text.TCPIP_DNS_ClientDeinitialize
                0x9d069a30       0x44 build/e16_encx24j600_spiflash/production/_ext/1164207549/dns.o
                0x9d069a30                TCPIP_DNS_ClientDeinitialize

.text.TCPIP_Helper_ProtectedSingleListInitialize
                0x9d069a74       0x44
 .text.TCPIP_Helper_ProtectedSingleListInitialize
                0x9d069a74       0x44 build/e16_encx24j600_spiflash/production/_ext/1164207549/tcpip_helpers.o
                0x9d069a74                TCPIP_Helper_ProtectedSingleListInitialize

.text._TCPIP_STACK_TickHandler
                0x9d069ab8       0x44
 .text._TCPIP_STACK_TickHandler
                0x9d069ab8       0x44 build/e16_encx24j600_spiflash/production/_ext/1164207549/tcpip_manager.o

.text.TCPIP_STACK_NetMask
                0x9d069afc       0x44
 .text.TCPIP_STACK_NetMask
                0x9d069afc       0x44 build/e16_encx24j600_spiflash/production/_ext/1164207549/tcpip_manager.o
                0x9d069afc                TCPIP_STACK_NetMask

.text.TCPIP_STACK_NetIsBcastAddress
                0x9d069b40       0x44
 .text.TCPIP_STACK_NetIsBcastAddress
                0x9d069b40       0x44 build/e16_encx24j600_spiflash/production/_ext/1164207549/tcpip_manager.o
                0x9d069b40                TCPIP_STACK_NetIsBcastAddress

.text.TCPIP_STACK_NetIsLinked
                0x9d069b84       0x44
 .text.TCPIP_STACK_NetIsLinked
                0x9d069b84       0x44 build/e16_encx24j600_spiflash/production/_ext/1164207549/tcpip_manager.o
                0x9d069b84                TCPIP_STACK_NetIsLinked

.text.TCPIP_STACK_NetAddressMac
                0x9d069bc8       0x44
 .text.TCPIP_STACK_NetAddressMac
                0x9d069bc8       0x44 build/e16_encx24j600_spiflash/production/_ext/1164207549/tcpip_manager.o
                0x9d069bc8                TCPIP_STACK_NetAddressMac

.text.Ipv4DeRegisterFilter
                0x9d069c0c       0x44
 .text.Ipv4DeRegisterFilter
                0x9d069c0c       0x44 build/e16_encx24j600_spiflash/production/_ext/1164207549/ipv4.o
                0x9d069c0c                Ipv4DeRegisterFilter

.text.VerifyClientSuite
                0x9d069c50       0x44
 .text.VerifyClientSuite
                0x9d069c50       0x44 build/e16_encx24j600_spiflash/production/_ext/615233400/internal.o
                0x9d069c50                VerifyClientSuite

.text.wolfDTLSv1_client_method
                0x9d069c94       0x44
 .text.wolfDTLSv1_client_method
                0x9d069c94       0x44 build/e16_encx24j600_spiflash/production/_ext/615233400/ssl.o
                0x9d069c94                wolfDTLSv1_client_method

.text.wolfSSL_GetHmacType
                0x9d069cd8       0x44
 .text.wolfSSL_GetHmacType
                0x9d069cd8       0x44 build/e16_encx24j600_spiflash/production/_ext/615233400/tls.o
                0x9d069cd8                wolfSSL_GetHmacType

.rodata         0x9d069d1c       0x44
 .rodata        0x9d069d1c       0x44 build/e16_encx24j600_spiflash/production/_ext/615233400/tls.o

.text           0x9d069d60       0x44
 .text          0x9d069d60       0x44 c:/program files (x86)/microchip/xc32/v1.42/bin/bin/../../lib/gcc/pic32mx/4.8.3/../../../../pic32mx/lib\pic32_software_reset.o
                0x9d069d60                __pic32_software_reset

.text.SYS_PORTS_Initialize
                0x9d069da4       0x40
 .text.SYS_PORTS_Initialize
                0x9d069da4       0x40 build/e16_encx24j600_spiflash/production/_ext/394705988/sys_ports_static.o
                0x9d069da4                SYS_PORTS_Initialize

.text.TCPIP_HTTP_Print_config_hostname
                0x9d069de4       0x40
 .text.TCPIP_HTTP_Print_config_hostname
                0x9d069de4       0x40 build/e16_encx24j600_spiflash/production/_ext/1360937237/custom_http_app.o
                0x9d069de4                TCPIP_HTTP_Print_config_hostname

.text.wc_InitMd5
                0x9d069e24       0x40
 .text.wc_InitMd5
                0x9d069e24       0x40 build/e16_encx24j600_spiflash/production/_ext/29024758/md5.o
                0x9d069e24                wc_InitMd5

.text.fp_sqr    0x9d069e64       0x40
 .text.fp_sqr   0x9d069e64       0x40 build/e16_encx24j600_spiflash/production/_ext/29024758/tfm.o
                0x9d069e64                fp_sqr

.text.fp_leading_bit
                0x9d069ea4       0x40
 .text.fp_leading_bit
                0x9d069ea4       0x40 build/e16_encx24j600_spiflash/production/_ext/29024758/tfm.o
                0x9d069ea4                fp_leading_bit

.text.DRV_ENCX24J600_SPI_CloseInterface
                0x9d069ee4       0x40
 .text.DRV_ENCX24J600_SPI_CloseInterface
                0x9d069ee4       0x40 build/e16_encx24j600_spiflash/production/_ext/2115314394/drv_encx24j600_spi_bus.o
                0x9d069ee4                DRV_ENCX24J600_SPI_CloseInterface

.text.DRV_ENCX24J600_PacketRx
                0x9d069f24       0x40
 .text.DRV_ENCX24J600_PacketRx
                0x9d069f24       0x40 build/e16_encx24j600_spiflash/production/_ext/772120936/drv_encx24j600_api.o
                0x9d069f24                DRV_ENCX24J600_PacketRx

.text.DRV_SPI_SYS_QUEUE_Enqueue
                0x9d069f64       0x40
 .text.DRV_SPI_SYS_QUEUE_Enqueue
                0x9d069f64       0x40 build/e16_encx24j600_spiflash/production/_ext/1385053818/drv_spi_sys_queue_fifo.o
                0x9d069f64                DRV_SPI_SYS_QUEUE_Enqueue

.text.DRV_SST25VF016B_MediaIsAttached
                0x9d069fa4       0x40
 .text.DRV_SST25VF016B_MediaIsAttached
                0x9d069fa4       0x40 build/e16_encx24j600_spiflash/production/_ext/1112873152/drv_sst25vf016b.o
                0x9d069fa4                DRV_SST25VF016B_MediaIsAttached

.text.SYS_FS_FileOpen_Wrapper
                0x9d069fe4       0x40
 .text.SYS_FS_FileOpen_Wrapper
                0x9d069fe4       0x40 build/e16_encx24j600_spiflash/production/_ext/1886247299/sys_fs_wrapper.o
                0x9d069fe4                SYS_FS_FileOpen_Wrapper

.text.TCPIP_TCP_IsConnected
                0x9d06a024       0x40
 .text.TCPIP_TCP_IsConnected
                0x9d06a024       0x40 build/e16_encx24j600_spiflash/production/_ext/1164207549/tcp.o
                0x9d06a024                TCPIP_TCP_IsConnected

.text.TCPIP_TCP_PutIsReady
                0x9d06a064       0x40
 .text.TCPIP_TCP_PutIsReady
                0x9d06a064       0x40 build/e16_encx24j600_spiflash/production/_ext/1164207549/tcp.o
                0x9d06a064                TCPIP_TCP_PutIsReady

.text.TCPIP_TCP_Find
                0x9d06a0a4       0x40
 .text.TCPIP_TCP_Find
                0x9d06a0a4       0x40 build/e16_encx24j600_spiflash/production/_ext/1164207549/tcp.o
                0x9d06a0a4                TCPIP_TCP_Find

.text.TCPIP_Commands_Deinitialize
                0x9d06a0e4       0x40
 .text.TCPIP_Commands_Deinitialize
                0x9d06a0e4       0x40 build/e16_encx24j600_spiflash/production/_ext/1164207549/tcpip_commands.o
                0x9d06a0e4                TCPIP_Commands_Deinitialize

.text.TCPIP_Helper_ProtectedSingleListUnlock
                0x9d06a124       0x40
 .text.TCPIP_Helper_ProtectedSingleListUnlock
                0x9d06a124       0x40 build/e16_encx24j600_spiflash/production/_ext/1164207549/tcpip_helpers.o
                0x9d06a124                TCPIP_Helper_ProtectedSingleListUnlock

.text.TCPIP_ICMP_Deinitialize
                0x9d06a164       0x40
 .text.TCPIP_ICMP_Deinitialize
                0x9d06a164       0x40 build/e16_encx24j600_spiflash/production/_ext/1164207549/icmp.o
                0x9d06a164                TCPIP_ICMP_Deinitialize

.text.DtlsMsgListDelete
                0x9d06a1a4       0x40
 .text.DtlsMsgListDelete
                0x9d06a1a4       0x40 build/e16_encx24j600_spiflash/production/_ext/615233400/internal.o
                0x9d06a1a4                DtlsMsgListDelete

.text.wolfSSL_set_fd
                0x9d06a1e4       0x40
 .text.wolfSSL_set_fd
                0x9d06a1e4       0x40 build/e16_encx24j600_spiflash/production/_ext/615233400/ssl.o
                0x9d06a1e4                wolfSSL_set_fd

.text.wolfSSL_CertManagerFree
                0x9d06a224       0x40
 .text.wolfSSL_CertManagerFree
                0x9d06a224       0x40 build/e16_encx24j600_spiflash/production/_ext/615233400/ssl.o
                0x9d06a224                wolfSSL_CertManagerFree

.text.wc_ShaRestorePos
                0x9d06a264       0x3c
 .text.wc_ShaRestorePos
                0x9d06a264       0x3c build/e16_encx24j600_spiflash/production/_ext/29024758/hash.o
                0x9d06a264                wc_ShaRestorePos

.text.DRV_ENCX24J600_SPI_OperationResult
                0x9d06a2a0       0x3c
 .text.DRV_ENCX24J600_SPI_OperationResult
                0x9d06a2a0       0x3c build/e16_encx24j600_spiflash/production/_ext/2115314394/drv_encx24j600_spi_bus.o
                0x9d06a2a0                DRV_ENCX24J600_SPI_OperationResult

.text.DRV_ENCX24J600_SPI_DeinitializeInterface
                0x9d06a2dc       0x3c
 .text.DRV_ENCX24J600_SPI_DeinitializeInterface
                0x9d06a2dc       0x3c build/e16_encx24j600_spiflash/production/_ext/2115314394/drv_encx24j600_spi_bus.o
                0x9d06a2dc                DRV_ENCX24J600_SPI_DeinitializeInterface

.text.DRV_ENCX24J600_AddGpData
                0x9d06a318       0x3c
 .text.DRV_ENCX24J600_AddGpData
                0x9d06a318       0x3c build/e16_encx24j600_spiflash/production/_ext/772120936/drv_encx24j600_utils.o
                0x9d06a318                DRV_ENCX24J600_AddGpData

.text.DRV_USART_ClientStatus
                0x9d06a354       0x3c
 .text.DRV_USART_ClientStatus
                0x9d06a354       0x3c build/e16_encx24j600_spiflash/production/_ext/821589181/drv_usart.o
                0x9d06a354                DRV_USART_ClientStatus

.text.Console_UART_ReadC
                0x9d06a390       0x3c
 .text.Console_UART_ReadC
                0x9d06a390       0x3c build/e16_encx24j600_spiflash/production/_ext/1434663852/sys_console_uart.o
                0x9d06a390                Console_UART_ReadC

.text.SYS_DEBUG_Message
                0x9d06a3cc       0x3c
 .text.SYS_DEBUG_Message
                0x9d06a3cc       0x3c build/e16_encx24j600_spiflash/production/_ext/2137108136/sys_debug.o
                0x9d06a3cc                SYS_DEBUG_Message

.text.SYS_FS_MEDIA_MANAGER_AddressGet
                0x9d06a408       0x3c
 .text.SYS_FS_MEDIA_MANAGER_AddressGet
                0x9d06a408       0x3c build/e16_encx24j600_spiflash/production/_ext/1750042194/sys_fs_media_manager.o
                0x9d06a408                SYS_FS_MEDIA_MANAGER_AddressGet

.text._TCPIsGetReady
                0x9d06a444       0x3c
 .text._TCPIsGetReady
                0x9d06a444       0x3c build/e16_encx24j600_spiflash/production/_ext/1164207549/tcp.o

.text.TCPIP_TCP_ClientOpen
                0x9d06a480       0x3c
 .text.TCPIP_TCP_ClientOpen
                0x9d06a480       0x3c build/e16_encx24j600_spiflash/production/_ext/1164207549/tcp.o
                0x9d06a480                TCPIP_TCP_ClientOpen

.text.TCPIP_TCP_Disconnect
                0x9d06a4bc       0x3c
 .text.TCPIP_TCP_Disconnect
                0x9d06a4bc       0x3c build/e16_encx24j600_spiflash/production/_ext/1164207549/tcp.o
                0x9d06a4bc                TCPIP_TCP_Disconnect

.text._UDPTxPktValid
                0x9d06a4f8       0x3c
 .text._UDPTxPktValid
                0x9d06a4f8       0x3c build/e16_encx24j600_spiflash/production/_ext/1164207549/udp.o

.text._UDPFreeRxQueue
                0x9d06a534       0x3c
 .text._UDPFreeRxQueue
                0x9d06a534       0x3c build/e16_encx24j600_spiflash/production/_ext/1164207549/udp.o

.text._ARPTxAckFnc
                0x9d06a570       0x3c
 .text._ARPTxAckFnc
                0x9d06a570       0x3c build/e16_encx24j600_spiflash/production/_ext/1164207549/arp.o

.text.TCPIP_ARP_HashKeyHash
                0x9d06a5ac       0x3c
 .text.TCPIP_ARP_HashKeyHash
                0x9d06a5ac       0x3c build/e16_encx24j600_spiflash/production/_ext/1164207549/arp.o
                0x9d06a5ac                TCPIP_ARP_HashKeyHash

.text.TCPIP_DNS_IsResolved
                0x9d06a5e8       0x3c
 .text.TCPIP_DNS_IsResolved
                0x9d06a5e8       0x3c build/e16_encx24j600_spiflash/production/_ext/1164207549/dns.o
                0x9d06a5e8                TCPIP_DNS_IsResolved

.text.TCPIP_OAHASH_Initialize
                0x9d06a624       0x3c
 .text.TCPIP_OAHASH_Initialize
                0x9d06a624       0x3c build/e16_encx24j600_spiflash/production/_ext/1164207549/oahash.o
                0x9d06a624                TCPIP_OAHASH_Initialize

.text.TCPIP_Helper_SingleListHeadRemove
                0x9d06a660       0x3c
 .text.TCPIP_Helper_SingleListHeadRemove
                0x9d06a660       0x3c build/e16_encx24j600_spiflash/production/_ext/1164207549/tcpip_helpers.o
                0x9d06a660                TCPIP_Helper_SingleListHeadRemove

.text._TCPIPSignalEntryNotify
                0x9d06a69c       0x3c
 .text._TCPIPSignalEntryNotify
                0x9d06a69c       0x3c build/e16_encx24j600_spiflash/production/_ext/1164207549/tcpip_manager.o

.text._TCPIPStackSetConfigAddress
                0x9d06a6d8       0x3c
 .text._TCPIPStackSetConfigAddress
                0x9d06a6d8       0x3c build/e16_encx24j600_spiflash/production/_ext/1164207549/tcpip_manager.o
                0x9d06a6d8                _TCPIPStackSetConfigAddress

.text.TCPIP_STACK_Deinitialize
                0x9d06a714       0x3c
 .text.TCPIP_STACK_Deinitialize
                0x9d06a714       0x3c build/e16_encx24j600_spiflash/production/_ext/1164207549/tcpip_manager.o
                0x9d06a714                TCPIP_STACK_Deinitialize

.text._DHCPSUpdateEntry
                0x9d06a750       0x3c
 .text._DHCPSUpdateEntry
                0x9d06a750       0x3c build/e16_encx24j600_spiflash/production/_ext/1164207549/dhcps.o

.text.TCPIP_DHCPS_MACHashKeyHash
                0x9d06a78c       0x3c
 .text.TCPIP_DHCPS_MACHashKeyHash
                0x9d06a78c       0x3c build/e16_encx24j600_spiflash/production/_ext/1164207549/dhcps.o
                0x9d06a78c                TCPIP_DHCPS_MACHashKeyHash

.text.MakeMasterSecret
                0x9d06a7c8       0x3c
 .text.MakeMasterSecret
                0x9d06a7c8       0x3c build/e16_encx24j600_spiflash/production/_ext/615233400/keys.o
                0x9d06a7c8                MakeMasterSecret

.text.SYS_PORTS_PinSet
                0x9d06a804       0x38
 .text.SYS_PORTS_PinSet
                0x9d06a804       0x38 build/e16_encx24j600_spiflash/production/_ext/394705988/sys_ports_static.o
                0x9d06a804                SYS_PORTS_PinSet

.text.SYS_PORTS_PinClear
                0x9d06a83c       0x38
 .text.SYS_PORTS_PinClear
                0x9d06a83c       0x38 build/e16_encx24j600_spiflash/production/_ext/394705988/sys_ports_static.o
                0x9d06a83c                SYS_PORTS_PinClear

.text.BSP_LEDStateSet
                0x9d06a874       0x38
 .text.BSP_LEDStateSet
                0x9d06a874       0x38 build/e16_encx24j600_spiflash/production/_ext/728775826/bsp_sys_init.o
                0x9d06a874                BSP_LEDStateSet

.text.BSP_SwitchStateGet
                0x9d06a8ac       0x38
 .text.BSP_SwitchStateGet
                0x9d06a8ac       0x38 build/e16_encx24j600_spiflash/production/_ext/728775826/bsp_sys_init.o
                0x9d06a8ac                BSP_SwitchStateGet

.text.wolfSSL_Malloc
                0x9d06a8e4       0x38
 .text.wolfSSL_Malloc
                0x9d06a8e4       0x38 build/e16_encx24j600_spiflash/production/_ext/29024758/memory.o
                0x9d06a8e4                wolfSSL_Malloc

.text.wolfSSL_Free
                0x9d06a91c       0x38
 .text.wolfSSL_Free
                0x9d06a91c       0x38 build/e16_encx24j600_spiflash/production/_ext/29024758/memory.o
                0x9d06a91c                wolfSSL_Free

.text.fp_unsigned_bin_size
                0x9d06a954       0x38
 .text.fp_unsigned_bin_size
                0x9d06a954       0x38 build/e16_encx24j600_spiflash/production/_ext/29024758/tfm.o
                0x9d06a954                fp_unsigned_bin_size

.text.DRV_ENCX24J600_ClosedStateTask
                0x9d06a98c       0x38
 .text.DRV_ENCX24J600_ClosedStateTask
                0x9d06a98c       0x38 build/e16_encx24j600_spiflash/production/_ext/1455582699/drv_encx24j600_closed_state.o
                0x9d06a98c                DRV_ENCX24J600_ClosedStateTask

.rodata         0x9d06a9c4       0x38
 .rodata        0x9d06a9c4       0x38 build/e16_encx24j600_spiflash/production/_ext/1210338337/drv_encx24j600_rx_packet.o

.text.DRV_SST25VF016B_AddressGet
                0x9d06a9fc       0x38
 .text.DRV_SST25VF016B_AddressGet
                0x9d06a9fc       0x38 build/e16_encx24j600_spiflash/production/_ext/1112873152/drv_sst25vf016b.o
                0x9d06a9fc                DRV_SST25VF016B_AddressGet

.text.CommandReset
                0x9d06aa34       0x38
 .text.CommandReset
                0x9d06aa34       0x38 build/e16_encx24j600_spiflash/production/_ext/1891376032/sys_command.o

.text.SYS_FS_Unmount_Wrapper
                0x9d06aa6c       0x38
 .text.SYS_FS_Unmount_Wrapper
                0x9d06aa6c       0x38 build/e16_encx24j600_spiflash/production/_ext/1886247299/sys_fs_wrapper.o
                0x9d06aa6c                SYS_FS_Unmount_Wrapper

.text._TcpSocketChk
                0x9d06aaa4       0x38
 .text._TcpSocketChk
                0x9d06aaa4       0x38 build/e16_encx24j600_spiflash/production/_ext/1164207549/tcp.o

.text._UDPSocketDcpt
                0x9d06aadc       0x38
 .text._UDPSocketDcpt
                0x9d06aadc       0x38 build/e16_encx24j600_spiflash/production/_ext/1164207549/udp.o

.text._ARPAllocateTxPacket
                0x9d06ab14       0x38
 .text._ARPAllocateTxPacket
                0x9d06ab14       0x38 build/e16_encx24j600_spiflash/production/_ext/1164207549/arp.o

.text.TCPIP_DHCP_Enable
                0x9d06ab4c       0x38
 .text.TCPIP_DHCP_Enable
                0x9d06ab4c       0x38 build/e16_encx24j600_spiflash/production/_ext/1164207549/dhcp.o
                0x9d06ab4c                TCPIP_DHCP_Enable

.text.TCPIP_DHCP_Renew
                0x9d06ab84       0x38
 .text.TCPIP_DHCP_Renew
                0x9d06ab84       0x38 build/e16_encx24j600_spiflash/production/_ext/1164207549/dhcp.o
                0x9d06ab84                TCPIP_DHCP_Renew

.text.TCPIP_DHCP_Request
                0x9d06abbc       0x38
 .text.TCPIP_DHCP_Request
                0x9d06abbc       0x38 build/e16_encx24j600_spiflash/production/_ext/1164207549/dhcp.o
                0x9d06abbc                TCPIP_DHCP_Request

.text.TCPIP_STACK_AddressServiceDefaultSet
                0x9d06abf4       0x38
 .text.TCPIP_STACK_AddressServiceDefaultSet
                0x9d06abf4       0x38 build/e16_encx24j600_spiflash/production/_ext/1164207549/tcpip_manager.o
                0x9d06abf4                TCPIP_STACK_AddressServiceDefaultSet

.text.IsAtLeastTLSv1_2
                0x9d06ac2c       0x38
 .text.IsAtLeastTLSv1_2
                0x9d06ac2c       0x38 build/e16_encx24j600_spiflash/production/_ext/615233400/internal.o
                0x9d06ac2c                IsAtLeastTLSv1_2

.rodata         0x9d06ac64       0x38
 .rodata        0x9d06ac64       0x38 build/e16_encx24j600_spiflash/production/_ext/615233400/keys.o

.text.NET_PRES_EncProviderWrite0
                0x9d06ac9c       0x34
 .text.NET_PRES_EncProviderWrite0
                0x9d06ac9c       0x34 build/e16_encx24j600_spiflash/production/_ext/971131287/net_pres_enc_glue.o
                0x9d06ac9c                NET_PRES_EncProviderWrite0

.text.NET_PRES_EncProviderRead0
                0x9d06acd0       0x34
 .text.NET_PRES_EncProviderRead0
                0x9d06acd0       0x34 build/e16_encx24j600_spiflash/production/_ext/971131287/net_pres_enc_glue.o
                0x9d06acd0                NET_PRES_EncProviderRead0

.text.NET_PRES_EncProviderPeek0
                0x9d06ad04       0x34
 .text.NET_PRES_EncProviderPeek0
                0x9d06ad04       0x34 build/e16_encx24j600_spiflash/production/_ext/971131287/net_pres_enc_glue.o
                0x9d06ad04                NET_PRES_EncProviderPeek0

.text.CRYPT_MD5_Initialize
                0x9d06ad38       0x34
 .text.CRYPT_MD5_Initialize
                0x9d06ad38       0x34 build/e16_encx24j600_spiflash/production/_ext/29024758/crypto.o
                0x9d06ad38                CRYPT_MD5_Initialize

.text.DRV_ENCX24J600_SPI_SystemReset
                0x9d06ad6c       0x34
 .text.DRV_ENCX24J600_SPI_SystemReset
                0x9d06ad6c       0x34 build/e16_encx24j600_spiflash/production/_ext/2115314394/drv_encx24j600_spi_bus.o
                0x9d06ad6c                DRV_ENCX24J600_SPI_SystemReset

.text.DRV_ENCX24J600_SPI_EnableRX
                0x9d06ada0       0x34
 .text.DRV_ENCX24J600_SPI_EnableRX
                0x9d06ada0       0x34 build/e16_encx24j600_spiflash/production/_ext/2115314394/drv_encx24j600_spi_bus.o
                0x9d06ada0                DRV_ENCX24J600_SPI_EnableRX

.text.DRV_ENCX24J600_SPI_DisableRX
                0x9d06add4       0x34
 .text.DRV_ENCX24J600_SPI_DisableRX
                0x9d06add4       0x34 build/e16_encx24j600_spiflash/production/_ext/2115314394/drv_encx24j600_spi_bus.o
                0x9d06add4                DRV_ENCX24J600_SPI_DisableRX

.text.DRV_ENCX24J600_SPI_ReqPktTx
                0x9d06ae08       0x34
 .text.DRV_ENCX24J600_SPI_ReqPktTx
                0x9d06ae08       0x34 build/e16_encx24j600_spiflash/production/_ext/2115314394/drv_encx24j600_spi_bus.o
                0x9d06ae08                DRV_ENCX24J600_SPI_ReqPktTx

.text.DRV_ENCX24J600_SPI_DecrPktCtr
                0x9d06ae3c       0x34
 .text.DRV_ENCX24J600_SPI_DecrPktCtr
                0x9d06ae3c       0x34 build/e16_encx24j600_spiflash/production/_ext/2115314394/drv_encx24j600_spi_bus.o
                0x9d06ae3c                DRV_ENCX24J600_SPI_DecrPktCtr

.text.DRV_ENCX24J600_SPI_EnableInterrupts
                0x9d06ae70       0x34
 .text.DRV_ENCX24J600_SPI_EnableInterrupts
                0x9d06ae70       0x34 build/e16_encx24j600_spiflash/production/_ext/2115314394/drv_encx24j600_spi_bus.o
                0x9d06ae70                DRV_ENCX24J600_SPI_EnableInterrupts

.text.DRV_ENCX24J600_SPI_DisableInterrupts
                0x9d06aea4       0x34
 .text.DRV_ENCX24J600_SPI_DisableInterrupts
                0x9d06aea4       0x34 build/e16_encx24j600_spiflash/production/_ext/2115314394/drv_encx24j600_spi_bus.o
                0x9d06aea4                DRV_ENCX24J600_SPI_DisableInterrupts

.text.DRV_ENCX24J600_SPI_FlowCtrlDisable
                0x9d06aed8       0x34
 .text.DRV_ENCX24J600_SPI_FlowCtrlDisable
                0x9d06aed8       0x34 build/e16_encx24j600_spiflash/production/_ext/2115314394/drv_encx24j600_spi_bus.o
                0x9d06aed8                DRV_ENCX24J600_SPI_FlowCtrlDisable

.text.DRV_ENCX24J600_SPI_FlowCtrlSingle
                0x9d06af0c       0x34
 .text.DRV_ENCX24J600_SPI_FlowCtrlSingle
                0x9d06af0c       0x34 build/e16_encx24j600_spiflash/production/_ext/2115314394/drv_encx24j600_spi_bus.o
                0x9d06af0c                DRV_ENCX24J600_SPI_FlowCtrlSingle

.text.DRV_ENCX24J600_SPI_FlowCtrlMult
                0x9d06af40       0x34
 .text.DRV_ENCX24J600_SPI_FlowCtrlMult
                0x9d06af40       0x34 build/e16_encx24j600_spiflash/production/_ext/2115314394/drv_encx24j600_spi_bus.o
                0x9d06af40                DRV_ENCX24J600_SPI_FlowCtrlMult

.text.DRV_ENCX24J600_SPI_FlowCtrClear
                0x9d06af74       0x34
 .text.DRV_ENCX24J600_SPI_FlowCtrClear
                0x9d06af74       0x34 build/e16_encx24j600_spiflash/production/_ext/2115314394/drv_encx24j600_spi_bus.o
                0x9d06af74                DRV_ENCX24J600_SPI_FlowCtrClear

.text.DRV_ENCX24J600_Tasks
                0x9d06afa8       0x34
 .text.DRV_ENCX24J600_Tasks
                0x9d06afa8       0x34 build/e16_encx24j600_spiflash/production/_ext/772120936/drv_encx24j600_api.o
                0x9d06afa8                DRV_ENCX24J600_Tasks

.text.DRV_ENCX24J600_EventMaskSet
                0x9d06afdc       0x34
 .text.DRV_ENCX24J600_EventMaskSet
                0x9d06afdc       0x34 build/e16_encx24j600_spiflash/production/_ext/772120936/drv_encx24j600_api.o
                0x9d06afdc                DRV_ENCX24J600_EventMaskSet

.text.DRV_SPI_BufferAddWriteRead
                0x9d06b010       0x34
 .text.DRV_SPI_BufferAddWriteRead
                0x9d06b010       0x34 build/e16_encx24j600_spiflash/production/_ext/1324760662/drv_spi.o
                0x9d06b010                DRV_SPI_BufferAddWriteRead

.text.SYS_CMDIO_GET_HANDLE
                0x9d06b044       0x34
 .text.SYS_CMDIO_GET_HANDLE
                0x9d06b044       0x34 build/e16_encx24j600_spiflash/production/_ext/1891376032/sys_command.o
                0x9d06b044                SYS_CMDIO_GET_HANDLE

.text.MPFS_Unmount
                0x9d06b078       0x34
 .text.MPFS_Unmount
                0x9d06b078       0x34 build/e16_encx24j600_spiflash/production/_ext/614935175/mpfs.o
                0x9d06b078                MPFS_Unmount

.text.MPFSClose
                0x9d06b0ac       0x34
 .text.MPFSClose
                0x9d06b0ac       0x34 build/e16_encx24j600_spiflash/production/_ext/614935175/mpfs.o
                0x9d06b0ac                MPFSClose

.text.TCPIP_TCP_GetIsReady
                0x9d06b0e0       0x34
 .text.TCPIP_TCP_GetIsReady
                0x9d06b0e0       0x34 build/e16_encx24j600_spiflash/production/_ext/1164207549/tcp.o
                0x9d06b0e0                TCPIP_TCP_GetIsReady

.text._UDPUpdatePacketLock
                0x9d06b114       0x34
 .text._UDPUpdatePacketLock
                0x9d06b114       0x34 build/e16_encx24j600_spiflash/production/_ext/1164207549/udp.o

.text._SMTPSocketRxSignalHandler
                0x9d06b148       0x34
 .text._SMTPSocketRxSignalHandler
                0x9d06b148       0x34 build/e16_encx24j600_spiflash/production/_ext/1164207549/smtp.o

.text.TCPIP_STACK_IndexToNet
                0x9d06b17c       0x34
 .text.TCPIP_STACK_IndexToNet
                0x9d06b17c       0x34 build/e16_encx24j600_spiflash/production/_ext/1164207549/tcpip_manager.o
                0x9d06b17c                TCPIP_STACK_IndexToNet

.text.TCPIP_STACK_NetAddressBcast
                0x9d06b1b0       0x34
 .text.TCPIP_STACK_NetAddressBcast
                0x9d06b1b0       0x34 build/e16_encx24j600_spiflash/production/_ext/1164207549/tcpip_manager.o
                0x9d06b1b0                TCPIP_STACK_NetAddressBcast

.text.TCPIP_STACK_DNSServiceSelect
                0x9d06b1e4       0x34
 .text.TCPIP_STACK_DNSServiceSelect
                0x9d06b1e4       0x34 build/e16_encx24j600_spiflash/production/_ext/1164207549/tcpip_manager.o
                0x9d06b1e4                TCPIP_STACK_DNSServiceSelect

.text.TCPIP_STACK_NetAddress
                0x9d06b218       0x34
 .text.TCPIP_STACK_NetAddress
                0x9d06b218       0x34 build/e16_encx24j600_spiflash/production/_ext/1164207549/tcpip_manager.o
                0x9d06b218                TCPIP_STACK_NetAddress

.text._TCPIPStackHandleToNetLinked
                0x9d06b24c       0x34
 .text._TCPIPStackHandleToNetLinked
                0x9d06b24c       0x34 build/e16_encx24j600_spiflash/production/_ext/1164207549/tcpip_manager.o
                0x9d06b24c                _TCPIPStackHandleToNetLinked

.text.TCPIP_STACK_NetIsReady
                0x9d06b280       0x34
 .text.TCPIP_STACK_NetIsReady
                0x9d06b280       0x34 build/e16_encx24j600_spiflash/production/_ext/1164207549/tcpip_manager.o
                0x9d06b280                TCPIP_STACK_NetIsReady

.text.TCPIP_DHCPS_GetDataFromUDPBuff
                0x9d06b2b4       0x34
 .text.TCPIP_DHCPS_GetDataFromUDPBuff
                0x9d06b2b4       0x34 build/e16_encx24j600_spiflash/production/_ext/1164207549/dhcps.o

.text.DtlsMsgFind
                0x9d06b2e8       0x34
 .text.DtlsMsgFind
                0x9d06b2e8       0x34 build/e16_encx24j600_spiflash/production/_ext/615233400/internal.o
                0x9d06b2e8                DtlsMsgFind

.text.LowResTimer
                0x9d06b31c       0x34
 .text.LowResTimer
                0x9d06b31c       0x34 build/e16_encx24j600_spiflash/production/_ext/615233400/internal.o
                0x9d06b31c                LowResTimer

.text.NET_PRES_CertStoreGetServerCert
                0x9d06b350       0x30
 .text.NET_PRES_CertStoreGetServerCert
                0x9d06b350       0x30 build/e16_encx24j600_spiflash/production/_ext/971131287/net_pres_cert_store.o
                0x9d06b350                NET_PRES_CertStoreGetServerCert

.text.wc_ecc_is_valid_idx
                0x9d06b380       0x30
 .text.wc_ecc_is_valid_idx
                0x9d06b380       0x30 build/e16_encx24j600_spiflash/production/_ext/29024758/ecc.o
                0x9d06b380                wc_ecc_is_valid_idx

.text.mp_init   0x9d06b3b0       0x30
 .text.mp_init  0x9d06b3b0       0x30 build/e16_encx24j600_spiflash/production/_ext/29024758/tfm.o
                0x9d06b3b0                mp_init

.text.DRV_ENCX24J600_RxPacketEnter
                0x9d06b3e0       0x30
 .text.DRV_ENCX24J600_RxPacketEnter
                0x9d06b3e0       0x30 build/e16_encx24j600_spiflash/production/_ext/1210338337/drv_encx24j600_rx_packet.o
                0x9d06b3e0                DRV_ENCX24J600_RxPacketEnter

.text.popQueue  0x9d06b410       0x30
 .text.popQueue
                0x9d06b410       0x30 build/e16_encx24j600_spiflash/production/_ext/1434663852/sys_console_uart.o

.text.SYS_DEBUG_Initialize
                0x9d06b440       0x30
 .text.SYS_DEBUG_Initialize
                0x9d06b440       0x30 build/e16_encx24j600_spiflash/production/_ext/2137108136/sys_debug.o
                0x9d06b440                SYS_DEBUG_Initialize

.rodata         0x9d06b470       0x30
 .rodata        0x9d06b470       0x30 build/e16_encx24j600_spiflash/production/_ext/1750042194/sys_fs_media_manager.o
                0x9d06b480                gPartitionTypeOffset

.text._DHCPSocketRxSignalHandler
                0x9d06b4a0       0x30
 .text._DHCPSocketRxSignalHandler
                0x9d06b4a0       0x30 build/e16_encx24j600_spiflash/production/_ext/1164207549/dhcp.o

.text.TCPIP_DHCP_IsActive
                0x9d06b4d0       0x30
 .text.TCPIP_DHCP_IsActive
                0x9d06b4d0       0x30 build/e16_encx24j600_spiflash/production/_ext/1164207549/dhcp.o
                0x9d06b4d0                TCPIP_DHCP_IsActive

.text._DNSSocketRxSignalHandler
                0x9d06b500       0x30
 .text._DNSSocketRxSignalHandler
                0x9d06b500       0x30 build/e16_encx24j600_spiflash/production/_ext/1164207549/dns.o

.text._HTTPSocketRxSignalHandler
                0x9d06b530       0x30
 .text._HTTPSocketRxSignalHandler
                0x9d06b530       0x30 build/e16_encx24j600_spiflash/production/_ext/1164207549/http.o

.text.NBNSSocketRxSignalHandler
                0x9d06b560       0x30
 .text.NBNSSocketRxSignalHandler
                0x9d06b560       0x30 build/e16_encx24j600_spiflash/production/_ext/1164207549/nbns.o

.text.TCPIP_SMTP_StringPut
                0x9d06b590       0x30
 .text.TCPIP_SMTP_StringPut
                0x9d06b590       0x30 build/e16_encx24j600_spiflash/production/_ext/1164207549/smtp.o
                0x9d06b590                TCPIP_SMTP_StringPut

.text._TCPIP_AnnounceSocketRxSignalHandler
                0x9d06b5c0       0x30
 .text._TCPIP_AnnounceSocketRxSignalHandler
                0x9d06b5c0       0x30 build/e16_encx24j600_spiflash/production/_ext/1164207549/tcpip_announce.o

.text.TCPIP_OAHASH_EntryRemove
                0x9d06b5f0       0x30
 .text.TCPIP_OAHASH_EntryRemove
                0x9d06b5f0       0x30 build/e16_encx24j600_spiflash/production/_ext/1164207549/oahash.o
                0x9d06b5f0                TCPIP_OAHASH_EntryRemove

.text.TCPIP_Helper_SingleListTailAdd
                0x9d06b620       0x30
 .text.TCPIP_Helper_SingleListTailAdd
                0x9d06b620       0x30 build/e16_encx24j600_spiflash/production/_ext/1164207549/tcpip_helpers.o
                0x9d06b620                TCPIP_Helper_SingleListTailAdd

.text.TCPIP_Helper_TCPSecurePortGet
                0x9d06b650       0x30
 .text.TCPIP_Helper_TCPSecurePortGet
                0x9d06b650       0x30 build/e16_encx24j600_spiflash/production/_ext/1164207549/tcpip_helpers.o
                0x9d06b650                TCPIP_Helper_TCPSecurePortGet

.text.TCPIP_Helper_UDPSecurePortGet
                0x9d06b680       0x30
 .text.TCPIP_Helper_UDPSecurePortGet
                0x9d06b680       0x30 build/e16_encx24j600_spiflash/production/_ext/1164207549/tcpip_helpers.o
                0x9d06b680                TCPIP_Helper_UDPSecurePortGet

.text.TCPIP_STACK_NetAddressGatewaySet
                0x9d06b6b0       0x30
 .text.TCPIP_STACK_NetAddressGatewaySet
                0x9d06b6b0       0x30 build/e16_encx24j600_spiflash/production/_ext/1164207549/tcpip_manager.o
                0x9d06b6b0                TCPIP_STACK_NetAddressGatewaySet

.text.TCPIP_STACK_NetAddressGet
                0x9d06b6e0       0x30
 .text.TCPIP_STACK_NetAddressGet
                0x9d06b6e0       0x30 build/e16_encx24j600_spiflash/production/_ext/1164207549/tcpip_manager.o
                0x9d06b6e0                TCPIP_STACK_NetAddressGet

.text.TCPIP_STACK_NetMaskGet
                0x9d06b710       0x30
 .text.TCPIP_STACK_NetMaskGet
                0x9d06b710       0x30 build/e16_encx24j600_spiflash/production/_ext/1164207549/tcpip_manager.o
                0x9d06b710                TCPIP_STACK_NetMaskGet

.text.TCPIP_STACK_NetworkIsLinked
                0x9d06b740       0x30
 .text.TCPIP_STACK_NetworkIsLinked
                0x9d06b740       0x30 build/e16_encx24j600_spiflash/production/_ext/1164207549/tcpip_manager.o
                0x9d06b740                TCPIP_STACK_NetworkIsLinked

.text._TCPIPStackModuleRxExtract
                0x9d06b770       0x30
 .text._TCPIPStackModuleRxExtract
                0x9d06b770       0x30 build/e16_encx24j600_spiflash/production/_ext/1164207549/tcpip_manager.o
                0x9d06b770                _TCPIPStackModuleRxExtract

.rodata         0x9d06b7a0       0x30
 .rodata        0x9d06b7a0       0x30 build/e16_encx24j600_spiflash/production/_ext/1164207549/ipv4.o

.text.TCPIP_SNTP_SocketRxSignalHandler
                0x9d06b7d0       0x30
 .text.TCPIP_SNTP_SocketRxSignalHandler
                0x9d06b7d0       0x30 build/e16_encx24j600_spiflash/production/_ext/1164207549/sntp.o

.text._TCPIP_HEAP_FreeSize
                0x9d06b800       0x30
 .text._TCPIP_HEAP_FreeSize
                0x9d06b800       0x30 build/e16_encx24j600_spiflash/production/_ext/1164207549/tcpip_heap_internal.o

.text.TCPIP_ICMP_Cleanup
                0x9d06b830       0x30
 .text.TCPIP_ICMP_Cleanup
                0x9d06b830       0x30 build/e16_encx24j600_spiflash/production/_ext/1164207549/icmp.o

.text.TCPIP_DHCPSSocketRxSignalHandler
                0x9d06b860       0x30
 .text.TCPIP_DHCPSSocketRxSignalHandler
                0x9d06b860       0x30 build/e16_encx24j600_spiflash/production/_ext/1164207549/dhcps.o

.text._DDNSSocketRxSignalHandler
                0x9d06b890       0x30
 .text._DDNSSocketRxSignalHandler
                0x9d06b890       0x30 build/e16_encx24j600_spiflash/production/_ext/1164207549/ddns.o

.text.TCPIP_DDNS_UpdateForce
                0x9d06b8c0       0x30
 .text.TCPIP_DDNS_UpdateForce
                0x9d06b8c0       0x30 build/e16_encx24j600_spiflash/production/_ext/1164207549/ddns.o
                0x9d06b8c0                TCPIP_DDNS_UpdateForce

.text.InitCipherSpecs
                0x9d06b8f0       0x30
 .text.InitCipherSpecs
                0x9d06b8f0       0x30 build/e16_encx24j600_spiflash/production/_ext/615233400/internal.o
                0x9d06b8f0                InitCipherSpecs

.text.free      0x9d06b920       0x30
 .text.free     0x9d06b920       0x30 c:/program files (x86)/microchip/xc32/v1.42/bin/bin/../../lib/gcc/pic32mx/4.8.3/../../../../pic32mx/lib\libc.a(malloc.o)
                0x9d06b920                free

.text.NET_PRES_EncProviderConnectionClose0
                0x9d06b950       0x2c
 .text.NET_PRES_EncProviderConnectionClose0
                0x9d06b950       0x2c build/e16_encx24j600_spiflash/production/_ext/971131287/net_pres_enc_glue.o
                0x9d06b950                NET_PRES_EncProviderConnectionClose0

.text.TCPIP_HTTP_Print_version
                0x9d06b97c       0x2c
 .text.TCPIP_HTTP_Print_version
                0x9d06b97c       0x2c build/e16_encx24j600_spiflash/production/_ext/1360937237/custom_http_app.o
                0x9d06b97c                TCPIP_HTTP_Print_version

.text.TCPIP_HTTP_Print_drive
                0x9d06b9a8       0x2c
 .text.TCPIP_HTTP_Print_drive
                0x9d06b9a8       0x2c build/e16_encx24j600_spiflash/production/_ext/1360937237/custom_http_app.o
                0x9d06b9a8                TCPIP_HTTP_Print_drive

.text.TCPIP_HTTP_Print_fstype
                0x9d06b9d4       0x2c
 .text.TCPIP_HTTP_Print_fstype
                0x9d06b9d4       0x2c build/e16_encx24j600_spiflash/production/_ext/1360937237/custom_http_app.o
                0x9d06b9d4                TCPIP_HTTP_Print_fstype

.text.TCPIP_HTTP_Print_smtps_en
                0x9d06ba00       0x2c
 .text.TCPIP_HTTP_Print_smtps_en
                0x9d06ba00       0x2c build/e16_encx24j600_spiflash/production/_ext/1360937237/custom_http_app.o
                0x9d06ba00                TCPIP_HTTP_Print_smtps_en

.text.TCPIP_HTTP_Print_snmp_en
                0x9d06ba2c       0x2c
 .text.TCPIP_HTTP_Print_snmp_en
                0x9d06ba2c       0x2c build/e16_encx24j600_spiflash/production/_ext/1360937237/custom_http_app.o
                0x9d06ba2c                TCPIP_HTTP_Print_snmp_en

.text.DRV_USART_BufferEventHandlerSet
                0x9d06ba58       0x2c
 .text.DRV_USART_BufferEventHandlerSet
                0x9d06ba58       0x2c build/e16_encx24j600_spiflash/production/_ext/821589181/drv_usart_buffer_queue.o
                0x9d06ba58                DRV_USART_BufferEventHandlerSet

.text.MPFS_Read
                0x9d06ba84       0x2c
 .text.MPFS_Read
                0x9d06ba84       0x2c build/e16_encx24j600_spiflash/production/_ext/614935175/mpfs.o
                0x9d06ba84                MPFS_Read

.text.TCPIP_OAHASH_EntryGet
                0x9d06bab0       0x2c
 .text.TCPIP_OAHASH_EntryGet
                0x9d06bab0       0x2c build/e16_encx24j600_spiflash/production/_ext/1164207549/oahash.o
                0x9d06bab0                TCPIP_OAHASH_EntryGet

.text.TCPIP_STACK_NetDefaultSet
                0x9d06badc       0x2c
 .text.TCPIP_STACK_NetDefaultSet
                0x9d06badc       0x2c build/e16_encx24j600_spiflash/production/_ext/1164207549/tcpip_manager.o
                0x9d06badc                TCPIP_STACK_NetDefaultSet

.text.TCPIP_STACK_NetNameGet
                0x9d06bb08       0x2c
 .text.TCPIP_STACK_NetNameGet
                0x9d06bb08       0x2c build/e16_encx24j600_spiflash/production/_ext/1164207549/tcpip_manager.o
                0x9d06bb08                TCPIP_STACK_NetNameGet

.text.TCPIP_STACK_NetAddressDnsPrimarySet
                0x9d06bb34       0x2c
 .text.TCPIP_STACK_NetAddressDnsPrimarySet
                0x9d06bb34       0x2c build/e16_encx24j600_spiflash/production/_ext/1164207549/tcpip_manager.o
                0x9d06bb34                TCPIP_STACK_NetAddressDnsPrimarySet

.text.TCPIP_Notification_Deinitialize
                0x9d06bb60       0x2c
 .text.TCPIP_Notification_Deinitialize
                0x9d06bb60       0x2c build/e16_encx24j600_spiflash/production/_ext/1164207549/tcpip_notify.o
                0x9d06bb60                TCPIP_Notification_Deinitialize

.text._DHCPSRemoveCacheEntries
                0x9d06bb8c       0x2c
 .text._DHCPSRemoveCacheEntries
                0x9d06bb8c       0x2c build/e16_encx24j600_spiflash/production/_ext/1164207549/dhcps.o

.text.InitCiphers
                0x9d06bbb8       0x2c
 .text.InitCiphers
                0x9d06bbb8       0x2c build/e16_encx24j600_spiflash/production/_ext/615233400/internal.o
                0x9d06bbb8                InitCiphers

.text.DtlsPoolTimeout
                0x9d06bbe4       0x2c
 .text.DtlsPoolTimeout
                0x9d06bbe4       0x2c build/e16_encx24j600_spiflash/production/_ext/615233400/internal.o
                0x9d06bbe4                DtlsPoolTimeout

.text.wolfSSL_CTX_use_PrivateKey_buffer
                0x9d06bc10       0x2c
 .text.wolfSSL_CTX_use_PrivateKey_buffer
                0x9d06bc10       0x2c build/e16_encx24j600_spiflash/production/_ext/615233400/ssl.o
                0x9d06bc10                wolfSSL_CTX_use_PrivateKey_buffer

.text.strchr    0x9d06bc3c       0x2c
 .text.strchr   0x9d06bc3c       0x2c c:/program files (x86)/microchip/xc32/v1.42/bin/bin/../../lib/gcc/pic32mx/4.8.3/../../../../pic32mx/lib\libc.a(strchr.o)
                0x9d06bc3c                strchr

.text._stub_sbd_memlayout
                0x9d06bc68       0x2c
 .text._stub_sbd_memlayout
                0x9d06bc68       0x2c c:/program files (x86)/microchip/xc32/v1.42/bin/bin/../../lib/gcc/pic32mx/4.8.3/../../../../pic32mx/lib\libpic32.a(sbrk.o)
                0x9d06bc68                _sbd_memlayout
                0x9d06bc68                _stub_sbd_memlayout

.text.TCPIP_HTTP_Print_myVariable
                0x9d06bc94       0x28
 .text.TCPIP_HTTP_Print_myVariable
                0x9d06bc94       0x28 build/e16_encx24j600_spiflash/production/_ext/1360937237/http_print.o
                0x9d06bc94                TCPIP_HTTP_Print_myVariable

.text.wc_ecc_sig_size
                0x9d06bcbc       0x28
 .text.wc_ecc_sig_size
                0x9d06bcbc       0x28 build/e16_encx24j600_spiflash/production/_ext/29024758/ecc.o
                0x9d06bcbc                wc_ecc_sig_size

.text.SetSequence
                0x9d06bce4       0x28
 .text.SetSequence
                0x9d06bce4       0x28 build/e16_encx24j600_spiflash/production/_ext/29024758/asn.o
                0x9d06bce4                SetSequence

.text.DRV_ENCX24J600_RxPacketAck
                0x9d06bd0c       0x28
 .text.DRV_ENCX24J600_RxPacketAck
                0x9d06bd0c       0x28 build/e16_encx24j600_spiflash/production/_ext/1210338337/drv_encx24j600_rx_packet.o
                0x9d06bd0c                DRV_ENCX24J600_RxPacketAck

.text.DRV_ENCX24J600_LinkCheck
                0x9d06bd34       0x28
 .text.DRV_ENCX24J600_LinkCheck
                0x9d06bd34       0x28 build/e16_encx24j600_spiflash/production/_ext/772120936/drv_encx24j600_api.o
                0x9d06bd34                DRV_ENCX24J600_LinkCheck

.text.DRV_ENCX24J600_EventPendingGet
                0x9d06bd5c       0x28
 .text.DRV_ENCX24J600_EventPendingGet
                0x9d06bd5c       0x28 build/e16_encx24j600_spiflash/production/_ext/772120936/drv_encx24j600_api.o
                0x9d06bd5c                DRV_ENCX24J600_EventPendingGet

.text._DRV_SPI_RootDriverDeinitialization
                0x9d06bd84       0x28
 .text._DRV_SPI_RootDriverDeinitialization
                0x9d06bd84       0x28 build/e16_encx24j600_spiflash/production/_ext/1324760662/drv_spi.o

.text._DRV_SST25VF016B_DriverHandleValidate
                0x9d06bdac       0x28
 .text._DRV_SST25VF016B_DriverHandleValidate
                0x9d06bdac       0x28 build/e16_encx24j600_spiflash/production/_ext/1112873152/drv_sst25vf016b.o
                0x9d06bdac                _DRV_SST25VF016B_DriverHandleValidate

.text._DRV_USART_DriverHandleValidate
                0x9d06bdd4       0x28
 .text._DRV_USART_DriverHandleValidate
                0x9d06bdd4       0x28 build/e16_encx24j600_spiflash/production/_ext/821589181/drv_usart.o
                0x9d06bdd4                _DRV_USART_DriverHandleValidate

.text.Console_UART_RegisterCallback
                0x9d06bdfc       0x28
 .text.Console_UART_RegisterCallback
                0x9d06bdfc       0x28 build/e16_encx24j600_spiflash/production/_ext/1434663852/sys_console_uart.o
                0x9d06bdfc                Console_UART_RegisterCallback

.text.SYS_TMR_TickCountGet
                0x9d06be24       0x28
 .text.SYS_TMR_TickCountGet
                0x9d06be24       0x28 build/e16_encx24j600_spiflash/production/_ext/2110151058/sys_tmr.o
                0x9d06be24                SYS_TMR_TickCountGet

.text.TCPIP_TCP_Put
                0x9d06be4c       0x28
 .text.TCPIP_TCP_Put
                0x9d06be4c       0x28 build/e16_encx24j600_spiflash/production/_ext/1164207549/tcp.o
                0x9d06be4c                TCPIP_TCP_Put

.text.TCPIP_TCP_SocketNetGet
                0x9d06be74       0x28
 .text.TCPIP_TCP_SocketNetGet
                0x9d06be74       0x28 build/e16_encx24j600_spiflash/production/_ext/1164207549/tcp.o
                0x9d06be74                TCPIP_TCP_SocketNetGet

.text.TCPIP_UDP_Put
                0x9d06be9c       0x28
 .text.TCPIP_UDP_Put
                0x9d06be9c       0x28 build/e16_encx24j600_spiflash/production/_ext/1164207549/udp.o
                0x9d06be9c                TCPIP_UDP_Put

.text.TCPIP_UDP_SocketNetGet
                0x9d06bec4       0x28
 .text.TCPIP_UDP_SocketNetGet
                0x9d06bec4       0x28 build/e16_encx24j600_spiflash/production/_ext/1164207549/udp.o
                0x9d06bec4                TCPIP_UDP_SocketNetGet

.text.TCPIP_STACK_NetAddressGateway
                0x9d06beec       0x28
 .text.TCPIP_STACK_NetAddressGateway
                0x9d06beec       0x28 build/e16_encx24j600_spiflash/production/_ext/1164207549/tcpip_manager.o
                0x9d06beec                TCPIP_STACK_NetAddressGateway

.text.TCPIP_STACK_NetAddressDnsPrimary
                0x9d06bf14       0x28
 .text.TCPIP_STACK_NetAddressDnsPrimary
                0x9d06bf14       0x28 build/e16_encx24j600_spiflash/production/_ext/1164207549/tcpip_manager.o
                0x9d06bf14                TCPIP_STACK_NetAddressDnsPrimary

.text.TCPIP_STACK_NetAddressDnsSecond
                0x9d06bf3c       0x28
 .text.TCPIP_STACK_NetAddressDnsSecond
                0x9d06bf3c       0x28 build/e16_encx24j600_spiflash/production/_ext/1164207549/tcpip_manager.o
                0x9d06bf3c                TCPIP_STACK_NetAddressDnsSecond

.text.TCPIP_STACK_NetMACAddressGet
                0x9d06bf64       0x28
 .text.TCPIP_STACK_NetMACAddressGet
                0x9d06bf64       0x28 build/e16_encx24j600_spiflash/production/_ext/1164207549/tcpip_manager.o
                0x9d06bf64                TCPIP_STACK_NetMACAddressGet

.text._TCPIPStackSignalHandlerDeregister
                0x9d06bf8c       0x28
 .text._TCPIPStackSignalHandlerDeregister
                0x9d06bf8c       0x28 build/e16_encx24j600_spiflash/production/_ext/1164207549/tcpip_manager.o
                0x9d06bf8c                _TCPIPStackSignalHandlerDeregister

.text._TCPIP_HEAP_Size
                0x9d06bfb4       0x28
 .text._TCPIP_HEAP_Size
                0x9d06bfb4       0x28 build/e16_encx24j600_spiflash/production/_ext/1164207549/tcpip_heap_internal.o

.text._TCPIP_HEAP_LastError
                0x9d06bfdc       0x28
 .text._TCPIP_HEAP_LastError
                0x9d06bfdc       0x28 build/e16_encx24j600_spiflash/production/_ext/1164207549/tcpip_heap_internal.o

.text.TCPIP_DHCPS_HashMACKeyCopy
                0x9d06c004       0x28
 .text.TCPIP_DHCPS_HashMACKeyCopy
                0x9d06c004       0x28 build/e16_encx24j600_spiflash/production/_ext/1164207549/dhcps.o
                0x9d06c004                TCPIP_DHCPS_HashMACKeyCopy

.text.wolfSSL_CTX_free
                0x9d06c02c       0x28
 .text.wolfSSL_CTX_free
                0x9d06c02c       0x28 build/e16_encx24j600_spiflash/production/_ext/615233400/ssl.o
                0x9d06c02c                wolfSSL_CTX_free

.text.wolfSSL_free
                0x9d06c054       0x28
 .text.wolfSSL_free
                0x9d06c054       0x28 build/e16_encx24j600_spiflash/production/_ext/615233400/ssl.o
                0x9d06c054                wolfSSL_free

.text.wolfSSL_CTX_use_certificate_buffer
                0x9d06c07c       0x28
 .text.wolfSSL_CTX_use_certificate_buffer
                0x9d06c07c       0x28 build/e16_encx24j600_spiflash/production/_ext/615233400/ssl.o
                0x9d06c07c                wolfSSL_CTX_use_certificate_buffer

.text.isinfl    0x9d06c0a4       0x28
 .text.isinfl   0x9d06c0a4       0x28 c:/program files (x86)/microchip/xc32/v1.42/bin/bin/../../lib/gcc/pic32mx/4.8.3/../../../../pic32mx/lib\libpic32.a(isinf.o)
                0x9d06c0a4                isinfl

.text.DRV_SPI_BufferAddRead
                0x9d06c0cc       0x24
 .text.DRV_SPI_BufferAddRead
                0x9d06c0cc       0x24 build/e16_encx24j600_spiflash/production/_ext/1324760662/drv_spi.o
                0x9d06c0cc                DRV_SPI_BufferAddRead

.text.DRV_SPI_BufferAddWrite
                0x9d06c0f0       0x24
 .text.DRV_SPI_BufferAddWrite
                0x9d06c0f0       0x24 build/e16_encx24j600_spiflash/production/_ext/1324760662/drv_spi.o
                0x9d06c0f0                DRV_SPI_BufferAddWrite

.text.SYS_TMR_TickCounterFrequencyGet
                0x9d06c114       0x24
 .text.SYS_TMR_TickCounterFrequencyGet
                0x9d06c114       0x24 build/e16_encx24j600_spiflash/production/_ext/2110151058/sys_tmr.o
                0x9d06c114                SYS_TMR_TickCounterFrequencyGet

.text.SYS_TMR_SystemCountFrequencyGet
                0x9d06c138       0x24
 .text.SYS_TMR_SystemCountFrequencyGet
                0x9d06c138       0x24 build/e16_encx24j600_spiflash/production/_ext/2110151058/sys_tmr.o
                0x9d06c138                SYS_TMR_SystemCountFrequencyGet

.text._TCP_TxPktValid
                0x9d06c15c       0x24
 .text._TCP_TxPktValid
                0x9d06c15c       0x24 build/e16_encx24j600_spiflash/production/_ext/1164207549/tcp.o

.text._DHCPOptionWriteEnd
                0x9d06c180       0x24
 .text._DHCPOptionWriteEnd
                0x9d06c180       0x24 build/e16_encx24j600_spiflash/production/_ext/1164207549/dhcp.o

.text._TCPIPSignalEntrySetNotify
                0x9d06c1a4       0x24
 .text._TCPIPSignalEntrySetNotify
                0x9d06c1a4       0x24 build/e16_encx24j600_spiflash/production/_ext/1164207549/tcpip_manager.o

.text.TCPIP_DHCPS_DataCopyToProcessBuffer
                0x9d06c1c8       0x24
 .text.TCPIP_DHCPS_DataCopyToProcessBuffer
                0x9d06c1c8       0x24 build/e16_encx24j600_spiflash/production/_ext/1164207549/dhcps.o

.text.TCPIP_DHCPS_HashMACKeyCompare
                0x9d06c1ec       0x24
 .text.TCPIP_DHCPS_HashMACKeyCompare
                0x9d06c1ec       0x24 build/e16_encx24j600_spiflash/production/_ext/1164207549/dhcps.o
                0x9d06c1ec                TCPIP_DHCPS_HashMACKeyCompare

.text.TCPIP_DHCPS_IsEnabled
                0x9d06c210       0x24
 .text.TCPIP_DHCPS_IsEnabled
                0x9d06c210       0x24 build/e16_encx24j600_spiflash/production/_ext/1164207549/dhcps.o
                0x9d06c210                TCPIP_DHCPS_IsEnabled

.text.tolower   0x9d06c234       0x24
 .text.tolower  0x9d06c234       0x24 c:/program files (x86)/microchip/xc32/v1.42/bin/bin/../../lib/gcc/pic32mx/4.8.3/../../../../pic32mx/lib\libc.a(ctypef.o)
                0x9d06c234                tolower

.text.toupper   0x9d06c258       0x24
 .text.toupper  0x9d06c258       0x24 c:/program files (x86)/microchip/xc32/v1.42/bin/bin/../../lib/gcc/pic32mx/4.8.3/../../../../pic32mx/lib\libc.a(ctypef.o)
                0x9d06c258                toupper

.text.main      0x9d06c27c       0x20
 .text.main     0x9d06c27c       0x20 build/e16_encx24j600_spiflash/production/_ext/1360937237/main.o
                0x9d06c27c                main

.rodata         0x9d06c29c       0x20
 .rodata        0x9d06c29c       0x20 build/e16_encx24j600_spiflash/production/_ext/1360937237/http_print.o

.text.BSP_LEDStateGet
                0x9d06c2bc       0x20
 .text.BSP_LEDStateGet
                0x9d06c2bc       0x20 build/e16_encx24j600_spiflash/production/_ext/728775826/bsp_sys_init.o
                0x9d06c2bc                BSP_LEDStateGet

.text.mp_add    0x9d06c2dc       0x20
 .text.mp_add   0x9d06c2dc       0x20 build/e16_encx24j600_spiflash/production/_ext/29024758/tfm.o
                0x9d06c2dc                mp_add

.text.mp_sub    0x9d06c2fc       0x20
 .text.mp_sub   0x9d06c2fc       0x20 build/e16_encx24j600_spiflash/production/_ext/29024758/tfm.o
                0x9d06c2fc                mp_sub

.text.mp_mul    0x9d06c31c       0x20
 .text.mp_mul   0x9d06c31c       0x20 build/e16_encx24j600_spiflash/production/_ext/29024758/tfm.o
                0x9d06c31c                mp_mul

.text.mp_to_unsigned_bin
                0x9d06c33c       0x20
 .text.mp_to_unsigned_bin
                0x9d06c33c       0x20 build/e16_encx24j600_spiflash/production/_ext/29024758/tfm.o
                0x9d06c33c                mp_to_unsigned_bin

.text.mp_read_unsigned_bin
                0x9d06c35c       0x20
 .text.mp_read_unsigned_bin
                0x9d06c35c       0x20 build/e16_encx24j600_spiflash/production/_ext/29024758/tfm.o
                0x9d06c35c                mp_read_unsigned_bin

.text.mp_montgomery_calc_normalization
                0x9d06c37c       0x20
 .text.mp_montgomery_calc_normalization
                0x9d06c37c       0x20 build/e16_encx24j600_spiflash/production/_ext/29024758/tfm.o
                0x9d06c37c                mp_montgomery_calc_normalization

.text.mp_sqr    0x9d06c39c       0x20
 .text.mp_sqr   0x9d06c39c       0x20 build/e16_encx24j600_spiflash/production/_ext/29024758/tfm.o
                0x9d06c39c                mp_sqr

.text.mp_montgomery_reduce
                0x9d06c3bc       0x20
 .text.mp_montgomery_reduce
                0x9d06c3bc       0x20 build/e16_encx24j600_spiflash/production/_ext/29024758/tfm.o
                0x9d06c3bc                mp_montgomery_reduce

.text._DRV_ENCX24J600_ValidateDriverInstance
                0x9d06c3dc       0x20
 .text._DRV_ENCX24J600_ValidateDriverInstance
                0x9d06c3dc       0x20 build/e16_encx24j600_spiflash/production/_ext/772120936/drv_encx24j600_api.o
                0x9d06c3dc                _DRV_ENCX24J600_ValidateDriverInstance

.text.DRV_SPI_Tasks
                0x9d06c3fc       0x20
 .text.DRV_SPI_Tasks
                0x9d06c3fc       0x20 build/e16_encx24j600_spiflash/production/_ext/1324760662/drv_spi.o
                0x9d06c3fc                DRV_SPI_Tasks

.text.SYS_CMD_MESSAGE
                0x9d06c41c       0x20
 .text.SYS_CMD_MESSAGE
                0x9d06c41c       0x20 build/e16_encx24j600_spiflash/production/_ext/1891376032/sys_command.o
                0x9d06c41c                SYS_CMD_MESSAGE

.text.MPFS_Close
                0x9d06c43c       0x20
 .text.MPFS_Close
                0x9d06c43c       0x20 build/e16_encx24j600_spiflash/production/_ext/614935175/mpfs.o
                0x9d06c43c                MPFS_Close

.text.TCPIP_TCP_Get
                0x9d06c45c       0x20
 .text.TCPIP_TCP_Get
                0x9d06c45c       0x20 build/e16_encx24j600_spiflash/production/_ext/1164207549/tcp.o
                0x9d06c45c                TCPIP_TCP_Get

.text.TCPIP_UDP_ServerOpen
                0x9d06c47c       0x20
 .text.TCPIP_UDP_ServerOpen
                0x9d06c47c       0x20 build/e16_encx24j600_spiflash/production/_ext/1164207549/udp.o
                0x9d06c47c                TCPIP_UDP_ServerOpen

.text.TCPIP_UDP_ClientOpen
                0x9d06c49c       0x20
 .text.TCPIP_UDP_ClientOpen
                0x9d06c49c       0x20 build/e16_encx24j600_spiflash/production/_ext/1164207549/udp.o
                0x9d06c49c                TCPIP_UDP_ClientOpen

.text.TCPIP_UDP_IsConnected
                0x9d06c4bc       0x20
 .text.TCPIP_UDP_IsConnected
                0x9d06c4bc       0x20 build/e16_encx24j600_spiflash/production/_ext/1164207549/udp.o
                0x9d06c4bc                TCPIP_UDP_IsConnected

.text.TCPIP_UDP_Get
                0x9d06c4dc       0x20
 .text.TCPIP_UDP_Get
                0x9d06c4dc       0x20 build/e16_encx24j600_spiflash/production/_ext/1164207549/udp.o
                0x9d06c4dc                TCPIP_UDP_Get

.text.TCPIP_DNS_OAHASH_KeyCompare
                0x9d06c4fc       0x20
 .text.TCPIP_DNS_OAHASH_KeyCompare
                0x9d06c4fc       0x20 build/e16_encx24j600_spiflash/production/_ext/1164207549/dns.o

.text.TCPIP_DNS_GetIPv4Addresses
                0x9d06c51c       0x20
 .text.TCPIP_DNS_GetIPv4Addresses
                0x9d06c51c       0x20 build/e16_encx24j600_spiflash/production/_ext/1164207549/dns.o
                0x9d06c51c                TCPIP_DNS_GetIPv4Addresses

.text.TCPIP_DNS_GetIPv6Addresses
                0x9d06c53c       0x20
 .text.TCPIP_DNS_GetIPv6Addresses
                0x9d06c53c       0x20 build/e16_encx24j600_spiflash/production/_ext/1164207549/dns.o
                0x9d06c53c                TCPIP_DNS_GetIPv6Addresses

.text.TCPIP_DNS_Enable
                0x9d06c55c       0x20
 .text.TCPIP_DNS_Enable
                0x9d06c55c       0x20 build/e16_encx24j600_spiflash/production/_ext/1164207549/dns.o
                0x9d06c55c                TCPIP_DNS_Enable

.text.TCPIP_HEAP_Malloc
                0x9d06c57c       0x20
 .text.TCPIP_HEAP_Malloc
                0x9d06c57c       0x20 build/e16_encx24j600_spiflash/production/_ext/1164207549/tcpip_heap_alloc.o
                0x9d06c57c                TCPIP_HEAP_Malloc

.text.TCPIP_HEAP_Calloc
                0x9d06c59c       0x20
 .text.TCPIP_HEAP_Calloc
                0x9d06c59c       0x20 build/e16_encx24j600_spiflash/production/_ext/1164207549/tcpip_heap_alloc.o
                0x9d06c59c                TCPIP_HEAP_Calloc

.text.TCPIP_HEAP_Free
                0x9d06c5bc       0x20
 .text.TCPIP_HEAP_Free
                0x9d06c5bc       0x20 build/e16_encx24j600_spiflash/production/_ext/1164207549/tcpip_heap_alloc.o
                0x9d06c5bc                TCPIP_HEAP_Free

.text.TCPIP_STACK_Status
                0x9d06c5dc       0x20
 .text.TCPIP_STACK_Status
                0x9d06c5dc       0x20 build/e16_encx24j600_spiflash/production/_ext/1164207549/tcpip_manager.o
                0x9d06c5dc                TCPIP_STACK_Status

.text.TCPIP_STACK_NetIsUp
                0x9d06c5fc       0x20
 .text.TCPIP_STACK_NetIsUp
                0x9d06c5fc       0x20 build/e16_encx24j600_spiflash/production/_ext/1164207549/tcpip_manager.o
                0x9d06c5fc                TCPIP_STACK_NetIsUp

.text.TCPIP_STACK_AddressServiceCanStart
                0x9d06c61c       0x20
 .text.TCPIP_STACK_AddressServiceCanStart
                0x9d06c61c       0x20 build/e16_encx24j600_spiflash/production/_ext/1164207549/tcpip_manager.o
                0x9d06c61c                TCPIP_STACK_AddressServiceCanStart

.text.TCPIP_STACK_HeapHandleGet
                0x9d06c63c       0x20
 .text.TCPIP_STACK_HeapHandleGet
                0x9d06c63c       0x20 build/e16_encx24j600_spiflash/production/_ext/1164207549/tcpip_manager.o
                0x9d06c63c                TCPIP_STACK_HeapHandleGet

.rodata         0x9d06c65c       0x20
 .rodata        0x9d06c65c       0x20 build/e16_encx24j600_spiflash/production/_ext/1164207549/tcpip_packet.o

.text._ICMPAckPacket
                0x9d06c67c       0x20
 .text._ICMPAckPacket
                0x9d06c67c       0x20 build/e16_encx24j600_spiflash/production/_ext/1164207549/icmp.o

.text.IsTLS     0x9d06c69c       0x20
 .text.IsTLS    0x9d06c69c       0x20 build/e16_encx24j600_spiflash/production/_ext/615233400/internal.o
                0x9d06c69c                IsTLS

.text.InitSSL_Method
                0x9d06c6bc       0x20
 .text.InitSSL_Method
                0x9d06c6bc       0x20 build/e16_encx24j600_spiflash/production/_ext/615233400/internal.o
                0x9d06c6bc                InitSSL_Method

.text.NET_PRES_CertStoreGetCACerts
                0x9d06c6dc       0x1c
 .text.NET_PRES_CertStoreGetCACerts
                0x9d06c6dc       0x1c build/e16_encx24j600_spiflash/production/_ext/971131287/net_pres_cert_store.o
                0x9d06c6dc                NET_PRES_CertStoreGetCACerts

.text.BSP_LEDToggle
                0x9d06c6f8       0x1c
 .text.BSP_LEDToggle
                0x9d06c6f8       0x1c build/e16_encx24j600_spiflash/production/_ext/728775826/bsp_sys_init.o
                0x9d06c6f8                BSP_LEDToggle

.text.wc_ecc_size
                0x9d06c714       0x1c
 .text.wc_ecc_size
                0x9d06c714       0x1c build/e16_encx24j600_spiflash/production/_ext/29024758/ecc.o
                0x9d06c714                wc_ecc_size

.text.mp_clear  0x9d06c730       0x1c
 .text.mp_clear
                0x9d06c730       0x1c build/e16_encx24j600_spiflash/production/_ext/29024758/tfm.o
                0x9d06c730                mp_clear

.text.mp_mulmod
                0x9d06c74c       0x1c
 .text.mp_mulmod
                0x9d06c74c       0x1c build/e16_encx24j600_spiflash/production/_ext/29024758/tfm.o
                0x9d06c74c                mp_mulmod

.text.mp_mod    0x9d06c768       0x1c
 .text.mp_mod   0x9d06c768       0x1c build/e16_encx24j600_spiflash/production/_ext/29024758/tfm.o
                0x9d06c768                mp_mod

.text.mp_invmod
                0x9d06c784       0x1c
 .text.mp_invmod
                0x9d06c784       0x1c build/e16_encx24j600_spiflash/production/_ext/29024758/tfm.o
                0x9d06c784                mp_invmod

.text.mp_exptmod
                0x9d06c7a0       0x1c
 .text.mp_exptmod
                0x9d06c7a0       0x1c build/e16_encx24j600_spiflash/production/_ext/29024758/tfm.o
                0x9d06c7a0                mp_exptmod

.text.mp_cmp    0x9d06c7bc       0x1c
 .text.mp_cmp   0x9d06c7bc       0x1c build/e16_encx24j600_spiflash/production/_ext/29024758/tfm.o
                0x9d06c7bc                mp_cmp

.text.mp_cmp_d  0x9d06c7d8       0x1c
 .text.mp_cmp_d
                0x9d06c7d8       0x1c build/e16_encx24j600_spiflash/production/_ext/29024758/tfm.o
                0x9d06c7d8                mp_cmp_d

.text.mp_unsigned_bin_size
                0x9d06c7f4       0x1c
 .text.mp_unsigned_bin_size
                0x9d06c7f4       0x1c build/e16_encx24j600_spiflash/production/_ext/29024758/tfm.o
                0x9d06c7f4                mp_unsigned_bin_size

.text.mp_count_bits
                0x9d06c810       0x1c
 .text.mp_count_bits
                0x9d06c810       0x1c build/e16_encx24j600_spiflash/production/_ext/29024758/tfm.o
                0x9d06c810                mp_count_bits

.text.mp_leading_bit
                0x9d06c82c       0x1c
 .text.mp_leading_bit
                0x9d06c82c       0x1c build/e16_encx24j600_spiflash/production/_ext/29024758/tfm.o
                0x9d06c82c                mp_leading_bit

.text.mp_rshb   0x9d06c848       0x1c
 .text.mp_rshb  0x9d06c848       0x1c build/e16_encx24j600_spiflash/production/_ext/29024758/tfm.o
                0x9d06c848                mp_rshb

.text.mp_set    0x9d06c864       0x1c
 .text.mp_set   0x9d06c864       0x1c build/e16_encx24j600_spiflash/production/_ext/29024758/tfm.o
                0x9d06c864                mp_set

.text.mp_montgomery_setup
                0x9d06c880       0x1c
 .text.mp_montgomery_setup
                0x9d06c880       0x1c build/e16_encx24j600_spiflash/production/_ext/29024758/tfm.o
                0x9d06c880                mp_montgomery_setup

.text.wc_RsaEncryptSize
                0x9d06c89c       0x1c
 .text.wc_RsaEncryptSize
                0x9d06c89c       0x1c build/e16_encx24j600_spiflash/production/_ext/29024758/rsa.o
                0x9d06c89c                wc_RsaEncryptSize

.rodata         0x9d06c8b8       0x1c
 .rodata        0x9d06c8b8       0x1c build/e16_encx24j600_spiflash/production/_ext/941160041/drv_tmr.o

.text.SYS_DEVCON_JTAGDisable
                0x9d06c8d4       0x1c
 .text.SYS_DEVCON_JTAGDisable
                0x9d06c8d4       0x1c build/e16_encx24j600_spiflash/production/_ext/482662494/sys_devcon.o
                0x9d06c8d4                SYS_DEVCON_JTAGDisable

.text.SYS_FS_Tasks
                0x9d06c8f0       0x1c
 .text.SYS_FS_Tasks
                0x9d06c8f0       0x1c build/e16_encx24j600_spiflash/production/_ext/1750042194/sys_fs.o
                0x9d06c8f0                SYS_FS_Tasks

.text.MPFS_GetSize
                0x9d06c90c       0x1c
 .text.MPFS_GetSize
                0x9d06c90c       0x1c build/e16_encx24j600_spiflash/production/_ext/614935175/mpfs.o
                0x9d06c90c                MPFS_GetSize

.text.MPFS_GetPosition
                0x9d06c928       0x1c
 .text.MPFS_GetPosition
                0x9d06c928       0x1c build/e16_encx24j600_spiflash/production/_ext/614935175/mpfs.o
                0x9d06c928                MPFS_GetPosition

.text.SYS_RANDOM_PseudoGet
                0x9d06c944       0x1c
 .text.SYS_RANDOM_PseudoGet
                0x9d06c944       0x1c build/e16_encx24j600_spiflash/production/_ext/470001640/sys_random.o
                0x9d06c944                SYS_RANDOM_PseudoGet

.text.SYS_TMR_ModuleStatusGet
                0x9d06c960       0x1c
 .text.SYS_TMR_ModuleStatusGet
                0x9d06c960       0x1c build/e16_encx24j600_spiflash/production/_ext/2110151058/sys_tmr.o
                0x9d06c960                SYS_TMR_ModuleStatusGet

.text.SYS_TMR_CallbackStop
                0x9d06c97c       0x1c
 .text.SYS_TMR_CallbackStop
                0x9d06c97c       0x1c build/e16_encx24j600_spiflash/production/_ext/2110151058/sys_tmr.o
                0x9d06c97c                SYS_TMR_CallbackStop

.text.SYS_TMR_CallbackPeriodic
                0x9d06c998       0x1c
 .text.SYS_TMR_CallbackPeriodic
                0x9d06c998       0x1c build/e16_encx24j600_spiflash/production/_ext/2110151058/sys_tmr.o
                0x9d06c998                SYS_TMR_CallbackPeriodic

.text.btohexa_high
                0x9d06c9b4       0x1c
 .text.btohexa_high
                0x9d06c9b4       0x1c build/e16_encx24j600_spiflash/production/_ext/1886247299/helpers.o
                0x9d06c9b4                btohexa_high

.text.btohexa_low
                0x9d06c9d0       0x1c
 .text.btohexa_low
                0x9d06c9d0       0x1c build/e16_encx24j600_spiflash/production/_ext/1886247299/helpers.o
                0x9d06c9d0                btohexa_low

.text.TCPIP_UDP_TxPutIsReady
                0x9d06c9ec       0x1c
 .text.TCPIP_UDP_TxPutIsReady
                0x9d06c9ec       0x1c build/e16_encx24j600_spiflash/production/_ext/1164207549/udp.o
                0x9d06c9ec                TCPIP_UDP_TxPutIsReady

.text.TCPIP_DNS_Resolve
                0x9d06ca08       0x1c
 .text.TCPIP_DNS_Resolve
                0x9d06ca08       0x1c build/e16_encx24j600_spiflash/production/_ext/1164207549/dns.o
                0x9d06ca08                TCPIP_DNS_Resolve

.text.TCPIP_DNS_IsNameResolved
                0x9d06ca24       0x1c
 .text.TCPIP_DNS_IsNameResolved
                0x9d06ca24       0x1c build/e16_encx24j600_spiflash/production/_ext/1164207549/dns.o
                0x9d06ca24                TCPIP_DNS_IsNameResolved

.text.TCPIP_SMTP_Flush
                0x9d06ca40       0x1c
 .text.TCPIP_SMTP_Flush
                0x9d06ca40       0x1c build/e16_encx24j600_spiflash/production/_ext/1164207549/smtp.o
                0x9d06ca40                TCPIP_SMTP_Flush

.text._Command_ZcllOnOff
                0x9d06ca5c       0x1c
 .text._Command_ZcllOnOff
                0x9d06ca5c       0x1c build/e16_encx24j600_spiflash/production/_ext/1164207549/tcpip_commands.o

.text._Command_DHCPSOnOff
                0x9d06ca78       0x1c
 .text._Command_DHCPSOnOff
                0x9d06ca78       0x1c build/e16_encx24j600_spiflash/production/_ext/1164207549/tcpip_commands.o

.text.TCPIP_Helper_ChecksumFold
                0x9d06ca94       0x1c
 .text.TCPIP_Helper_ChecksumFold
                0x9d06ca94       0x1c build/e16_encx24j600_spiflash/production/_ext/1164207549/tcpip_helpers.o
                0x9d06ca94                TCPIP_Helper_ChecksumFold

.text.TCPIP_Notification_Initialize
                0x9d06cab0       0x1c
 .text.TCPIP_Notification_Initialize
                0x9d06cab0       0x1c build/e16_encx24j600_spiflash/production/_ext/1164207549/tcpip_notify.o
                0x9d06cab0                TCPIP_Notification_Initialize

.text.TCPIP_DHCPS_Enable
                0x9d06cacc       0x1c
 .text.TCPIP_DHCPS_Enable
                0x9d06cacc       0x1c build/e16_encx24j600_spiflash/production/_ext/1164207549/dhcps.o
                0x9d06cacc                TCPIP_DHCPS_Enable

.text.wolfSSL_peek
                0x9d06cae8       0x1c
 .text.wolfSSL_peek
                0x9d06cae8       0x1c build/e16_encx24j600_spiflash/production/_ext/615233400/ssl.o
                0x9d06cae8                wolfSSL_peek

.text.wolfSSL_read
                0x9d06cb04       0x1c
 .text.wolfSSL_read
                0x9d06cb04       0x1c build/e16_encx24j600_spiflash/production/_ext/615233400/ssl.o
                0x9d06cb04                wolfSSL_read

.text.srand     0x9d06cb20       0x1c
 .text.srand    0x9d06cb20       0x1c c:/program files (x86)/microchip/xc32/v1.42/bin/bin/../../lib/gcc/pic32mx/4.8.3/../../../../pic32mx/lib\libc.a(rand.o)
                0x9d06cb20                srand

.text.DRV_ENCX24J600_TxPacketEnter
                0x9d06cb3c       0x18
 .text.DRV_ENCX24J600_TxPacketEnter
                0x9d06cb3c       0x18 build/e16_encx24j600_spiflash/production/_ext/1210338337/drv_encx24j600_tx_packet.o
                0x9d06cb3c                DRV_ENCX24J600_TxPacketEnter

.text.DRV_ENCX24J600_ChgDupStateEnter
                0x9d06cb54       0x18
 .text.DRV_ENCX24J600_ChgDupStateEnter
                0x9d06cb54       0x18 build/e16_encx24j600_spiflash/production/_ext/1207282394/drv_encx24j600_change_duplex_state.o
                0x9d06cb54                DRV_ENCX24J600_ChgDupStateEnter

.text.DRV_ENCX24J600_ChkStatusStateEnter
                0x9d06cb6c       0x18
 .text.DRV_ENCX24J600_ChkStatusStateEnter
                0x9d06cb6c       0x18 build/e16_encx24j600_spiflash/production/_ext/1207282394/drv_encx24j600_check_status_state.o
                0x9d06cb6c                DRV_ENCX24J600_ChkStatusStateEnter

.text.SYS_INT_Initialize
                0x9d06cb84       0x18
 .text.SYS_INT_Initialize
                0x9d06cb84       0x18 build/e16_encx24j600_spiflash/production/_ext/1042686532/sys_int_pic32.o
                0x9d06cb84                SYS_INT_Initialize

.text.TCPIP_ARP_HashKeyCompare
                0x9d06cb9c       0x18
 .text.TCPIP_ARP_HashKeyCompare
                0x9d06cb9c       0x18 build/e16_encx24j600_spiflash/production/_ext/1164207549/arp.o
                0x9d06cb9c                TCPIP_ARP_HashKeyCompare

.text.TCPIP_STACK_NetIndexGet
                0x9d06cbb4       0x18
 .text.TCPIP_STACK_NetIndexGet
                0x9d06cbb4       0x18 build/e16_encx24j600_spiflash/production/_ext/1164207549/tcpip_manager.o
                0x9d06cbb4                TCPIP_STACK_NetIndexGet

.text.TCPIP_STACK_MACObjectGet
                0x9d06cbcc       0x18
 .text.TCPIP_STACK_MACObjectGet
                0x9d06cbcc       0x18 build/e16_encx24j600_spiflash/production/_ext/1164207549/tcpip_manager.o
                0x9d06cbcc                TCPIP_STACK_MACObjectGet

.text.TCPIP_STACK_NetIxGet
                0x9d06cbe4       0x18
 .text.TCPIP_STACK_NetIxGet
                0x9d06cbe4       0x18 build/e16_encx24j600_spiflash/production/_ext/1164207549/tcpip_manager.o
                0x9d06cbe4                TCPIP_STACK_NetIxGet

.text.TCPIP_STACK_GatewayAddressSet
                0x9d06cbfc       0x18
 .text.TCPIP_STACK_GatewayAddressSet
                0x9d06cbfc       0x18 build/e16_encx24j600_spiflash/production/_ext/1164207549/tcpip_manager.o
                0x9d06cbfc                TCPIP_STACK_GatewayAddressSet

.text.TCPIP_STACK_PrimaryDNSAddressSet
                0x9d06cc14       0x18
 .text.TCPIP_STACK_PrimaryDNSAddressSet
                0x9d06cc14       0x18 build/e16_encx24j600_spiflash/production/_ext/1164207549/tcpip_manager.o
                0x9d06cc14                TCPIP_STACK_PrimaryDNSAddressSet

.text.TCPIP_STACK_SecondaryDNSAddressSet
                0x9d06cc2c       0x18
 .text.TCPIP_STACK_SecondaryDNSAddressSet
                0x9d06cc2c       0x18 build/e16_encx24j600_spiflash/production/_ext/1164207549/tcpip_manager.o
                0x9d06cc2c                TCPIP_STACK_SecondaryDNSAddressSet

.text.c32to24   0x9d06cc44       0x18
 .text.c32to24  0x9d06cc44       0x18 build/e16_encx24j600_spiflash/production/_ext/615233400/internal.o
                0x9d06cc44                c32to24

.text.MakeDTLSv1
                0x9d06cc5c       0x18
 .text.MakeDTLSv1
                0x9d06cc5c       0x18 build/e16_encx24j600_spiflash/production/_ext/615233400/internal.o
                0x9d06cc5c                MakeDTLSv1

.text           0x9d06cc74       0x18
 .text          0x9d06cc74       0x18 c:/program files (x86)/microchip/xc32/v1.42/bin/bin/../../lib/gcc/pic32mx/4.8.3/../../../../pic32mx/lib\libpic32.a(default-nmi-handler.o)
                0x9d06cc74                _nmi_handler

.text.SYS_DEVCON_Initialize
                0x9d06cc8c       0x14
 .text.SYS_DEVCON_Initialize
                0x9d06cc8c       0x14 build/e16_encx24j600_spiflash/production/_ext/482662494/sys_devcon.o
                0x9d06cc8c                SYS_DEVCON_Initialize

.text.TCPIP_SMTP_PutIsDone
                0x9d06cca0       0x14
 .text.TCPIP_SMTP_PutIsDone
                0x9d06cca0       0x14 build/e16_encx24j600_spiflash/production/_ext/1164207549/smtp.o
                0x9d06cca0                TCPIP_SMTP_PutIsDone

.rodata         0x9d056670       0x10
 .rodata        0x9d056670       0x10 build/e16_encx24j600_spiflash/production/_ext/1886247299/sys_fs_wrapper.o

.text.TCPIP_ARP_HashKeyCopy
                0x9d06ccb4       0x10
 .text.TCPIP_ARP_HashKeyCopy
                0x9d06ccb4       0x10 build/e16_encx24j600_spiflash/production/_ext/1164207549/arp.o
                0x9d06ccb4                TCPIP_ARP_HashKeyCopy

.text.TCPIP_HTTP_CurrentConnectionCallbackPosSet
                0x9d06ccc4       0x10
 .text.TCPIP_HTTP_CurrentConnectionCallbackPosSet
                0x9d06ccc4       0x10 build/e16_encx24j600_spiflash/production/_ext/1164207549/http.o
                0x9d06ccc4                TCPIP_HTTP_CurrentConnectionCallbackPosSet

.text.TCPIP_HTTP_CurrentConnectionByteCountDec
                0x9d06ccd4       0x10
 .text.TCPIP_HTTP_CurrentConnectionByteCountDec
                0x9d06ccd4       0x10 build/e16_encx24j600_spiflash/production/_ext/1164207549/http.o
                0x9d06ccd4                TCPIP_HTTP_CurrentConnectionByteCountDec

.text.TCPIP_Helper_SingleListInitialize
                0x9d06cce4       0x10
 .text.TCPIP_Helper_SingleListInitialize
                0x9d06cce4       0x10 build/e16_encx24j600_spiflash/production/_ext/1164207549/tcpip_helpers.o
                0x9d06cce4                TCPIP_Helper_SingleListInitialize

.rodata         0x9d06ccf4       0x10
 .rodata        0x9d06ccf4       0x10 build/e16_encx24j600_spiflash/production/_ext/1699919941/dh.o

.text.NET_PRES_EncProviderStreamServerIsInited0
                0x9d06cd04        0xc
 .text.NET_PRES_EncProviderStreamServerIsInited0
                0x9d06cd04        0xc build/e16_encx24j600_spiflash/production/_ext/971131287/net_pres_enc_glue.o
                0x9d06cd04                NET_PRES_EncProviderStreamServerIsInited0

.text.NET_PRES_EncProviderStreamClientIsInited0
                0x9d06cd10        0xc
 .text.NET_PRES_EncProviderStreamClientIsInited0
                0x9d06cd10        0xc build/e16_encx24j600_spiflash/production/_ext/971131287/net_pres_enc_glue.o
                0x9d06cd10                NET_PRES_EncProviderStreamClientIsInited0

.text.NET_PRES_EncProviderDataGramServerIsInited0
                0x9d06cd1c        0xc
 .text.NET_PRES_EncProviderDataGramServerIsInited0
                0x9d06cd1c        0xc build/e16_encx24j600_spiflash/production/_ext/971131287/net_pres_enc_glue.o
                0x9d06cd1c                NET_PRES_EncProviderDataGramServerIsInited0

.text.NET_PRES_EncProviderDataGramClientIsInited0
                0x9d06cd28        0xc
 .text.NET_PRES_EncProviderDataGramClientIsInited0
                0x9d06cd28        0xc build/e16_encx24j600_spiflash/production/_ext/971131287/net_pres_enc_glue.o
                0x9d06cd28                NET_PRES_EncProviderDataGramClientIsInited0

.text.SYS_CLK_SystemFrequencyGet
                0x9d06cd34        0xc
 .text.SYS_CLK_SystemFrequencyGet
                0x9d06cd34        0xc build/e16_encx24j600_spiflash/production/_ext/360868340/sys_clk_static.o
                0x9d06cd34                SYS_CLK_SystemFrequencyGet

.text.SYS_CLK_PeripheralFrequencyGet
                0x9d06cd40        0xc
 .text.SYS_CLK_PeripheralFrequencyGet
                0x9d06cd40        0xc build/e16_encx24j600_spiflash/production/_ext/360868340/sys_clk_static.o
                0x9d06cd40                SYS_CLK_PeripheralFrequencyGet

.text.mp_iszero
                0x9d06cd4c        0xc
 .text.mp_iszero
                0x9d06cd4c        0xc build/e16_encx24j600_spiflash/production/_ext/29024758/tfm.o
                0x9d06cd4c                mp_iszero

.text.DRV_ENCX24J600_DetectStateEnter
                0x9d06cd58        0xc
 .text.DRV_ENCX24J600_DetectStateEnter
                0x9d06cd58        0xc build/e16_encx24j600_spiflash/production/_ext/1730942135/drv_encx24j600_detect_state.o
                0x9d06cd58                DRV_ENCX24J600_DetectStateEnter

.text.DRV_ENCX24J600_ResetStateEnter
                0x9d06cd64        0xc
 .text.DRV_ENCX24J600_ResetStateEnter
                0x9d06cd64        0xc build/e16_encx24j600_spiflash/production/_ext/1730942135/drv_encx24j600_reset_state.o
                0x9d06cd64                DRV_ENCX24J600_ResetStateEnter

.text.DRV_ENCX24J600_ChkIntStateEnter
                0x9d06cd70        0xc
 .text.DRV_ENCX24J600_ChkIntStateEnter
                0x9d06cd70        0xc build/e16_encx24j600_spiflash/production/_ext/1207282394/drv_encx24j600_check_int_state.o
                0x9d06cd70                DRV_ENCX24J600_ChkIntStateEnter

.text.DRV_SPI_SYS_QUEUE_IsEmpty
                0x9d06cd7c        0xc
 .text.DRV_SPI_SYS_QUEUE_IsEmpty
                0x9d06cd7c        0xc build/e16_encx24j600_spiflash/production/_ext/1385053818/drv_spi_sys_queue_fifo.o
                0x9d06cd7c                DRV_SPI_SYS_QUEUE_IsEmpty

.text.TCPIP_SMTP_IsBusy
                0x9d06cd88        0xc
 .text.TCPIP_SMTP_IsBusy
                0x9d06cd88        0xc build/e16_encx24j600_spiflash/production/_ext/1164207549/smtp.o
                0x9d06cd88                TCPIP_SMTP_IsBusy

.text.TCPIP_STACK_NumberOfNetworksGet
                0x9d06cd94        0xc
 .text.TCPIP_STACK_NumberOfNetworksGet
                0x9d06cd94        0xc build/e16_encx24j600_spiflash/production/_ext/1164207549/tcpip_manager.o
                0x9d06cd94                TCPIP_STACK_NumberOfNetworksGet

.text.TCPIP_STACK_NetBIOSName
                0x9d06cda0        0xc
 .text.TCPIP_STACK_NetBIOSName
                0x9d06cda0        0xc build/e16_encx24j600_spiflash/production/_ext/1164207549/tcpip_manager.o
                0x9d06cda0                TCPIP_STACK_NetBIOSName

.text._TCPIPStackAddressServiceIsRunning
                0x9d06cdac        0xc
 .text._TCPIPStackAddressServiceIsRunning
                0x9d06cdac        0xc build/e16_encx24j600_spiflash/production/_ext/1164207549/tcpip_manager.o
                0x9d06cdac                _TCPIPStackAddressServiceIsRunning

.text.APP_Initialize
                0x9d06cdb8        0x8
 .text.APP_Initialize
                0x9d06cdb8        0x8 build/e16_encx24j600_spiflash/production/_ext/1360937237/app.o
                0x9d06cdb8                APP_Initialize

.text.TCPIP_HTTP_Print_read_comm
                0x9d06cdc0        0x8
 .text.TCPIP_HTTP_Print_read_comm
                0x9d06cdc0        0x8 build/e16_encx24j600_spiflash/production/_ext/1360937237/custom_http_app.o
                0x9d06cdc0                TCPIP_HTTP_Print_read_comm

.text.TCPIP_HTTP_Print_write_comm
                0x9d06cdc8        0x8
 .text.TCPIP_HTTP_Print_write_comm
                0x9d06cdc8        0x8 build/e16_encx24j600_spiflash/production/_ext/1360937237/custom_http_app.o
                0x9d06cdc8                TCPIP_HTTP_Print_write_comm

.text.wolfCrypt_Init
                0x9d06cdd0        0x8
 .text.wolfCrypt_Init
                0x9d06cdd0        0x8 build/e16_encx24j600_spiflash/production/_ext/29024758/port.o
                0x9d06cdd0                wolfCrypt_Init

.text.InitMutex
                0x9d06cdd8        0x8
 .text.InitMutex
                0x9d06cdd8        0x8 build/e16_encx24j600_spiflash/production/_ext/29024758/port.o
                0x9d06cdd8                InitMutex

.text.FreeMutex
                0x9d06cde0        0x8
 .text.FreeMutex
                0x9d06cde0        0x8 build/e16_encx24j600_spiflash/production/_ext/29024758/port.o
                0x9d06cde0                FreeMutex

.text.LockMutex
                0x9d06cde8        0x8
 .text.LockMutex
                0x9d06cde8        0x8 build/e16_encx24j600_spiflash/production/_ext/29024758/port.o
                0x9d06cde8                LockMutex

.text.UnLockMutex
                0x9d06cdf0        0x8
 .text.UnLockMutex
                0x9d06cdf0        0x8 build/e16_encx24j600_spiflash/production/_ext/29024758/port.o
                0x9d06cdf0                UnLockMutex

.text.wc_ecc_init
                0x9d06cdf8        0x8
 .text.wc_ecc_init
                0x9d06cdf8        0x8 build/e16_encx24j600_spiflash/production/_ext/29024758/ecc.o
                0x9d06cdf8                wc_ecc_init

.text.DRV_ENCX24J600_SPI_OperationComplete
                0x9d06ce00        0x8
 .text.DRV_ENCX24J600_SPI_OperationComplete
                0x9d06ce00        0x8 build/e16_encx24j600_spiflash/production/_ext/2115314394/drv_encx24j600_spi_bus.o

.text.DRV_ENCX24J600_ClosedStateEnter
                0x9d06ce08        0x8
 .text.DRV_ENCX24J600_ClosedStateEnter
                0x9d06ce08        0x8 build/e16_encx24j600_spiflash/production/_ext/1455582699/drv_encx24j600_closed_state.o
                0x9d06ce08                DRV_ENCX24J600_ClosedStateEnter

.text.DRV_ENCX24J600_ClosedStateExit
                0x9d06ce10        0x8
 .text.DRV_ENCX24J600_ClosedStateExit
                0x9d06ce10        0x8 build/e16_encx24j600_spiflash/production/_ext/1455582699/drv_encx24j600_closed_state.o
                0x9d06ce10                DRV_ENCX24J600_ClosedStateExit

.text.DRV_ENCX24J600_InitStateExit
                0x9d06ce18        0x8
 .text.DRV_ENCX24J600_InitStateExit
                0x9d06ce18        0x8 build/e16_encx24j600_spiflash/production/_ext/1730942135/drv_encx24j600_initialization_state.o
                0x9d06ce18                DRV_ENCX24J600_InitStateExit

.text.DRV_ENCX24J600_ConfigStateExit
                0x9d06ce20        0x8
 .text.DRV_ENCX24J600_ConfigStateExit
                0x9d06ce20        0x8 build/e16_encx24j600_spiflash/production/_ext/1730942135/drv_encx24j600_configure_state.o
                0x9d06ce20                DRV_ENCX24J600_ConfigStateExit

.text.DRV_ENCX24J600_DetectStateExit
                0x9d06ce28        0x8
 .text.DRV_ENCX24J600_DetectStateExit
                0x9d06ce28        0x8 build/e16_encx24j600_spiflash/production/_ext/1730942135/drv_encx24j600_detect_state.o
                0x9d06ce28                DRV_ENCX24J600_DetectStateExit

.text.DRV_ENCX24J600_ResetStateExit
                0x9d06ce30        0x8
 .text.DRV_ENCX24J600_ResetStateExit
                0x9d06ce30        0x8 build/e16_encx24j600_spiflash/production/_ext/1730942135/drv_encx24j600_reset_state.o
                0x9d06ce30                DRV_ENCX24J600_ResetStateExit

.text.DRV_ENCX24J600_TxPacketExit
                0x9d06ce38        0x8
 .text.DRV_ENCX24J600_TxPacketExit
                0x9d06ce38        0x8 build/e16_encx24j600_spiflash/production/_ext/1210338337/drv_encx24j600_tx_packet.o
                0x9d06ce38                DRV_ENCX24J600_TxPacketExit

.text.DRV_ENCX24J600_RxPacketExit
                0x9d06ce40        0x8
 .text.DRV_ENCX24J600_RxPacketExit
                0x9d06ce40        0x8 build/e16_encx24j600_spiflash/production/_ext/1210338337/drv_encx24j600_rx_packet.o
                0x9d06ce40                DRV_ENCX24J600_RxPacketExit

.text.DRV_ENCX24J600_ChgDupStateExit
                0x9d06ce48        0x8
 .text.DRV_ENCX24J600_ChgDupStateExit
                0x9d06ce48        0x8 build/e16_encx24j600_spiflash/production/_ext/1207282394/drv_encx24j600_change_duplex_state.o
                0x9d06ce48                DRV_ENCX24J600_ChgDupStateExit

.text.DRV_ENCX24J600_ChkIntStateExit
                0x9d06ce50        0x8
 .text.DRV_ENCX24J600_ChkIntStateExit
                0x9d06ce50        0x8 build/e16_encx24j600_spiflash/production/_ext/1207282394/drv_encx24j600_check_int_state.o
                0x9d06ce50                DRV_ENCX24J600_ChkIntStateExit

.text.DRV_ENCX24J600_ChkStatusStateExit
                0x9d06ce58        0x8
 .text.DRV_ENCX24J600_ChkStatusStateExit
                0x9d06ce58        0x8 build/e16_encx24j600_spiflash/production/_ext/1207282394/drv_encx24j600_check_status_state.o
                0x9d06ce58                DRV_ENCX24J600_ChkStatusStateExit

.text.DRV_ENCX24J600_Reinitialize
                0x9d06ce60        0x8
 .text.DRV_ENCX24J600_Reinitialize
                0x9d06ce60        0x8 build/e16_encx24j600_spiflash/production/_ext/772120936/drv_encx24j600_api.o
                0x9d06ce60                DRV_ENCX24J600_Reinitialize

.text.DRV_ENCX24J600_RxFilterHashTableEntrySet
                0x9d06ce68        0x8
 .text.DRV_ENCX24J600_RxFilterHashTableEntrySet
                0x9d06ce68        0x8 build/e16_encx24j600_spiflash/production/_ext/772120936/drv_encx24j600_api.o
                0x9d06ce68                DRV_ENCX24J600_RxFilterHashTableEntrySet

.text.DRV_ENCX24J600_PowerMode
                0x9d06ce70        0x8
 .text.DRV_ENCX24J600_PowerMode
                0x9d06ce70        0x8 build/e16_encx24j600_spiflash/production/_ext/772120936/drv_encx24j600_api.o
                0x9d06ce70                DRV_ENCX24J600_PowerMode

.text.DRV_ENCX24J600_Process
                0x9d06ce78        0x8
 .text.DRV_ENCX24J600_Process
                0x9d06ce78        0x8 build/e16_encx24j600_spiflash/production/_ext/772120936/drv_encx24j600_api.o
                0x9d06ce78                DRV_ENCX24J600_Process

.text.DRV_ENCX24J600_RegisterStatisticsGet
                0x9d06ce80        0x8
 .text.DRV_ENCX24J600_RegisterStatisticsGet
                0x9d06ce80        0x8 build/e16_encx24j600_spiflash/production/_ext/772120936/drv_encx24j600_api.o
                0x9d06ce80                DRV_ENCX24J600_RegisterStatisticsGet

.text.DRV_ENCX24J600_ConfigGet
                0x9d06ce88        0x8
 .text.DRV_ENCX24J600_ConfigGet
                0x9d06ce88        0x8 build/e16_encx24j600_spiflash/production/_ext/772120936/drv_encx24j600_api.o
                0x9d06ce88                DRV_ENCX24J600_ConfigGet

.text.DRV_SPI_BufferStatus
                0x9d06ce90        0x8
 .text.DRV_SPI_BufferStatus
                0x9d06ce90        0x8 build/e16_encx24j600_spiflash/production/_ext/1324760662/drv_spi.o
                0x9d06ce90                DRV_SPI_BufferStatus

.text.DRV_SPI_SYS_QUEUE_Deinitialize
                0x9d06ce98        0x8
 .text.DRV_SPI_SYS_QUEUE_Deinitialize
                0x9d06ce98        0x8 build/e16_encx24j600_spiflash/production/_ext/1385053818/drv_spi_sys_queue_fifo.o
                0x9d06ce98                DRV_SPI_SYS_QUEUE_Deinitialize

.text.SPIFlashBeginWrite
                0x9d06cea0        0x8
 .text.SPIFlashBeginWrite
                0x9d06cea0        0x8 build/e16_encx24j600_spiflash/production/_ext/1335609251/SPIFlash.o
                0x9d06cea0                SPIFlashBeginWrite

.text.GetCommandCharacter
                0x9d06cea8        0x8
 .text.GetCommandCharacter
                0x9d06cea8        0x8 build/e16_encx24j600_spiflash/production/_ext/1891376032/sys_command.o

.text.SYS_DEBUG_ErrorLevelGet
                0x9d06ceb0        0x8
 .text.SYS_DEBUG_ErrorLevelGet
                0x9d06ceb0        0x8 build/e16_encx24j600_spiflash/production/_ext/2137108136/sys_debug.o
                0x9d06ceb0                SYS_DEBUG_ErrorLevelGet

.text.SYS_DEVCON_Tasks
                0x9d06ceb8        0x8
 .text.SYS_DEVCON_Tasks
                0x9d06ceb8        0x8 build/e16_encx24j600_spiflash/production/_ext/482662494/sys_devcon.o
                0x9d06ceb8                SYS_DEVCON_Tasks

.rodata         0x9d06cec0        0x8
 .rodata        0x9d06cec0        0x8 build/e16_encx24j600_spiflash/production/_ext/1750042194/sys_fs.o

.text._DHCPOptionProcessEnd
                0x9d06cec8        0x8
 .text._DHCPOptionProcessEnd
                0x9d06cec8        0x8 build/e16_encx24j600_spiflash/production/_ext/1164207549/dhcp.o

.text.TCPIP_HTTP_CurrentConnectionFileGet
                0x9d06ced0        0x8
 .text.TCPIP_HTTP_CurrentConnectionFileGet
                0x9d06ced0        0x8 build/e16_encx24j600_spiflash/production/_ext/1164207549/http.o
                0x9d06ced0                TCPIP_HTTP_CurrentConnectionFileGet

.text.TCPIP_HTTP_CurrentConnectionPostSmGet
                0x9d06ced8        0x8
 .text.TCPIP_HTTP_CurrentConnectionPostSmGet
                0x9d06ced8        0x8 build/e16_encx24j600_spiflash/production/_ext/1164207549/http.o
                0x9d06ced8                TCPIP_HTTP_CurrentConnectionPostSmGet

.text.TCPIP_HTTP_CurrentConnectionPostSmSet
                0x9d06cee0        0x8
 .text.TCPIP_HTTP_CurrentConnectionPostSmSet
                0x9d06cee0        0x8 build/e16_encx24j600_spiflash/production/_ext/1164207549/http.o
                0x9d06cee0                TCPIP_HTTP_CurrentConnectionPostSmSet

.text.TCPIP_HTTP_CurrentConnectionDataBufferGet
                0x9d06cee8        0x8
 .text.TCPIP_HTTP_CurrentConnectionDataBufferGet
                0x9d06cee8        0x8 build/e16_encx24j600_spiflash/production/_ext/1164207549/http.o
                0x9d06cee8                TCPIP_HTTP_CurrentConnectionDataBufferGet

.text.TCPIP_HTTP_CurrentConnectionCallbackPosGet
                0x9d06cef0        0x8
 .text.TCPIP_HTTP_CurrentConnectionCallbackPosGet
                0x9d06cef0        0x8 build/e16_encx24j600_spiflash/production/_ext/1164207549/http.o
                0x9d06cef0                TCPIP_HTTP_CurrentConnectionCallbackPosGet

.text.TCPIP_HTTP_CurrentConnectionStatusSet
                0x9d06cef8        0x8
 .text.TCPIP_HTTP_CurrentConnectionStatusSet
                0x9d06cef8        0x8 build/e16_encx24j600_spiflash/production/_ext/1164207549/http.o
                0x9d06cef8                TCPIP_HTTP_CurrentConnectionStatusSet

.text.TCPIP_HTTP_CurrentConnectionHasArgsSet
                0x9d06cf00        0x8
 .text.TCPIP_HTTP_CurrentConnectionHasArgsSet
                0x9d06cf00        0x8 build/e16_encx24j600_spiflash/production/_ext/1164207549/http.o
                0x9d06cf00                TCPIP_HTTP_CurrentConnectionHasArgsSet

.text.TCPIP_HTTP_CurrentConnectionByteCountGet
                0x9d06cf08        0x8
 .text.TCPIP_HTTP_CurrentConnectionByteCountGet
                0x9d06cf08        0x8 build/e16_encx24j600_spiflash/production/_ext/1164207549/http.o
                0x9d06cf08                TCPIP_HTTP_CurrentConnectionByteCountGet

.text.TCPIP_HTTP_CurrentConnectionSocketGet
                0x9d06cf10        0x8
 .text.TCPIP_HTTP_CurrentConnectionSocketGet
                0x9d06cf10        0x8 build/e16_encx24j600_spiflash/production/_ext/1164207549/http.o
                0x9d06cf10                TCPIP_HTTP_CurrentConnectionSocketGet

.text._TCPIP_HEAP_BufferMapNonCached
                0x9d06cf18        0x8
 .text._TCPIP_HEAP_BufferMapNonCached
                0x9d06cf18        0x8 build/e16_encx24j600_spiflash/production/_ext/1164207549/tcpip_heap_alloc.o
                0x9d06cf18                _TCPIP_HEAP_BufferMapNonCached

.text.TCPIP_STACK_NetDefaultGet
                0x9d06cf20        0x8
 .text.TCPIP_STACK_NetDefaultGet
                0x9d06cf20        0x8 build/e16_encx24j600_spiflash/production/_ext/1164207549/tcpip_manager.o
                0x9d06cf20                TCPIP_STACK_NetDefaultGet

.text.TCPIP_PKT_Deinitialize
                0x9d06cf28        0x8
 .text.TCPIP_PKT_Deinitialize
                0x9d06cf28        0x8 build/e16_encx24j600_spiflash/production/_ext/1164207549/tcpip_packet.o
                0x9d06cf28                TCPIP_PKT_Deinitialize

.text.TCPIP_DDNS_LastStatusGet
                0x9d06cf30        0x8
 .text.TCPIP_DDNS_LastStatusGet
                0x9d06cf30        0x8 build/e16_encx24j600_spiflash/production/_ext/1164207549/ddns.o
                0x9d06cf30                TCPIP_DDNS_LastStatusGet

.text.wc_InitDhKey
                0x9d06cf38        0x8
 .text.wc_InitDhKey
                0x9d06cf38        0x8 build/e16_encx24j600_spiflash/production/_ext/1699919941/dh.o
                0x9d06cf38                wc_InitDhKey

.text.wc_FreeDhKey
                0x9d06cf40        0x8
 .text.wc_FreeDhKey
                0x9d06cf40        0x8 build/e16_encx24j600_spiflash/production/_ext/1699919941/dh.o
                0x9d06cf40                wc_FreeDhKey

.text.SendCertificateStatus
                0x9d06cf48        0x8
 .text.SendCertificateStatus
                0x9d06cf48        0x8 build/e16_encx24j600_spiflash/production/_ext/615233400/internal.o
                0x9d06cf48                SendCertificateStatus

.text.wolfSSL_SetIORecv
                0x9d06cf50        0x8
 .text.wolfSSL_SetIORecv
                0x9d06cf50        0x8 build/e16_encx24j600_spiflash/production/_ext/615233400/io.o
                0x9d06cf50                wolfSSL_SetIORecv

.text.wolfSSL_SetIOSend
                0x9d06cf58        0x8
 .text.wolfSSL_SetIOSend
                0x9d06cf58        0x8 build/e16_encx24j600_spiflash/production/_ext/615233400/io.o
                0x9d06cf58                wolfSSL_SetIOSend

.text.wolfSSL_pending
                0x9d06cf60        0x8
 .text.wolfSSL_pending
                0x9d06cf60        0x8 build/e16_encx24j600_spiflash/production/_ext/615233400/ssl.o
                0x9d06cf60                wolfSSL_pending

.text._on_reset
                0x9d06cf68        0x8
 .text._on_reset
                0x9d06cf68        0x8 c:/program files (x86)/microchip/xc32/v1.42/bin/bin/../../lib/gcc/pic32mx/4.8.3/../../../../pic32mx/lib\libpic32.a(default-on-reset.o)
                0x9d06cf68                _on_reset

.text._on_bootstrap
                0x9d06cf70        0x8
 .text._on_bootstrap
                0x9d06cf70        0x8 c:/program files (x86)/microchip/xc32/v1.42/bin/bin/../../lib/gcc/pic32mx/4.8.3/../../../../pic32mx/lib\libpic32.a(default-on-bootstrap.o)
                0x9d06cf70                _on_bootstrap

.rodata         0x9d058dac        0x4
 .rodata        0x9d058dac        0x4 build/e16_encx24j600_spiflash/production/_ext/1164207549/tcpip_announce.o

.rodata         0x9d05ac5c        0x4
 .rodata        0x9d05ac5c        0x4 c:/program files (x86)/microchip/xc32/v1.42/bin/bin/../../lib/gcc/pic32mx/4.8.3/../../../../pic32mx/lib\libm.a(w_powf.o)
